
gate_sensor.elf:     file format elf32-littlearm

Sections:
Idx Name          Size      VMA       LMA       File off  Algn
  0 .isr_vector   000000c0  08000000  08000000  00001000  2**0
                  CONTENTS, ALLOC, LOAD, READONLY, DATA
  1 .text         000058e8  080000c0  080000c0  000010c0  2**2
                  CONTENTS, ALLOC, LOAD, READONLY, CODE
  2 .rodata       000001a8  080059a8  080059a8  000069a8  2**2
                  CONTENTS, ALLOC, LOAD, READONLY, DATA
  3 .ARM.extab    00000000  08005b50  08005b50  0000707c  2**0
                  CONTENTS, READONLY
  4 .ARM          00000000  08005b50  08005b50  0000707c  2**0
                  CONTENTS, READONLY
  5 .preinit_array 00000000  08005b50  08005b50  0000707c  2**0
                  CONTENTS, ALLOC, LOAD, DATA
  6 .init_array   00000004  08005b50  08005b50  00006b50  2**2
                  CONTENTS, ALLOC, LOAD, READONLY, DATA
  7 .fini_array   00000004  08005b54  08005b54  00006b54  2**2
                  CONTENTS, ALLOC, LOAD, READONLY, DATA
  8 .data         0000007c  20000000  08005b58  00007000  2**2
                  CONTENTS, ALLOC, LOAD, DATA
  9 .bss          000002ec  2000007c  08005bd4  0000707c  2**2
                  ALLOC
 10 ._user_heap_stack 00000600  20000368  08005bd4  00007368  2**0
                  ALLOC
 11 .ARM.attributes 00000028  00000000  00000000  0000707c  2**0
                  CONTENTS, READONLY
 12 .debug_info   0001ec6a  00000000  00000000  000070a4  2**0
                  CONTENTS, READONLY, DEBUGGING, OCTETS
 13 .debug_abbrev 00003317  00000000  00000000  00025d0e  2**0
                  CONTENTS, READONLY, DEBUGGING, OCTETS
 14 .debug_loclists 0001103f  00000000  00000000  00029025  2**0
                  CONTENTS, READONLY, DEBUGGING, OCTETS
 15 .debug_aranges 00001298  00000000  00000000  0003a068  2**3
                  CONTENTS, READONLY, DEBUGGING, OCTETS
 16 .debug_rnglists 00000f6b  00000000  00000000  0003b300  2**0
                  CONTENTS, READONLY, DEBUGGING, OCTETS
 17 .debug_macro  00015d17  00000000  00000000  0003c26b  2**0
                  CONTENTS, READONLY, DEBUGGING, OCTETS
 18 .debug_line   00020362  00000000  00000000  00051f82  2**0
                  CONTENTS, READONLY, DEBUGGING, OCTETS
 19 .debug_str    00085b6b  00000000  00000000  000722e4  2**0
                  CONTENTS, READONLY, DEBUGGING, OCTETS
 20 .comment      00000043  00000000  00000000  000f7e4f  2**0
                  CONTENTS, READONLY
 21 .debug_frame  00003cd4  00000000  00000000  000f7e94  2**2
                  CONTENTS, READONLY, DEBUGGING, OCTETS
 22 .debug_line_str 00000052  00000000  00000000  000fbb68  2**0
                  CONTENTS, READONLY, DEBUGGING, OCTETS

Disassembly of section .text:

080000c0 <__do_global_dtors_aux>:
 80000c0:	b510      	push	{r4, lr}
 80000c2:	4c06      	ldr	r4, [pc, #24]	@ (80000dc <__do_global_dtors_aux+0x1c>)
 80000c4:	7823      	ldrb	r3, [r4, #0]
 80000c6:	2b00      	cmp	r3, #0
 80000c8:	d107      	bne.n	80000da <__do_global_dtors_aux+0x1a>
 80000ca:	4b05      	ldr	r3, [pc, #20]	@ (80000e0 <__do_global_dtors_aux+0x20>)
 80000cc:	2b00      	cmp	r3, #0
 80000ce:	d002      	beq.n	80000d6 <__do_global_dtors_aux+0x16>
 80000d0:	4804      	ldr	r0, [pc, #16]	@ (80000e4 <__do_global_dtors_aux+0x24>)
 80000d2:	e000      	b.n	80000d6 <__do_global_dtors_aux+0x16>
 80000d4:	bf00      	nop
 80000d6:	2301      	movs	r3, #1
 80000d8:	7023      	strb	r3, [r4, #0]
 80000da:	bd10      	pop	{r4, pc}
 80000dc:	2000007c 	.word	0x2000007c
 80000e0:	00000000 	.word	0x00000000
 80000e4:	08005990 	.word	0x08005990

080000e8 <frame_dummy>:
 80000e8:	4b04      	ldr	r3, [pc, #16]	@ (80000fc <frame_dummy+0x14>)
 80000ea:	b510      	push	{r4, lr}
 80000ec:	2b00      	cmp	r3, #0
 80000ee:	d003      	beq.n	80000f8 <frame_dummy+0x10>
 80000f0:	4903      	ldr	r1, [pc, #12]	@ (8000100 <frame_dummy+0x18>)
 80000f2:	4804      	ldr	r0, [pc, #16]	@ (8000104 <frame_dummy+0x1c>)
 80000f4:	e000      	b.n	80000f8 <frame_dummy+0x10>
 80000f6:	bf00      	nop
 80000f8:	bd10      	pop	{r4, pc}
 80000fa:	46c0      	nop			@ (mov r8, r8)
 80000fc:	00000000 	.word	0x00000000
 8000100:	20000080 	.word	0x20000080
 8000104:	08005990 	.word	0x08005990

08000108 <strlen>:
 8000108:	2300      	movs	r3, #0
 800010a:	5cc2      	ldrb	r2, [r0, r3]
 800010c:	3301      	adds	r3, #1
 800010e:	2a00      	cmp	r2, #0
 8000110:	d1fb      	bne.n	800010a <strlen+0x2>
 8000112:	1e58      	subs	r0, r3, #1
 8000114:	4770      	bx	lr
	...

08000118 <__gnu_thumb1_case_shi>:
 8000118:	b403      	push	{r0, r1}
 800011a:	4671      	mov	r1, lr
 800011c:	0849      	lsrs	r1, r1, #1
 800011e:	0040      	lsls	r0, r0, #1
 8000120:	0049      	lsls	r1, r1, #1
 8000122:	5e09      	ldrsh	r1, [r1, r0]
 8000124:	0049      	lsls	r1, r1, #1
 8000126:	448e      	add	lr, r1
 8000128:	bc03      	pop	{r0, r1}
 800012a:	4770      	bx	lr

0800012c <__udivsi3>:
 800012c:	2200      	movs	r2, #0
 800012e:	0843      	lsrs	r3, r0, #1
 8000130:	428b      	cmp	r3, r1
 8000132:	d374      	bcc.n	800021e <__udivsi3+0xf2>
 8000134:	0903      	lsrs	r3, r0, #4
 8000136:	428b      	cmp	r3, r1
 8000138:	d35f      	bcc.n	80001fa <__udivsi3+0xce>
 800013a:	0a03      	lsrs	r3, r0, #8
 800013c:	428b      	cmp	r3, r1
 800013e:	d344      	bcc.n	80001ca <__udivsi3+0x9e>
 8000140:	0b03      	lsrs	r3, r0, #12
 8000142:	428b      	cmp	r3, r1
 8000144:	d328      	bcc.n	8000198 <__udivsi3+0x6c>
 8000146:	0c03      	lsrs	r3, r0, #16
 8000148:	428b      	cmp	r3, r1
 800014a:	d30d      	bcc.n	8000168 <__udivsi3+0x3c>
 800014c:	22ff      	movs	r2, #255	@ 0xff
 800014e:	0209      	lsls	r1, r1, #8
 8000150:	ba12      	rev	r2, r2
 8000152:	0c03      	lsrs	r3, r0, #16
 8000154:	428b      	cmp	r3, r1
 8000156:	d302      	bcc.n	800015e <__udivsi3+0x32>
 8000158:	1212      	asrs	r2, r2, #8
 800015a:	0209      	lsls	r1, r1, #8
 800015c:	d065      	beq.n	800022a <__udivsi3+0xfe>
 800015e:	0b03      	lsrs	r3, r0, #12
 8000160:	428b      	cmp	r3, r1
 8000162:	d319      	bcc.n	8000198 <__udivsi3+0x6c>
 8000164:	e000      	b.n	8000168 <__udivsi3+0x3c>
 8000166:	0a09      	lsrs	r1, r1, #8
 8000168:	0bc3      	lsrs	r3, r0, #15
 800016a:	428b      	cmp	r3, r1
 800016c:	d301      	bcc.n	8000172 <__udivsi3+0x46>
 800016e:	03cb      	lsls	r3, r1, #15
 8000170:	1ac0      	subs	r0, r0, r3
 8000172:	4152      	adcs	r2, r2
 8000174:	0b83      	lsrs	r3, r0, #14
 8000176:	428b      	cmp	r3, r1
 8000178:	d301      	bcc.n	800017e <__udivsi3+0x52>
 800017a:	038b      	lsls	r3, r1, #14
 800017c:	1ac0      	subs	r0, r0, r3
 800017e:	4152      	adcs	r2, r2
 8000180:	0b43      	lsrs	r3, r0, #13
 8000182:	428b      	cmp	r3, r1
 8000184:	d301      	bcc.n	800018a <__udivsi3+0x5e>
 8000186:	034b      	lsls	r3, r1, #13
 8000188:	1ac0      	subs	r0, r0, r3
 800018a:	4152      	adcs	r2, r2
 800018c:	0b03      	lsrs	r3, r0, #12
 800018e:	428b      	cmp	r3, r1
 8000190:	d301      	bcc.n	8000196 <__udivsi3+0x6a>
 8000192:	030b      	lsls	r3, r1, #12
 8000194:	1ac0      	subs	r0, r0, r3
 8000196:	4152      	adcs	r2, r2
 8000198:	0ac3      	lsrs	r3, r0, #11
 800019a:	428b      	cmp	r3, r1
 800019c:	d301      	bcc.n	80001a2 <__udivsi3+0x76>
 800019e:	02cb      	lsls	r3, r1, #11
 80001a0:	1ac0      	subs	r0, r0, r3
 80001a2:	4152      	adcs	r2, r2
 80001a4:	0a83      	lsrs	r3, r0, #10
 80001a6:	428b      	cmp	r3, r1
 80001a8:	d301      	bcc.n	80001ae <__udivsi3+0x82>
 80001aa:	028b      	lsls	r3, r1, #10
 80001ac:	1ac0      	subs	r0, r0, r3
 80001ae:	4152      	adcs	r2, r2
 80001b0:	0a43      	lsrs	r3, r0, #9
 80001b2:	428b      	cmp	r3, r1
 80001b4:	d301      	bcc.n	80001ba <__udivsi3+0x8e>
 80001b6:	024b      	lsls	r3, r1, #9
 80001b8:	1ac0      	subs	r0, r0, r3
 80001ba:	4152      	adcs	r2, r2
 80001bc:	0a03      	lsrs	r3, r0, #8
 80001be:	428b      	cmp	r3, r1
 80001c0:	d301      	bcc.n	80001c6 <__udivsi3+0x9a>
 80001c2:	020b      	lsls	r3, r1, #8
 80001c4:	1ac0      	subs	r0, r0, r3
 80001c6:	4152      	adcs	r2, r2
 80001c8:	d2cd      	bcs.n	8000166 <__udivsi3+0x3a>
 80001ca:	09c3      	lsrs	r3, r0, #7
 80001cc:	428b      	cmp	r3, r1
 80001ce:	d301      	bcc.n	80001d4 <__udivsi3+0xa8>
 80001d0:	01cb      	lsls	r3, r1, #7
 80001d2:	1ac0      	subs	r0, r0, r3
 80001d4:	4152      	adcs	r2, r2
 80001d6:	0983      	lsrs	r3, r0, #6
 80001d8:	428b      	cmp	r3, r1
 80001da:	d301      	bcc.n	80001e0 <__udivsi3+0xb4>
 80001dc:	018b      	lsls	r3, r1, #6
 80001de:	1ac0      	subs	r0, r0, r3
 80001e0:	4152      	adcs	r2, r2
 80001e2:	0943      	lsrs	r3, r0, #5
 80001e4:	428b      	cmp	r3, r1
 80001e6:	d301      	bcc.n	80001ec <__udivsi3+0xc0>
 80001e8:	014b      	lsls	r3, r1, #5
 80001ea:	1ac0      	subs	r0, r0, r3
 80001ec:	4152      	adcs	r2, r2
 80001ee:	0903      	lsrs	r3, r0, #4
 80001f0:	428b      	cmp	r3, r1
 80001f2:	d301      	bcc.n	80001f8 <__udivsi3+0xcc>
 80001f4:	010b      	lsls	r3, r1, #4
 80001f6:	1ac0      	subs	r0, r0, r3
 80001f8:	4152      	adcs	r2, r2
 80001fa:	08c3      	lsrs	r3, r0, #3
 80001fc:	428b      	cmp	r3, r1
 80001fe:	d301      	bcc.n	8000204 <__udivsi3+0xd8>
 8000200:	00cb      	lsls	r3, r1, #3
 8000202:	1ac0      	subs	r0, r0, r3
 8000204:	4152      	adcs	r2, r2
 8000206:	0883      	lsrs	r3, r0, #2
 8000208:	428b      	cmp	r3, r1
 800020a:	d301      	bcc.n	8000210 <__udivsi3+0xe4>
 800020c:	008b      	lsls	r3, r1, #2
 800020e:	1ac0      	subs	r0, r0, r3
 8000210:	4152      	adcs	r2, r2
 8000212:	0843      	lsrs	r3, r0, #1
 8000214:	428b      	cmp	r3, r1
 8000216:	d301      	bcc.n	800021c <__udivsi3+0xf0>
 8000218:	004b      	lsls	r3, r1, #1
 800021a:	1ac0      	subs	r0, r0, r3
 800021c:	4152      	adcs	r2, r2
 800021e:	1a41      	subs	r1, r0, r1
 8000220:	d200      	bcs.n	8000224 <__udivsi3+0xf8>
 8000222:	4601      	mov	r1, r0
 8000224:	4152      	adcs	r2, r2
 8000226:	4610      	mov	r0, r2
 8000228:	4770      	bx	lr
 800022a:	e7ff      	b.n	800022c <__udivsi3+0x100>
 800022c:	b501      	push	{r0, lr}
 800022e:	2000      	movs	r0, #0
 8000230:	f000 f8f0 	bl	8000414 <__aeabi_idiv0>
 8000234:	bd02      	pop	{r1, pc}
 8000236:	46c0      	nop			@ (mov r8, r8)

08000238 <__aeabi_uidivmod>:
 8000238:	2900      	cmp	r1, #0
 800023a:	d0f7      	beq.n	800022c <__udivsi3+0x100>
 800023c:	e776      	b.n	800012c <__udivsi3>
 800023e:	4770      	bx	lr

08000240 <__divsi3>:
 8000240:	4603      	mov	r3, r0
 8000242:	430b      	orrs	r3, r1
 8000244:	d47f      	bmi.n	8000346 <__divsi3+0x106>
 8000246:	2200      	movs	r2, #0
 8000248:	0843      	lsrs	r3, r0, #1
 800024a:	428b      	cmp	r3, r1
 800024c:	d374      	bcc.n	8000338 <__divsi3+0xf8>
 800024e:	0903      	lsrs	r3, r0, #4
 8000250:	428b      	cmp	r3, r1
 8000252:	d35f      	bcc.n	8000314 <__divsi3+0xd4>
 8000254:	0a03      	lsrs	r3, r0, #8
 8000256:	428b      	cmp	r3, r1
 8000258:	d344      	bcc.n	80002e4 <__divsi3+0xa4>
 800025a:	0b03      	lsrs	r3, r0, #12
 800025c:	428b      	cmp	r3, r1
 800025e:	d328      	bcc.n	80002b2 <__divsi3+0x72>
 8000260:	0c03      	lsrs	r3, r0, #16
 8000262:	428b      	cmp	r3, r1
 8000264:	d30d      	bcc.n	8000282 <__divsi3+0x42>
 8000266:	22ff      	movs	r2, #255	@ 0xff
 8000268:	0209      	lsls	r1, r1, #8
 800026a:	ba12      	rev	r2, r2
 800026c:	0c03      	lsrs	r3, r0, #16
 800026e:	428b      	cmp	r3, r1
 8000270:	d302      	bcc.n	8000278 <__divsi3+0x38>
 8000272:	1212      	asrs	r2, r2, #8
 8000274:	0209      	lsls	r1, r1, #8
 8000276:	d065      	beq.n	8000344 <__divsi3+0x104>
 8000278:	0b03      	lsrs	r3, r0, #12
 800027a:	428b      	cmp	r3, r1
 800027c:	d319      	bcc.n	80002b2 <__divsi3+0x72>
 800027e:	e000      	b.n	8000282 <__divsi3+0x42>
 8000280:	0a09      	lsrs	r1, r1, #8
 8000282:	0bc3      	lsrs	r3, r0, #15
 8000284:	428b      	cmp	r3, r1
 8000286:	d301      	bcc.n	800028c <__divsi3+0x4c>
 8000288:	03cb      	lsls	r3, r1, #15
 800028a:	1ac0      	subs	r0, r0, r3
 800028c:	4152      	adcs	r2, r2
 800028e:	0b83      	lsrs	r3, r0, #14
 8000290:	428b      	cmp	r3, r1
 8000292:	d301      	bcc.n	8000298 <__divsi3+0x58>
 8000294:	038b      	lsls	r3, r1, #14
 8000296:	1ac0      	subs	r0, r0, r3
 8000298:	4152      	adcs	r2, r2
 800029a:	0b43      	lsrs	r3, r0, #13
 800029c:	428b      	cmp	r3, r1
 800029e:	d301      	bcc.n	80002a4 <__divsi3+0x64>
 80002a0:	034b      	lsls	r3, r1, #13
 80002a2:	1ac0      	subs	r0, r0, r3
 80002a4:	4152      	adcs	r2, r2
 80002a6:	0b03      	lsrs	r3, r0, #12
 80002a8:	428b      	cmp	r3, r1
 80002aa:	d301      	bcc.n	80002b0 <__divsi3+0x70>
 80002ac:	030b      	lsls	r3, r1, #12
 80002ae:	1ac0      	subs	r0, r0, r3
 80002b0:	4152      	adcs	r2, r2
 80002b2:	0ac3      	lsrs	r3, r0, #11
 80002b4:	428b      	cmp	r3, r1
 80002b6:	d301      	bcc.n	80002bc <__divsi3+0x7c>
 80002b8:	02cb      	lsls	r3, r1, #11
 80002ba:	1ac0      	subs	r0, r0, r3
 80002bc:	4152      	adcs	r2, r2
 80002be:	0a83      	lsrs	r3, r0, #10
 80002c0:	428b      	cmp	r3, r1
 80002c2:	d301      	bcc.n	80002c8 <__divsi3+0x88>
 80002c4:	028b      	lsls	r3, r1, #10
 80002c6:	1ac0      	subs	r0, r0, r3
 80002c8:	4152      	adcs	r2, r2
 80002ca:	0a43      	lsrs	r3, r0, #9
 80002cc:	428b      	cmp	r3, r1
 80002ce:	d301      	bcc.n	80002d4 <__divsi3+0x94>
 80002d0:	024b      	lsls	r3, r1, #9
 80002d2:	1ac0      	subs	r0, r0, r3
 80002d4:	4152      	adcs	r2, r2
 80002d6:	0a03      	lsrs	r3, r0, #8
 80002d8:	428b      	cmp	r3, r1
 80002da:	d301      	bcc.n	80002e0 <__divsi3+0xa0>
 80002dc:	020b      	lsls	r3, r1, #8
 80002de:	1ac0      	subs	r0, r0, r3
 80002e0:	4152      	adcs	r2, r2
 80002e2:	d2cd      	bcs.n	8000280 <__divsi3+0x40>
 80002e4:	09c3      	lsrs	r3, r0, #7
 80002e6:	428b      	cmp	r3, r1
 80002e8:	d301      	bcc.n	80002ee <__divsi3+0xae>
 80002ea:	01cb      	lsls	r3, r1, #7
 80002ec:	1ac0      	subs	r0, r0, r3
 80002ee:	4152      	adcs	r2, r2
 80002f0:	0983      	lsrs	r3, r0, #6
 80002f2:	428b      	cmp	r3, r1
 80002f4:	d301      	bcc.n	80002fa <__divsi3+0xba>
 80002f6:	018b      	lsls	r3, r1, #6
 80002f8:	1ac0      	subs	r0, r0, r3
 80002fa:	4152      	adcs	r2, r2
 80002fc:	0943      	lsrs	r3, r0, #5
 80002fe:	428b      	cmp	r3, r1
 8000300:	d301      	bcc.n	8000306 <__divsi3+0xc6>
 8000302:	014b      	lsls	r3, r1, #5
 8000304:	1ac0      	subs	r0, r0, r3
 8000306:	4152      	adcs	r2, r2
 8000308:	0903      	lsrs	r3, r0, #4
 800030a:	428b      	cmp	r3, r1
 800030c:	d301      	bcc.n	8000312 <__divsi3+0xd2>
 800030e:	010b      	lsls	r3, r1, #4
 8000310:	1ac0      	subs	r0, r0, r3
 8000312:	4152      	adcs	r2, r2
 8000314:	08c3      	lsrs	r3, r0, #3
 8000316:	428b      	cmp	r3, r1
 8000318:	d301      	bcc.n	800031e <__divsi3+0xde>
 800031a:	00cb      	lsls	r3, r1, #3
 800031c:	1ac0      	subs	r0, r0, r3
 800031e:	4152      	adcs	r2, r2
 8000320:	0883      	lsrs	r3, r0, #2
 8000322:	428b      	cmp	r3, r1
 8000324:	d301      	bcc.n	800032a <__divsi3+0xea>
 8000326:	008b      	lsls	r3, r1, #2
 8000328:	1ac0      	subs	r0, r0, r3
 800032a:	4152      	adcs	r2, r2
 800032c:	0843      	lsrs	r3, r0, #1
 800032e:	428b      	cmp	r3, r1
 8000330:	d301      	bcc.n	8000336 <__divsi3+0xf6>
 8000332:	004b      	lsls	r3, r1, #1
 8000334:	1ac0      	subs	r0, r0, r3
 8000336:	4152      	adcs	r2, r2
 8000338:	1a41      	subs	r1, r0, r1
 800033a:	d200      	bcs.n	800033e <__divsi3+0xfe>
 800033c:	4601      	mov	r1, r0
 800033e:	4152      	adcs	r2, r2
 8000340:	4610      	mov	r0, r2
 8000342:	4770      	bx	lr
 8000344:	e05d      	b.n	8000402 <__divsi3+0x1c2>
 8000346:	0fca      	lsrs	r2, r1, #31
 8000348:	d000      	beq.n	800034c <__divsi3+0x10c>
 800034a:	4249      	negs	r1, r1
 800034c:	1003      	asrs	r3, r0, #32
 800034e:	d300      	bcc.n	8000352 <__divsi3+0x112>
 8000350:	4240      	negs	r0, r0
 8000352:	4053      	eors	r3, r2
 8000354:	2200      	movs	r2, #0
 8000356:	469c      	mov	ip, r3
 8000358:	0903      	lsrs	r3, r0, #4
 800035a:	428b      	cmp	r3, r1
 800035c:	d32d      	bcc.n	80003ba <__divsi3+0x17a>
 800035e:	0a03      	lsrs	r3, r0, #8
 8000360:	428b      	cmp	r3, r1
 8000362:	d312      	bcc.n	800038a <__divsi3+0x14a>
 8000364:	22fc      	movs	r2, #252	@ 0xfc
 8000366:	0189      	lsls	r1, r1, #6
 8000368:	ba12      	rev	r2, r2
 800036a:	0a03      	lsrs	r3, r0, #8
 800036c:	428b      	cmp	r3, r1
 800036e:	d30c      	bcc.n	800038a <__divsi3+0x14a>
 8000370:	0189      	lsls	r1, r1, #6
 8000372:	1192      	asrs	r2, r2, #6
 8000374:	428b      	cmp	r3, r1
 8000376:	d308      	bcc.n	800038a <__divsi3+0x14a>
 8000378:	0189      	lsls	r1, r1, #6
 800037a:	1192      	asrs	r2, r2, #6
 800037c:	428b      	cmp	r3, r1
 800037e:	d304      	bcc.n	800038a <__divsi3+0x14a>
 8000380:	0189      	lsls	r1, r1, #6
 8000382:	d03a      	beq.n	80003fa <__divsi3+0x1ba>
 8000384:	1192      	asrs	r2, r2, #6
 8000386:	e000      	b.n	800038a <__divsi3+0x14a>
 8000388:	0989      	lsrs	r1, r1, #6
 800038a:	09c3      	lsrs	r3, r0, #7
 800038c:	428b      	cmp	r3, r1
 800038e:	d301      	bcc.n	8000394 <__divsi3+0x154>
 8000390:	01cb      	lsls	r3, r1, #7
 8000392:	1ac0      	subs	r0, r0, r3
 8000394:	4152      	adcs	r2, r2
 8000396:	0983      	lsrs	r3, r0, #6
 8000398:	428b      	cmp	r3, r1
 800039a:	d301      	bcc.n	80003a0 <__divsi3+0x160>
 800039c:	018b      	lsls	r3, r1, #6
 800039e:	1ac0      	subs	r0, r0, r3
 80003a0:	4152      	adcs	r2, r2
 80003a2:	0943      	lsrs	r3, r0, #5
 80003a4:	428b      	cmp	r3, r1
 80003a6:	d301      	bcc.n	80003ac <__divsi3+0x16c>
 80003a8:	014b      	lsls	r3, r1, #5
 80003aa:	1ac0      	subs	r0, r0, r3
 80003ac:	4152      	adcs	r2, r2
 80003ae:	0903      	lsrs	r3, r0, #4
 80003b0:	428b      	cmp	r3, r1
 80003b2:	d301      	bcc.n	80003b8 <__divsi3+0x178>
 80003b4:	010b      	lsls	r3, r1, #4
 80003b6:	1ac0      	subs	r0, r0, r3
 80003b8:	4152      	adcs	r2, r2
 80003ba:	08c3      	lsrs	r3, r0, #3
 80003bc:	428b      	cmp	r3, r1
 80003be:	d301      	bcc.n	80003c4 <__divsi3+0x184>
 80003c0:	00cb      	lsls	r3, r1, #3
 80003c2:	1ac0      	subs	r0, r0, r3
 80003c4:	4152      	adcs	r2, r2
 80003c6:	0883      	lsrs	r3, r0, #2
 80003c8:	428b      	cmp	r3, r1
 80003ca:	d301      	bcc.n	80003d0 <__divsi3+0x190>
 80003cc:	008b      	lsls	r3, r1, #2
 80003ce:	1ac0      	subs	r0, r0, r3
 80003d0:	4152      	adcs	r2, r2
 80003d2:	d2d9      	bcs.n	8000388 <__divsi3+0x148>
 80003d4:	0843      	lsrs	r3, r0, #1
 80003d6:	428b      	cmp	r3, r1
 80003d8:	d301      	bcc.n	80003de <__divsi3+0x19e>
 80003da:	004b      	lsls	r3, r1, #1
 80003dc:	1ac0      	subs	r0, r0, r3
 80003de:	4152      	adcs	r2, r2
 80003e0:	1a41      	subs	r1, r0, r1
 80003e2:	d200      	bcs.n	80003e6 <__divsi3+0x1a6>
 80003e4:	4601      	mov	r1, r0
 80003e6:	4663      	mov	r3, ip
 80003e8:	4152      	adcs	r2, r2
 80003ea:	105b      	asrs	r3, r3, #1
 80003ec:	4610      	mov	r0, r2
 80003ee:	d301      	bcc.n	80003f4 <__divsi3+0x1b4>
 80003f0:	4240      	negs	r0, r0
 80003f2:	2b00      	cmp	r3, #0
 80003f4:	d500      	bpl.n	80003f8 <__divsi3+0x1b8>
 80003f6:	4249      	negs	r1, r1
 80003f8:	4770      	bx	lr
 80003fa:	4663      	mov	r3, ip
 80003fc:	105b      	asrs	r3, r3, #1
 80003fe:	d300      	bcc.n	8000402 <__divsi3+0x1c2>
 8000400:	4240      	negs	r0, r0
 8000402:	b501      	push	{r0, lr}
 8000404:	2000      	movs	r0, #0
 8000406:	f000 f805 	bl	8000414 <__aeabi_idiv0>
 800040a:	bd02      	pop	{r1, pc}

0800040c <__aeabi_idivmod>:
 800040c:	2900      	cmp	r1, #0
 800040e:	d0f8      	beq.n	8000402 <__divsi3+0x1c2>
 8000410:	e716      	b.n	8000240 <__divsi3>
 8000412:	4770      	bx	lr

08000414 <__aeabi_idiv0>:
 8000414:	4770      	bx	lr
 8000416:	46c0      	nop			@ (mov r8, r8)

08000418 <__aeabi_cfrcmple>:
 8000418:	4684      	mov	ip, r0
 800041a:	0008      	movs	r0, r1
 800041c:	4661      	mov	r1, ip
 800041e:	e7ff      	b.n	8000420 <__aeabi_cfcmpeq>

08000420 <__aeabi_cfcmpeq>:
 8000420:	b51f      	push	{r0, r1, r2, r3, r4, lr}
 8000422:	f000 fbab 	bl	8000b7c <__lesf2>
 8000426:	2800      	cmp	r0, #0
 8000428:	d401      	bmi.n	800042e <__aeabi_cfcmpeq+0xe>
 800042a:	2100      	movs	r1, #0
 800042c:	42c8      	cmn	r0, r1
 800042e:	bd1f      	pop	{r0, r1, r2, r3, r4, pc}

08000430 <__aeabi_fcmpeq>:
 8000430:	b510      	push	{r4, lr}
 8000432:	f000 fb33 	bl	8000a9c <__eqsf2>
 8000436:	4240      	negs	r0, r0
 8000438:	3001      	adds	r0, #1
 800043a:	bd10      	pop	{r4, pc}

0800043c <__aeabi_fcmplt>:
 800043c:	b510      	push	{r4, lr}
 800043e:	f000 fb9d 	bl	8000b7c <__lesf2>
 8000442:	2800      	cmp	r0, #0
 8000444:	db01      	blt.n	800044a <__aeabi_fcmplt+0xe>
 8000446:	2000      	movs	r0, #0
 8000448:	bd10      	pop	{r4, pc}
 800044a:	2001      	movs	r0, #1
 800044c:	bd10      	pop	{r4, pc}
 800044e:	46c0      	nop			@ (mov r8, r8)

08000450 <__aeabi_fcmple>:
 8000450:	b510      	push	{r4, lr}
 8000452:	f000 fb93 	bl	8000b7c <__lesf2>
 8000456:	2800      	cmp	r0, #0
 8000458:	dd01      	ble.n	800045e <__aeabi_fcmple+0xe>
 800045a:	2000      	movs	r0, #0
 800045c:	bd10      	pop	{r4, pc}
 800045e:	2001      	movs	r0, #1
 8000460:	bd10      	pop	{r4, pc}
 8000462:	46c0      	nop			@ (mov r8, r8)

08000464 <__aeabi_fcmpgt>:
 8000464:	b510      	push	{r4, lr}
 8000466:	f000 fb41 	bl	8000aec <__gesf2>
 800046a:	2800      	cmp	r0, #0
 800046c:	dc01      	bgt.n	8000472 <__aeabi_fcmpgt+0xe>
 800046e:	2000      	movs	r0, #0
 8000470:	bd10      	pop	{r4, pc}
 8000472:	2001      	movs	r0, #1
 8000474:	bd10      	pop	{r4, pc}
 8000476:	46c0      	nop			@ (mov r8, r8)

08000478 <__aeabi_fcmpge>:
 8000478:	b510      	push	{r4, lr}
 800047a:	f000 fb37 	bl	8000aec <__gesf2>
 800047e:	2800      	cmp	r0, #0
 8000480:	da01      	bge.n	8000486 <__aeabi_fcmpge+0xe>
 8000482:	2000      	movs	r0, #0
 8000484:	bd10      	pop	{r4, pc}
 8000486:	2001      	movs	r0, #1
 8000488:	bd10      	pop	{r4, pc}
 800048a:	46c0      	nop			@ (mov r8, r8)

0800048c <__aeabi_fadd>:
 800048c:	b5f8      	push	{r3, r4, r5, r6, r7, lr}
 800048e:	024b      	lsls	r3, r1, #9
 8000490:	0a5a      	lsrs	r2, r3, #9
 8000492:	4694      	mov	ip, r2
 8000494:	004a      	lsls	r2, r1, #1
 8000496:	0fc9      	lsrs	r1, r1, #31
 8000498:	46ce      	mov	lr, r9
 800049a:	4647      	mov	r7, r8
 800049c:	4689      	mov	r9, r1
 800049e:	0045      	lsls	r5, r0, #1
 80004a0:	0246      	lsls	r6, r0, #9
 80004a2:	0e2d      	lsrs	r5, r5, #24
 80004a4:	0e12      	lsrs	r2, r2, #24
 80004a6:	b580      	push	{r7, lr}
 80004a8:	0999      	lsrs	r1, r3, #6
 80004aa:	0a77      	lsrs	r7, r6, #9
 80004ac:	0fc4      	lsrs	r4, r0, #31
 80004ae:	09b6      	lsrs	r6, r6, #6
 80004b0:	1aab      	subs	r3, r5, r2
 80004b2:	454c      	cmp	r4, r9
 80004b4:	d020      	beq.n	80004f8 <__aeabi_fadd+0x6c>
 80004b6:	2b00      	cmp	r3, #0
 80004b8:	dd0c      	ble.n	80004d4 <__aeabi_fadd+0x48>
 80004ba:	2a00      	cmp	r2, #0
 80004bc:	d134      	bne.n	8000528 <__aeabi_fadd+0x9c>
 80004be:	2900      	cmp	r1, #0
 80004c0:	d02a      	beq.n	8000518 <__aeabi_fadd+0x8c>
 80004c2:	1e5a      	subs	r2, r3, #1
 80004c4:	2b01      	cmp	r3, #1
 80004c6:	d100      	bne.n	80004ca <__aeabi_fadd+0x3e>
 80004c8:	e08f      	b.n	80005ea <__aeabi_fadd+0x15e>
 80004ca:	2bff      	cmp	r3, #255	@ 0xff
 80004cc:	d100      	bne.n	80004d0 <__aeabi_fadd+0x44>
 80004ce:	e0cd      	b.n	800066c <__aeabi_fadd+0x1e0>
 80004d0:	0013      	movs	r3, r2
 80004d2:	e02f      	b.n	8000534 <__aeabi_fadd+0xa8>
 80004d4:	2b00      	cmp	r3, #0
 80004d6:	d060      	beq.n	800059a <__aeabi_fadd+0x10e>
 80004d8:	1b53      	subs	r3, r2, r5
 80004da:	2d00      	cmp	r5, #0
 80004dc:	d000      	beq.n	80004e0 <__aeabi_fadd+0x54>
 80004de:	e0ee      	b.n	80006be <__aeabi_fadd+0x232>
 80004e0:	2e00      	cmp	r6, #0
 80004e2:	d100      	bne.n	80004e6 <__aeabi_fadd+0x5a>
 80004e4:	e13e      	b.n	8000764 <__aeabi_fadd+0x2d8>
 80004e6:	1e5c      	subs	r4, r3, #1
 80004e8:	2b01      	cmp	r3, #1
 80004ea:	d100      	bne.n	80004ee <__aeabi_fadd+0x62>
 80004ec:	e16b      	b.n	80007c6 <__aeabi_fadd+0x33a>
 80004ee:	2bff      	cmp	r3, #255	@ 0xff
 80004f0:	d100      	bne.n	80004f4 <__aeabi_fadd+0x68>
 80004f2:	e0b9      	b.n	8000668 <__aeabi_fadd+0x1dc>
 80004f4:	0023      	movs	r3, r4
 80004f6:	e0e7      	b.n	80006c8 <__aeabi_fadd+0x23c>
 80004f8:	2b00      	cmp	r3, #0
 80004fa:	dc00      	bgt.n	80004fe <__aeabi_fadd+0x72>
 80004fc:	e0a4      	b.n	8000648 <__aeabi_fadd+0x1bc>
 80004fe:	2a00      	cmp	r2, #0
 8000500:	d069      	beq.n	80005d6 <__aeabi_fadd+0x14a>
 8000502:	2dff      	cmp	r5, #255	@ 0xff
 8000504:	d100      	bne.n	8000508 <__aeabi_fadd+0x7c>
 8000506:	e0b1      	b.n	800066c <__aeabi_fadd+0x1e0>
 8000508:	2280      	movs	r2, #128	@ 0x80
 800050a:	04d2      	lsls	r2, r2, #19
 800050c:	4311      	orrs	r1, r2
 800050e:	2b1b      	cmp	r3, #27
 8000510:	dc00      	bgt.n	8000514 <__aeabi_fadd+0x88>
 8000512:	e0e9      	b.n	80006e8 <__aeabi_fadd+0x25c>
 8000514:	002b      	movs	r3, r5
 8000516:	3605      	adds	r6, #5
 8000518:	08f7      	lsrs	r7, r6, #3
 800051a:	2bff      	cmp	r3, #255	@ 0xff
 800051c:	d100      	bne.n	8000520 <__aeabi_fadd+0x94>
 800051e:	e0a5      	b.n	800066c <__aeabi_fadd+0x1e0>
 8000520:	027a      	lsls	r2, r7, #9
 8000522:	0a52      	lsrs	r2, r2, #9
 8000524:	b2d8      	uxtb	r0, r3
 8000526:	e030      	b.n	800058a <__aeabi_fadd+0xfe>
 8000528:	2dff      	cmp	r5, #255	@ 0xff
 800052a:	d100      	bne.n	800052e <__aeabi_fadd+0xa2>
 800052c:	e09e      	b.n	800066c <__aeabi_fadd+0x1e0>
 800052e:	2280      	movs	r2, #128	@ 0x80
 8000530:	04d2      	lsls	r2, r2, #19
 8000532:	4311      	orrs	r1, r2
 8000534:	2001      	movs	r0, #1
 8000536:	2b1b      	cmp	r3, #27
 8000538:	dc08      	bgt.n	800054c <__aeabi_fadd+0xc0>
 800053a:	0008      	movs	r0, r1
 800053c:	2220      	movs	r2, #32
 800053e:	40d8      	lsrs	r0, r3
 8000540:	1ad3      	subs	r3, r2, r3
 8000542:	4099      	lsls	r1, r3
 8000544:	000b      	movs	r3, r1
 8000546:	1e5a      	subs	r2, r3, #1
 8000548:	4193      	sbcs	r3, r2
 800054a:	4318      	orrs	r0, r3
 800054c:	1a36      	subs	r6, r6, r0
 800054e:	0173      	lsls	r3, r6, #5
 8000550:	d400      	bmi.n	8000554 <__aeabi_fadd+0xc8>
 8000552:	e071      	b.n	8000638 <__aeabi_fadd+0x1ac>
 8000554:	01b6      	lsls	r6, r6, #6
 8000556:	09b7      	lsrs	r7, r6, #6
 8000558:	0038      	movs	r0, r7
 800055a:	f000 ff7b 	bl	8001454 <__clzsi2>
 800055e:	003b      	movs	r3, r7
 8000560:	3805      	subs	r0, #5
 8000562:	4083      	lsls	r3, r0
 8000564:	4285      	cmp	r5, r0
 8000566:	dd4d      	ble.n	8000604 <__aeabi_fadd+0x178>
 8000568:	4eb4      	ldr	r6, [pc, #720]	@ (800083c <__aeabi_fadd+0x3b0>)
 800056a:	1a2d      	subs	r5, r5, r0
 800056c:	401e      	ands	r6, r3
 800056e:	075a      	lsls	r2, r3, #29
 8000570:	d068      	beq.n	8000644 <__aeabi_fadd+0x1b8>
 8000572:	220f      	movs	r2, #15
 8000574:	4013      	ands	r3, r2
 8000576:	2b04      	cmp	r3, #4
 8000578:	d064      	beq.n	8000644 <__aeabi_fadd+0x1b8>
 800057a:	3604      	adds	r6, #4
 800057c:	0173      	lsls	r3, r6, #5
 800057e:	d561      	bpl.n	8000644 <__aeabi_fadd+0x1b8>
 8000580:	1c68      	adds	r0, r5, #1
 8000582:	2dfe      	cmp	r5, #254	@ 0xfe
 8000584:	d154      	bne.n	8000630 <__aeabi_fadd+0x1a4>
 8000586:	20ff      	movs	r0, #255	@ 0xff
 8000588:	2200      	movs	r2, #0
 800058a:	05c0      	lsls	r0, r0, #23
 800058c:	4310      	orrs	r0, r2
 800058e:	07e4      	lsls	r4, r4, #31
 8000590:	4320      	orrs	r0, r4
 8000592:	bcc0      	pop	{r6, r7}
 8000594:	46b9      	mov	r9, r7
 8000596:	46b0      	mov	r8, r6
 8000598:	bdf8      	pop	{r3, r4, r5, r6, r7, pc}
 800059a:	22fe      	movs	r2, #254	@ 0xfe
 800059c:	4690      	mov	r8, r2
 800059e:	1c68      	adds	r0, r5, #1
 80005a0:	0002      	movs	r2, r0
 80005a2:	4640      	mov	r0, r8
 80005a4:	4210      	tst	r0, r2
 80005a6:	d16b      	bne.n	8000680 <__aeabi_fadd+0x1f4>
 80005a8:	2d00      	cmp	r5, #0
 80005aa:	d000      	beq.n	80005ae <__aeabi_fadd+0x122>
 80005ac:	e0dd      	b.n	800076a <__aeabi_fadd+0x2de>
 80005ae:	2e00      	cmp	r6, #0
 80005b0:	d100      	bne.n	80005b4 <__aeabi_fadd+0x128>
 80005b2:	e102      	b.n	80007ba <__aeabi_fadd+0x32e>
 80005b4:	2900      	cmp	r1, #0
 80005b6:	d0b3      	beq.n	8000520 <__aeabi_fadd+0x94>
 80005b8:	2280      	movs	r2, #128	@ 0x80
 80005ba:	1a77      	subs	r7, r6, r1
 80005bc:	04d2      	lsls	r2, r2, #19
 80005be:	4217      	tst	r7, r2
 80005c0:	d100      	bne.n	80005c4 <__aeabi_fadd+0x138>
 80005c2:	e136      	b.n	8000832 <__aeabi_fadd+0x3a6>
 80005c4:	464c      	mov	r4, r9
 80005c6:	1b8e      	subs	r6, r1, r6
 80005c8:	d061      	beq.n	800068e <__aeabi_fadd+0x202>
 80005ca:	2001      	movs	r0, #1
 80005cc:	4216      	tst	r6, r2
 80005ce:	d130      	bne.n	8000632 <__aeabi_fadd+0x1a6>
 80005d0:	2300      	movs	r3, #0
 80005d2:	08f7      	lsrs	r7, r6, #3
 80005d4:	e7a4      	b.n	8000520 <__aeabi_fadd+0x94>
 80005d6:	2900      	cmp	r1, #0
 80005d8:	d09e      	beq.n	8000518 <__aeabi_fadd+0x8c>
 80005da:	1e5a      	subs	r2, r3, #1
 80005dc:	2b01      	cmp	r3, #1
 80005de:	d100      	bne.n	80005e2 <__aeabi_fadd+0x156>
 80005e0:	e0ca      	b.n	8000778 <__aeabi_fadd+0x2ec>
 80005e2:	2bff      	cmp	r3, #255	@ 0xff
 80005e4:	d042      	beq.n	800066c <__aeabi_fadd+0x1e0>
 80005e6:	0013      	movs	r3, r2
 80005e8:	e791      	b.n	800050e <__aeabi_fadd+0x82>
 80005ea:	1a71      	subs	r1, r6, r1
 80005ec:	014b      	lsls	r3, r1, #5
 80005ee:	d400      	bmi.n	80005f2 <__aeabi_fadd+0x166>
 80005f0:	e0d1      	b.n	8000796 <__aeabi_fadd+0x30a>
 80005f2:	018f      	lsls	r7, r1, #6
 80005f4:	09bf      	lsrs	r7, r7, #6
 80005f6:	0038      	movs	r0, r7
 80005f8:	f000 ff2c 	bl	8001454 <__clzsi2>
 80005fc:	003b      	movs	r3, r7
 80005fe:	3805      	subs	r0, #5
 8000600:	4083      	lsls	r3, r0
 8000602:	2501      	movs	r5, #1
 8000604:	2220      	movs	r2, #32
 8000606:	1b40      	subs	r0, r0, r5
 8000608:	3001      	adds	r0, #1
 800060a:	1a12      	subs	r2, r2, r0
 800060c:	001e      	movs	r6, r3
 800060e:	4093      	lsls	r3, r2
 8000610:	40c6      	lsrs	r6, r0
 8000612:	1e5a      	subs	r2, r3, #1
 8000614:	4193      	sbcs	r3, r2
 8000616:	431e      	orrs	r6, r3
 8000618:	d039      	beq.n	800068e <__aeabi_fadd+0x202>
 800061a:	0773      	lsls	r3, r6, #29
 800061c:	d100      	bne.n	8000620 <__aeabi_fadd+0x194>
 800061e:	e11b      	b.n	8000858 <__aeabi_fadd+0x3cc>
 8000620:	230f      	movs	r3, #15
 8000622:	2500      	movs	r5, #0
 8000624:	4033      	ands	r3, r6
 8000626:	2b04      	cmp	r3, #4
 8000628:	d1a7      	bne.n	800057a <__aeabi_fadd+0xee>
 800062a:	2001      	movs	r0, #1
 800062c:	0172      	lsls	r2, r6, #5
 800062e:	d57c      	bpl.n	800072a <__aeabi_fadd+0x29e>
 8000630:	b2c0      	uxtb	r0, r0
 8000632:	01b2      	lsls	r2, r6, #6
 8000634:	0a52      	lsrs	r2, r2, #9
 8000636:	e7a8      	b.n	800058a <__aeabi_fadd+0xfe>
 8000638:	0773      	lsls	r3, r6, #29
 800063a:	d003      	beq.n	8000644 <__aeabi_fadd+0x1b8>
 800063c:	230f      	movs	r3, #15
 800063e:	4033      	ands	r3, r6
 8000640:	2b04      	cmp	r3, #4
 8000642:	d19a      	bne.n	800057a <__aeabi_fadd+0xee>
 8000644:	002b      	movs	r3, r5
 8000646:	e767      	b.n	8000518 <__aeabi_fadd+0x8c>
 8000648:	2b00      	cmp	r3, #0
 800064a:	d023      	beq.n	8000694 <__aeabi_fadd+0x208>
 800064c:	1b53      	subs	r3, r2, r5
 800064e:	2d00      	cmp	r5, #0
 8000650:	d17b      	bne.n	800074a <__aeabi_fadd+0x2be>
 8000652:	2e00      	cmp	r6, #0
 8000654:	d100      	bne.n	8000658 <__aeabi_fadd+0x1cc>
 8000656:	e086      	b.n	8000766 <__aeabi_fadd+0x2da>
 8000658:	1e5d      	subs	r5, r3, #1
 800065a:	2b01      	cmp	r3, #1
 800065c:	d100      	bne.n	8000660 <__aeabi_fadd+0x1d4>
 800065e:	e08b      	b.n	8000778 <__aeabi_fadd+0x2ec>
 8000660:	2bff      	cmp	r3, #255	@ 0xff
 8000662:	d002      	beq.n	800066a <__aeabi_fadd+0x1de>
 8000664:	002b      	movs	r3, r5
 8000666:	e075      	b.n	8000754 <__aeabi_fadd+0x2c8>
 8000668:	464c      	mov	r4, r9
 800066a:	4667      	mov	r7, ip
 800066c:	2f00      	cmp	r7, #0
 800066e:	d100      	bne.n	8000672 <__aeabi_fadd+0x1e6>
 8000670:	e789      	b.n	8000586 <__aeabi_fadd+0xfa>
 8000672:	2280      	movs	r2, #128	@ 0x80
 8000674:	03d2      	lsls	r2, r2, #15
 8000676:	433a      	orrs	r2, r7
 8000678:	0252      	lsls	r2, r2, #9
 800067a:	20ff      	movs	r0, #255	@ 0xff
 800067c:	0a52      	lsrs	r2, r2, #9
 800067e:	e784      	b.n	800058a <__aeabi_fadd+0xfe>
 8000680:	1a77      	subs	r7, r6, r1
 8000682:	017b      	lsls	r3, r7, #5
 8000684:	d46b      	bmi.n	800075e <__aeabi_fadd+0x2d2>
 8000686:	2f00      	cmp	r7, #0
 8000688:	d000      	beq.n	800068c <__aeabi_fadd+0x200>
 800068a:	e765      	b.n	8000558 <__aeabi_fadd+0xcc>
 800068c:	2400      	movs	r4, #0
 800068e:	2000      	movs	r0, #0
 8000690:	2200      	movs	r2, #0
 8000692:	e77a      	b.n	800058a <__aeabi_fadd+0xfe>
 8000694:	22fe      	movs	r2, #254	@ 0xfe
 8000696:	1c6b      	adds	r3, r5, #1
 8000698:	421a      	tst	r2, r3
 800069a:	d149      	bne.n	8000730 <__aeabi_fadd+0x2a4>
 800069c:	2d00      	cmp	r5, #0
 800069e:	d000      	beq.n	80006a2 <__aeabi_fadd+0x216>
 80006a0:	e09f      	b.n	80007e2 <__aeabi_fadd+0x356>
 80006a2:	2e00      	cmp	r6, #0
 80006a4:	d100      	bne.n	80006a8 <__aeabi_fadd+0x21c>
 80006a6:	e0ba      	b.n	800081e <__aeabi_fadd+0x392>
 80006a8:	2900      	cmp	r1, #0
 80006aa:	d100      	bne.n	80006ae <__aeabi_fadd+0x222>
 80006ac:	e0cf      	b.n	800084e <__aeabi_fadd+0x3c2>
 80006ae:	1872      	adds	r2, r6, r1
 80006b0:	0153      	lsls	r3, r2, #5
 80006b2:	d400      	bmi.n	80006b6 <__aeabi_fadd+0x22a>
 80006b4:	e0cd      	b.n	8000852 <__aeabi_fadd+0x3c6>
 80006b6:	0192      	lsls	r2, r2, #6
 80006b8:	2001      	movs	r0, #1
 80006ba:	0a52      	lsrs	r2, r2, #9
 80006bc:	e765      	b.n	800058a <__aeabi_fadd+0xfe>
 80006be:	2aff      	cmp	r2, #255	@ 0xff
 80006c0:	d0d2      	beq.n	8000668 <__aeabi_fadd+0x1dc>
 80006c2:	2080      	movs	r0, #128	@ 0x80
 80006c4:	04c0      	lsls	r0, r0, #19
 80006c6:	4306      	orrs	r6, r0
 80006c8:	2001      	movs	r0, #1
 80006ca:	2b1b      	cmp	r3, #27
 80006cc:	dc08      	bgt.n	80006e0 <__aeabi_fadd+0x254>
 80006ce:	0030      	movs	r0, r6
 80006d0:	2420      	movs	r4, #32
 80006d2:	40d8      	lsrs	r0, r3
 80006d4:	1ae3      	subs	r3, r4, r3
 80006d6:	409e      	lsls	r6, r3
 80006d8:	0033      	movs	r3, r6
 80006da:	1e5c      	subs	r4, r3, #1
 80006dc:	41a3      	sbcs	r3, r4
 80006de:	4318      	orrs	r0, r3
 80006e0:	464c      	mov	r4, r9
 80006e2:	0015      	movs	r5, r2
 80006e4:	1a0e      	subs	r6, r1, r0
 80006e6:	e732      	b.n	800054e <__aeabi_fadd+0xc2>
 80006e8:	0008      	movs	r0, r1
 80006ea:	2220      	movs	r2, #32
 80006ec:	40d8      	lsrs	r0, r3
 80006ee:	1ad3      	subs	r3, r2, r3
 80006f0:	4099      	lsls	r1, r3
 80006f2:	000b      	movs	r3, r1
 80006f4:	1e5a      	subs	r2, r3, #1
 80006f6:	4193      	sbcs	r3, r2
 80006f8:	4303      	orrs	r3, r0
 80006fa:	18f6      	adds	r6, r6, r3
 80006fc:	0173      	lsls	r3, r6, #5
 80006fe:	d59b      	bpl.n	8000638 <__aeabi_fadd+0x1ac>
 8000700:	3501      	adds	r5, #1
 8000702:	2dff      	cmp	r5, #255	@ 0xff
 8000704:	d100      	bne.n	8000708 <__aeabi_fadd+0x27c>
 8000706:	e73e      	b.n	8000586 <__aeabi_fadd+0xfa>
 8000708:	2301      	movs	r3, #1
 800070a:	494d      	ldr	r1, [pc, #308]	@ (8000840 <__aeabi_fadd+0x3b4>)
 800070c:	0872      	lsrs	r2, r6, #1
 800070e:	4033      	ands	r3, r6
 8000710:	400a      	ands	r2, r1
 8000712:	431a      	orrs	r2, r3
 8000714:	0016      	movs	r6, r2
 8000716:	0753      	lsls	r3, r2, #29
 8000718:	d004      	beq.n	8000724 <__aeabi_fadd+0x298>
 800071a:	230f      	movs	r3, #15
 800071c:	4013      	ands	r3, r2
 800071e:	2b04      	cmp	r3, #4
 8000720:	d000      	beq.n	8000724 <__aeabi_fadd+0x298>
 8000722:	e72a      	b.n	800057a <__aeabi_fadd+0xee>
 8000724:	0173      	lsls	r3, r6, #5
 8000726:	d500      	bpl.n	800072a <__aeabi_fadd+0x29e>
 8000728:	e72a      	b.n	8000580 <__aeabi_fadd+0xf4>
 800072a:	002b      	movs	r3, r5
 800072c:	08f7      	lsrs	r7, r6, #3
 800072e:	e6f7      	b.n	8000520 <__aeabi_fadd+0x94>
 8000730:	2bff      	cmp	r3, #255	@ 0xff
 8000732:	d100      	bne.n	8000736 <__aeabi_fadd+0x2aa>
 8000734:	e727      	b.n	8000586 <__aeabi_fadd+0xfa>
 8000736:	1871      	adds	r1, r6, r1
 8000738:	0849      	lsrs	r1, r1, #1
 800073a:	074a      	lsls	r2, r1, #29
 800073c:	d02f      	beq.n	800079e <__aeabi_fadd+0x312>
 800073e:	220f      	movs	r2, #15
 8000740:	400a      	ands	r2, r1
 8000742:	2a04      	cmp	r2, #4
 8000744:	d02b      	beq.n	800079e <__aeabi_fadd+0x312>
 8000746:	1d0e      	adds	r6, r1, #4
 8000748:	e6e6      	b.n	8000518 <__aeabi_fadd+0x8c>
 800074a:	2aff      	cmp	r2, #255	@ 0xff
 800074c:	d08d      	beq.n	800066a <__aeabi_fadd+0x1de>
 800074e:	2080      	movs	r0, #128	@ 0x80
 8000750:	04c0      	lsls	r0, r0, #19
 8000752:	4306      	orrs	r6, r0
 8000754:	2b1b      	cmp	r3, #27
 8000756:	dd24      	ble.n	80007a2 <__aeabi_fadd+0x316>
 8000758:	0013      	movs	r3, r2
 800075a:	1d4e      	adds	r6, r1, #5
 800075c:	e6dc      	b.n	8000518 <__aeabi_fadd+0x8c>
 800075e:	464c      	mov	r4, r9
 8000760:	1b8f      	subs	r7, r1, r6
 8000762:	e6f9      	b.n	8000558 <__aeabi_fadd+0xcc>
 8000764:	464c      	mov	r4, r9
 8000766:	000e      	movs	r6, r1
 8000768:	e6d6      	b.n	8000518 <__aeabi_fadd+0x8c>
 800076a:	2e00      	cmp	r6, #0
 800076c:	d149      	bne.n	8000802 <__aeabi_fadd+0x376>
 800076e:	2900      	cmp	r1, #0
 8000770:	d068      	beq.n	8000844 <__aeabi_fadd+0x3b8>
 8000772:	4667      	mov	r7, ip
 8000774:	464c      	mov	r4, r9
 8000776:	e77c      	b.n	8000672 <__aeabi_fadd+0x1e6>
 8000778:	1870      	adds	r0, r6, r1
 800077a:	0143      	lsls	r3, r0, #5
 800077c:	d574      	bpl.n	8000868 <__aeabi_fadd+0x3dc>
 800077e:	4930      	ldr	r1, [pc, #192]	@ (8000840 <__aeabi_fadd+0x3b4>)
 8000780:	0840      	lsrs	r0, r0, #1
 8000782:	4001      	ands	r1, r0
 8000784:	0743      	lsls	r3, r0, #29
 8000786:	d009      	beq.n	800079c <__aeabi_fadd+0x310>
 8000788:	230f      	movs	r3, #15
 800078a:	4003      	ands	r3, r0
 800078c:	2b04      	cmp	r3, #4
 800078e:	d005      	beq.n	800079c <__aeabi_fadd+0x310>
 8000790:	2302      	movs	r3, #2
 8000792:	1d0e      	adds	r6, r1, #4
 8000794:	e6c0      	b.n	8000518 <__aeabi_fadd+0x8c>
 8000796:	2301      	movs	r3, #1
 8000798:	08cf      	lsrs	r7, r1, #3
 800079a:	e6c1      	b.n	8000520 <__aeabi_fadd+0x94>
 800079c:	2302      	movs	r3, #2
 800079e:	08cf      	lsrs	r7, r1, #3
 80007a0:	e6be      	b.n	8000520 <__aeabi_fadd+0x94>
 80007a2:	2520      	movs	r5, #32
 80007a4:	0030      	movs	r0, r6
 80007a6:	40d8      	lsrs	r0, r3
 80007a8:	1aeb      	subs	r3, r5, r3
 80007aa:	409e      	lsls	r6, r3
 80007ac:	0033      	movs	r3, r6
 80007ae:	1e5d      	subs	r5, r3, #1
 80007b0:	41ab      	sbcs	r3, r5
 80007b2:	4303      	orrs	r3, r0
 80007b4:	0015      	movs	r5, r2
 80007b6:	185e      	adds	r6, r3, r1
 80007b8:	e7a0      	b.n	80006fc <__aeabi_fadd+0x270>
 80007ba:	2900      	cmp	r1, #0
 80007bc:	d100      	bne.n	80007c0 <__aeabi_fadd+0x334>
 80007be:	e765      	b.n	800068c <__aeabi_fadd+0x200>
 80007c0:	464c      	mov	r4, r9
 80007c2:	4667      	mov	r7, ip
 80007c4:	e6ac      	b.n	8000520 <__aeabi_fadd+0x94>
 80007c6:	1b8f      	subs	r7, r1, r6
 80007c8:	017b      	lsls	r3, r7, #5
 80007ca:	d52e      	bpl.n	800082a <__aeabi_fadd+0x39e>
 80007cc:	01bf      	lsls	r7, r7, #6
 80007ce:	09bf      	lsrs	r7, r7, #6
 80007d0:	0038      	movs	r0, r7
 80007d2:	f000 fe3f 	bl	8001454 <__clzsi2>
 80007d6:	003b      	movs	r3, r7
 80007d8:	3805      	subs	r0, #5
 80007da:	4083      	lsls	r3, r0
 80007dc:	464c      	mov	r4, r9
 80007de:	3501      	adds	r5, #1
 80007e0:	e710      	b.n	8000604 <__aeabi_fadd+0x178>
 80007e2:	2e00      	cmp	r6, #0
 80007e4:	d100      	bne.n	80007e8 <__aeabi_fadd+0x35c>
 80007e6:	e740      	b.n	800066a <__aeabi_fadd+0x1de>
 80007e8:	2900      	cmp	r1, #0
 80007ea:	d100      	bne.n	80007ee <__aeabi_fadd+0x362>
 80007ec:	e741      	b.n	8000672 <__aeabi_fadd+0x1e6>
 80007ee:	2380      	movs	r3, #128	@ 0x80
 80007f0:	03db      	lsls	r3, r3, #15
 80007f2:	429f      	cmp	r7, r3
 80007f4:	d200      	bcs.n	80007f8 <__aeabi_fadd+0x36c>
 80007f6:	e73c      	b.n	8000672 <__aeabi_fadd+0x1e6>
 80007f8:	459c      	cmp	ip, r3
 80007fa:	d300      	bcc.n	80007fe <__aeabi_fadd+0x372>
 80007fc:	e739      	b.n	8000672 <__aeabi_fadd+0x1e6>
 80007fe:	4667      	mov	r7, ip
 8000800:	e737      	b.n	8000672 <__aeabi_fadd+0x1e6>
 8000802:	2900      	cmp	r1, #0
 8000804:	d100      	bne.n	8000808 <__aeabi_fadd+0x37c>
 8000806:	e734      	b.n	8000672 <__aeabi_fadd+0x1e6>
 8000808:	2380      	movs	r3, #128	@ 0x80
 800080a:	03db      	lsls	r3, r3, #15
 800080c:	429f      	cmp	r7, r3
 800080e:	d200      	bcs.n	8000812 <__aeabi_fadd+0x386>
 8000810:	e72f      	b.n	8000672 <__aeabi_fadd+0x1e6>
 8000812:	459c      	cmp	ip, r3
 8000814:	d300      	bcc.n	8000818 <__aeabi_fadd+0x38c>
 8000816:	e72c      	b.n	8000672 <__aeabi_fadd+0x1e6>
 8000818:	464c      	mov	r4, r9
 800081a:	4667      	mov	r7, ip
 800081c:	e729      	b.n	8000672 <__aeabi_fadd+0x1e6>
 800081e:	2900      	cmp	r1, #0
 8000820:	d100      	bne.n	8000824 <__aeabi_fadd+0x398>
 8000822:	e734      	b.n	800068e <__aeabi_fadd+0x202>
 8000824:	2300      	movs	r3, #0
 8000826:	08cf      	lsrs	r7, r1, #3
 8000828:	e67a      	b.n	8000520 <__aeabi_fadd+0x94>
 800082a:	464c      	mov	r4, r9
 800082c:	2301      	movs	r3, #1
 800082e:	08ff      	lsrs	r7, r7, #3
 8000830:	e676      	b.n	8000520 <__aeabi_fadd+0x94>
 8000832:	2f00      	cmp	r7, #0
 8000834:	d100      	bne.n	8000838 <__aeabi_fadd+0x3ac>
 8000836:	e729      	b.n	800068c <__aeabi_fadd+0x200>
 8000838:	08ff      	lsrs	r7, r7, #3
 800083a:	e671      	b.n	8000520 <__aeabi_fadd+0x94>
 800083c:	fbffffff 	.word	0xfbffffff
 8000840:	7dffffff 	.word	0x7dffffff
 8000844:	2280      	movs	r2, #128	@ 0x80
 8000846:	2400      	movs	r4, #0
 8000848:	20ff      	movs	r0, #255	@ 0xff
 800084a:	03d2      	lsls	r2, r2, #15
 800084c:	e69d      	b.n	800058a <__aeabi_fadd+0xfe>
 800084e:	2300      	movs	r3, #0
 8000850:	e666      	b.n	8000520 <__aeabi_fadd+0x94>
 8000852:	2300      	movs	r3, #0
 8000854:	08d7      	lsrs	r7, r2, #3
 8000856:	e663      	b.n	8000520 <__aeabi_fadd+0x94>
 8000858:	2001      	movs	r0, #1
 800085a:	0172      	lsls	r2, r6, #5
 800085c:	d500      	bpl.n	8000860 <__aeabi_fadd+0x3d4>
 800085e:	e6e7      	b.n	8000630 <__aeabi_fadd+0x1a4>
 8000860:	0031      	movs	r1, r6
 8000862:	2300      	movs	r3, #0
 8000864:	08cf      	lsrs	r7, r1, #3
 8000866:	e65b      	b.n	8000520 <__aeabi_fadd+0x94>
 8000868:	2301      	movs	r3, #1
 800086a:	08c7      	lsrs	r7, r0, #3
 800086c:	e658      	b.n	8000520 <__aeabi_fadd+0x94>
 800086e:	46c0      	nop			@ (mov r8, r8)

08000870 <__aeabi_fdiv>:
 8000870:	b5f0      	push	{r4, r5, r6, r7, lr}
 8000872:	4646      	mov	r6, r8
 8000874:	464f      	mov	r7, r9
 8000876:	46d6      	mov	lr, sl
 8000878:	0245      	lsls	r5, r0, #9
 800087a:	b5c0      	push	{r6, r7, lr}
 800087c:	0fc3      	lsrs	r3, r0, #31
 800087e:	0047      	lsls	r7, r0, #1
 8000880:	4698      	mov	r8, r3
 8000882:	1c0e      	adds	r6, r1, #0
 8000884:	0a6d      	lsrs	r5, r5, #9
 8000886:	0e3f      	lsrs	r7, r7, #24
 8000888:	d05b      	beq.n	8000942 <__aeabi_fdiv+0xd2>
 800088a:	2fff      	cmp	r7, #255	@ 0xff
 800088c:	d021      	beq.n	80008d2 <__aeabi_fdiv+0x62>
 800088e:	2380      	movs	r3, #128	@ 0x80
 8000890:	00ed      	lsls	r5, r5, #3
 8000892:	04db      	lsls	r3, r3, #19
 8000894:	431d      	orrs	r5, r3
 8000896:	2300      	movs	r3, #0
 8000898:	4699      	mov	r9, r3
 800089a:	469a      	mov	sl, r3
 800089c:	3f7f      	subs	r7, #127	@ 0x7f
 800089e:	0274      	lsls	r4, r6, #9
 80008a0:	0073      	lsls	r3, r6, #1
 80008a2:	0a64      	lsrs	r4, r4, #9
 80008a4:	0e1b      	lsrs	r3, r3, #24
 80008a6:	0ff6      	lsrs	r6, r6, #31
 80008a8:	2b00      	cmp	r3, #0
 80008aa:	d020      	beq.n	80008ee <__aeabi_fdiv+0x7e>
 80008ac:	2bff      	cmp	r3, #255	@ 0xff
 80008ae:	d043      	beq.n	8000938 <__aeabi_fdiv+0xc8>
 80008b0:	2280      	movs	r2, #128	@ 0x80
 80008b2:	2000      	movs	r0, #0
 80008b4:	00e4      	lsls	r4, r4, #3
 80008b6:	04d2      	lsls	r2, r2, #19
 80008b8:	4314      	orrs	r4, r2
 80008ba:	3b7f      	subs	r3, #127	@ 0x7f
 80008bc:	4642      	mov	r2, r8
 80008be:	1aff      	subs	r7, r7, r3
 80008c0:	464b      	mov	r3, r9
 80008c2:	4072      	eors	r2, r6
 80008c4:	2b0f      	cmp	r3, #15
 80008c6:	d900      	bls.n	80008ca <__aeabi_fdiv+0x5a>
 80008c8:	e09d      	b.n	8000a06 <__aeabi_fdiv+0x196>
 80008ca:	4971      	ldr	r1, [pc, #452]	@ (8000a90 <__aeabi_fdiv+0x220>)
 80008cc:	009b      	lsls	r3, r3, #2
 80008ce:	58cb      	ldr	r3, [r1, r3]
 80008d0:	469f      	mov	pc, r3
 80008d2:	2d00      	cmp	r5, #0
 80008d4:	d15a      	bne.n	800098c <__aeabi_fdiv+0x11c>
 80008d6:	2308      	movs	r3, #8
 80008d8:	4699      	mov	r9, r3
 80008da:	3b06      	subs	r3, #6
 80008dc:	0274      	lsls	r4, r6, #9
 80008de:	469a      	mov	sl, r3
 80008e0:	0073      	lsls	r3, r6, #1
 80008e2:	27ff      	movs	r7, #255	@ 0xff
 80008e4:	0a64      	lsrs	r4, r4, #9
 80008e6:	0e1b      	lsrs	r3, r3, #24
 80008e8:	0ff6      	lsrs	r6, r6, #31
 80008ea:	2b00      	cmp	r3, #0
 80008ec:	d1de      	bne.n	80008ac <__aeabi_fdiv+0x3c>
 80008ee:	2c00      	cmp	r4, #0
 80008f0:	d13b      	bne.n	800096a <__aeabi_fdiv+0xfa>
 80008f2:	2301      	movs	r3, #1
 80008f4:	4642      	mov	r2, r8
 80008f6:	4649      	mov	r1, r9
 80008f8:	4072      	eors	r2, r6
 80008fa:	4319      	orrs	r1, r3
 80008fc:	290e      	cmp	r1, #14
 80008fe:	d818      	bhi.n	8000932 <__aeabi_fdiv+0xc2>
 8000900:	4864      	ldr	r0, [pc, #400]	@ (8000a94 <__aeabi_fdiv+0x224>)
 8000902:	0089      	lsls	r1, r1, #2
 8000904:	5841      	ldr	r1, [r0, r1]
 8000906:	468f      	mov	pc, r1
 8000908:	4653      	mov	r3, sl
 800090a:	2b02      	cmp	r3, #2
 800090c:	d100      	bne.n	8000910 <__aeabi_fdiv+0xa0>
 800090e:	e0b8      	b.n	8000a82 <__aeabi_fdiv+0x212>
 8000910:	2b03      	cmp	r3, #3
 8000912:	d06e      	beq.n	80009f2 <__aeabi_fdiv+0x182>
 8000914:	4642      	mov	r2, r8
 8000916:	002c      	movs	r4, r5
 8000918:	2b01      	cmp	r3, #1
 800091a:	d140      	bne.n	800099e <__aeabi_fdiv+0x12e>
 800091c:	2000      	movs	r0, #0
 800091e:	2400      	movs	r4, #0
 8000920:	05c0      	lsls	r0, r0, #23
 8000922:	4320      	orrs	r0, r4
 8000924:	07d2      	lsls	r2, r2, #31
 8000926:	4310      	orrs	r0, r2
 8000928:	bce0      	pop	{r5, r6, r7}
 800092a:	46ba      	mov	sl, r7
 800092c:	46b1      	mov	r9, r6
 800092e:	46a8      	mov	r8, r5
 8000930:	bdf0      	pop	{r4, r5, r6, r7, pc}
 8000932:	20ff      	movs	r0, #255	@ 0xff
 8000934:	2400      	movs	r4, #0
 8000936:	e7f3      	b.n	8000920 <__aeabi_fdiv+0xb0>
 8000938:	2c00      	cmp	r4, #0
 800093a:	d120      	bne.n	800097e <__aeabi_fdiv+0x10e>
 800093c:	2302      	movs	r3, #2
 800093e:	3fff      	subs	r7, #255	@ 0xff
 8000940:	e7d8      	b.n	80008f4 <__aeabi_fdiv+0x84>
 8000942:	2d00      	cmp	r5, #0
 8000944:	d105      	bne.n	8000952 <__aeabi_fdiv+0xe2>
 8000946:	2304      	movs	r3, #4
 8000948:	4699      	mov	r9, r3
 800094a:	3b03      	subs	r3, #3
 800094c:	2700      	movs	r7, #0
 800094e:	469a      	mov	sl, r3
 8000950:	e7a5      	b.n	800089e <__aeabi_fdiv+0x2e>
 8000952:	0028      	movs	r0, r5
 8000954:	f000 fd7e 	bl	8001454 <__clzsi2>
 8000958:	2776      	movs	r7, #118	@ 0x76
 800095a:	1f43      	subs	r3, r0, #5
 800095c:	409d      	lsls	r5, r3
 800095e:	2300      	movs	r3, #0
 8000960:	427f      	negs	r7, r7
 8000962:	4699      	mov	r9, r3
 8000964:	469a      	mov	sl, r3
 8000966:	1a3f      	subs	r7, r7, r0
 8000968:	e799      	b.n	800089e <__aeabi_fdiv+0x2e>
 800096a:	0020      	movs	r0, r4
 800096c:	f000 fd72 	bl	8001454 <__clzsi2>
 8000970:	1f43      	subs	r3, r0, #5
 8000972:	409c      	lsls	r4, r3
 8000974:	2376      	movs	r3, #118	@ 0x76
 8000976:	425b      	negs	r3, r3
 8000978:	1a1b      	subs	r3, r3, r0
 800097a:	2000      	movs	r0, #0
 800097c:	e79e      	b.n	80008bc <__aeabi_fdiv+0x4c>
 800097e:	2303      	movs	r3, #3
 8000980:	464a      	mov	r2, r9
 8000982:	431a      	orrs	r2, r3
 8000984:	4691      	mov	r9, r2
 8000986:	2003      	movs	r0, #3
 8000988:	33fc      	adds	r3, #252	@ 0xfc
 800098a:	e797      	b.n	80008bc <__aeabi_fdiv+0x4c>
 800098c:	230c      	movs	r3, #12
 800098e:	4699      	mov	r9, r3
 8000990:	3b09      	subs	r3, #9
 8000992:	27ff      	movs	r7, #255	@ 0xff
 8000994:	469a      	mov	sl, r3
 8000996:	e782      	b.n	800089e <__aeabi_fdiv+0x2e>
 8000998:	2803      	cmp	r0, #3
 800099a:	d02c      	beq.n	80009f6 <__aeabi_fdiv+0x186>
 800099c:	0032      	movs	r2, r6
 800099e:	0038      	movs	r0, r7
 80009a0:	307f      	adds	r0, #127	@ 0x7f
 80009a2:	2800      	cmp	r0, #0
 80009a4:	dd47      	ble.n	8000a36 <__aeabi_fdiv+0x1c6>
 80009a6:	0763      	lsls	r3, r4, #29
 80009a8:	d004      	beq.n	80009b4 <__aeabi_fdiv+0x144>
 80009aa:	230f      	movs	r3, #15
 80009ac:	4023      	ands	r3, r4
 80009ae:	2b04      	cmp	r3, #4
 80009b0:	d000      	beq.n	80009b4 <__aeabi_fdiv+0x144>
 80009b2:	3404      	adds	r4, #4
 80009b4:	0123      	lsls	r3, r4, #4
 80009b6:	d503      	bpl.n	80009c0 <__aeabi_fdiv+0x150>
 80009b8:	0038      	movs	r0, r7
 80009ba:	4b37      	ldr	r3, [pc, #220]	@ (8000a98 <__aeabi_fdiv+0x228>)
 80009bc:	3080      	adds	r0, #128	@ 0x80
 80009be:	401c      	ands	r4, r3
 80009c0:	28fe      	cmp	r0, #254	@ 0xfe
 80009c2:	dcb6      	bgt.n	8000932 <__aeabi_fdiv+0xc2>
 80009c4:	01a4      	lsls	r4, r4, #6
 80009c6:	0a64      	lsrs	r4, r4, #9
 80009c8:	b2c0      	uxtb	r0, r0
 80009ca:	e7a9      	b.n	8000920 <__aeabi_fdiv+0xb0>
 80009cc:	2480      	movs	r4, #128	@ 0x80
 80009ce:	2200      	movs	r2, #0
 80009d0:	20ff      	movs	r0, #255	@ 0xff
 80009d2:	03e4      	lsls	r4, r4, #15
 80009d4:	e7a4      	b.n	8000920 <__aeabi_fdiv+0xb0>
 80009d6:	2380      	movs	r3, #128	@ 0x80
 80009d8:	03db      	lsls	r3, r3, #15
 80009da:	421d      	tst	r5, r3
 80009dc:	d001      	beq.n	80009e2 <__aeabi_fdiv+0x172>
 80009de:	421c      	tst	r4, r3
 80009e0:	d00b      	beq.n	80009fa <__aeabi_fdiv+0x18a>
 80009e2:	2480      	movs	r4, #128	@ 0x80
 80009e4:	03e4      	lsls	r4, r4, #15
 80009e6:	432c      	orrs	r4, r5
 80009e8:	0264      	lsls	r4, r4, #9
 80009ea:	4642      	mov	r2, r8
 80009ec:	20ff      	movs	r0, #255	@ 0xff
 80009ee:	0a64      	lsrs	r4, r4, #9
 80009f0:	e796      	b.n	8000920 <__aeabi_fdiv+0xb0>
 80009f2:	4646      	mov	r6, r8
 80009f4:	002c      	movs	r4, r5
 80009f6:	2380      	movs	r3, #128	@ 0x80
 80009f8:	03db      	lsls	r3, r3, #15
 80009fa:	431c      	orrs	r4, r3
 80009fc:	0264      	lsls	r4, r4, #9
 80009fe:	0032      	movs	r2, r6
 8000a00:	20ff      	movs	r0, #255	@ 0xff
 8000a02:	0a64      	lsrs	r4, r4, #9
 8000a04:	e78c      	b.n	8000920 <__aeabi_fdiv+0xb0>
 8000a06:	016d      	lsls	r5, r5, #5
 8000a08:	0160      	lsls	r0, r4, #5
 8000a0a:	4285      	cmp	r5, r0
 8000a0c:	d22d      	bcs.n	8000a6a <__aeabi_fdiv+0x1fa>
 8000a0e:	231b      	movs	r3, #27
 8000a10:	2400      	movs	r4, #0
 8000a12:	3f01      	subs	r7, #1
 8000a14:	2601      	movs	r6, #1
 8000a16:	0029      	movs	r1, r5
 8000a18:	0064      	lsls	r4, r4, #1
 8000a1a:	006d      	lsls	r5, r5, #1
 8000a1c:	2900      	cmp	r1, #0
 8000a1e:	db01      	blt.n	8000a24 <__aeabi_fdiv+0x1b4>
 8000a20:	4285      	cmp	r5, r0
 8000a22:	d301      	bcc.n	8000a28 <__aeabi_fdiv+0x1b8>
 8000a24:	1a2d      	subs	r5, r5, r0
 8000a26:	4334      	orrs	r4, r6
 8000a28:	3b01      	subs	r3, #1
 8000a2a:	2b00      	cmp	r3, #0
 8000a2c:	d1f3      	bne.n	8000a16 <__aeabi_fdiv+0x1a6>
 8000a2e:	1e6b      	subs	r3, r5, #1
 8000a30:	419d      	sbcs	r5, r3
 8000a32:	432c      	orrs	r4, r5
 8000a34:	e7b3      	b.n	800099e <__aeabi_fdiv+0x12e>
 8000a36:	2301      	movs	r3, #1
 8000a38:	1a1b      	subs	r3, r3, r0
 8000a3a:	2b1b      	cmp	r3, #27
 8000a3c:	dd00      	ble.n	8000a40 <__aeabi_fdiv+0x1d0>
 8000a3e:	e76d      	b.n	800091c <__aeabi_fdiv+0xac>
 8000a40:	0021      	movs	r1, r4
 8000a42:	379e      	adds	r7, #158	@ 0x9e
 8000a44:	40d9      	lsrs	r1, r3
 8000a46:	40bc      	lsls	r4, r7
 8000a48:	000b      	movs	r3, r1
 8000a4a:	1e61      	subs	r1, r4, #1
 8000a4c:	418c      	sbcs	r4, r1
 8000a4e:	4323      	orrs	r3, r4
 8000a50:	0759      	lsls	r1, r3, #29
 8000a52:	d004      	beq.n	8000a5e <__aeabi_fdiv+0x1ee>
 8000a54:	210f      	movs	r1, #15
 8000a56:	4019      	ands	r1, r3
 8000a58:	2904      	cmp	r1, #4
 8000a5a:	d000      	beq.n	8000a5e <__aeabi_fdiv+0x1ee>
 8000a5c:	3304      	adds	r3, #4
 8000a5e:	0159      	lsls	r1, r3, #5
 8000a60:	d413      	bmi.n	8000a8a <__aeabi_fdiv+0x21a>
 8000a62:	019b      	lsls	r3, r3, #6
 8000a64:	2000      	movs	r0, #0
 8000a66:	0a5c      	lsrs	r4, r3, #9
 8000a68:	e75a      	b.n	8000920 <__aeabi_fdiv+0xb0>
 8000a6a:	231a      	movs	r3, #26
 8000a6c:	2401      	movs	r4, #1
 8000a6e:	1a2d      	subs	r5, r5, r0
 8000a70:	e7d0      	b.n	8000a14 <__aeabi_fdiv+0x1a4>
 8000a72:	1e98      	subs	r0, r3, #2
 8000a74:	4243      	negs	r3, r0
 8000a76:	4158      	adcs	r0, r3
 8000a78:	4240      	negs	r0, r0
 8000a7a:	0032      	movs	r2, r6
 8000a7c:	2400      	movs	r4, #0
 8000a7e:	b2c0      	uxtb	r0, r0
 8000a80:	e74e      	b.n	8000920 <__aeabi_fdiv+0xb0>
 8000a82:	4642      	mov	r2, r8
 8000a84:	20ff      	movs	r0, #255	@ 0xff
 8000a86:	2400      	movs	r4, #0
 8000a88:	e74a      	b.n	8000920 <__aeabi_fdiv+0xb0>
 8000a8a:	2001      	movs	r0, #1
 8000a8c:	2400      	movs	r4, #0
 8000a8e:	e747      	b.n	8000920 <__aeabi_fdiv+0xb0>
 8000a90:	080059ac 	.word	0x080059ac
 8000a94:	080059ec 	.word	0x080059ec
 8000a98:	f7ffffff 	.word	0xf7ffffff

08000a9c <__eqsf2>:
 8000a9c:	b570      	push	{r4, r5, r6, lr}
 8000a9e:	0042      	lsls	r2, r0, #1
 8000aa0:	024e      	lsls	r6, r1, #9
 8000aa2:	004c      	lsls	r4, r1, #1
 8000aa4:	0245      	lsls	r5, r0, #9
 8000aa6:	0a6d      	lsrs	r5, r5, #9
 8000aa8:	0e12      	lsrs	r2, r2, #24
 8000aaa:	0fc3      	lsrs	r3, r0, #31
 8000aac:	0a76      	lsrs	r6, r6, #9
 8000aae:	0e24      	lsrs	r4, r4, #24
 8000ab0:	0fc9      	lsrs	r1, r1, #31
 8000ab2:	2aff      	cmp	r2, #255	@ 0xff
 8000ab4:	d010      	beq.n	8000ad8 <__eqsf2+0x3c>
 8000ab6:	2cff      	cmp	r4, #255	@ 0xff
 8000ab8:	d00c      	beq.n	8000ad4 <__eqsf2+0x38>
 8000aba:	2001      	movs	r0, #1
 8000abc:	42a2      	cmp	r2, r4
 8000abe:	d10a      	bne.n	8000ad6 <__eqsf2+0x3a>
 8000ac0:	42b5      	cmp	r5, r6
 8000ac2:	d108      	bne.n	8000ad6 <__eqsf2+0x3a>
 8000ac4:	428b      	cmp	r3, r1
 8000ac6:	d00f      	beq.n	8000ae8 <__eqsf2+0x4c>
 8000ac8:	2a00      	cmp	r2, #0
 8000aca:	d104      	bne.n	8000ad6 <__eqsf2+0x3a>
 8000acc:	0028      	movs	r0, r5
 8000ace:	1e43      	subs	r3, r0, #1
 8000ad0:	4198      	sbcs	r0, r3
 8000ad2:	e000      	b.n	8000ad6 <__eqsf2+0x3a>
 8000ad4:	2001      	movs	r0, #1
 8000ad6:	bd70      	pop	{r4, r5, r6, pc}
 8000ad8:	2001      	movs	r0, #1
 8000ada:	2cff      	cmp	r4, #255	@ 0xff
 8000adc:	d1fb      	bne.n	8000ad6 <__eqsf2+0x3a>
 8000ade:	4335      	orrs	r5, r6
 8000ae0:	d1f9      	bne.n	8000ad6 <__eqsf2+0x3a>
 8000ae2:	404b      	eors	r3, r1
 8000ae4:	0018      	movs	r0, r3
 8000ae6:	e7f6      	b.n	8000ad6 <__eqsf2+0x3a>
 8000ae8:	2000      	movs	r0, #0
 8000aea:	e7f4      	b.n	8000ad6 <__eqsf2+0x3a>

08000aec <__gesf2>:
 8000aec:	b530      	push	{r4, r5, lr}
 8000aee:	0042      	lsls	r2, r0, #1
 8000af0:	0244      	lsls	r4, r0, #9
 8000af2:	024d      	lsls	r5, r1, #9
 8000af4:	0fc3      	lsrs	r3, r0, #31
 8000af6:	0048      	lsls	r0, r1, #1
 8000af8:	0a64      	lsrs	r4, r4, #9
 8000afa:	0e12      	lsrs	r2, r2, #24
 8000afc:	0a6d      	lsrs	r5, r5, #9
 8000afe:	0e00      	lsrs	r0, r0, #24
 8000b00:	0fc9      	lsrs	r1, r1, #31
 8000b02:	2aff      	cmp	r2, #255	@ 0xff
 8000b04:	d018      	beq.n	8000b38 <__gesf2+0x4c>
 8000b06:	28ff      	cmp	r0, #255	@ 0xff
 8000b08:	d00a      	beq.n	8000b20 <__gesf2+0x34>
 8000b0a:	2a00      	cmp	r2, #0
 8000b0c:	d11e      	bne.n	8000b4c <__gesf2+0x60>
 8000b0e:	2800      	cmp	r0, #0
 8000b10:	d10a      	bne.n	8000b28 <__gesf2+0x3c>
 8000b12:	2d00      	cmp	r5, #0
 8000b14:	d029      	beq.n	8000b6a <__gesf2+0x7e>
 8000b16:	2c00      	cmp	r4, #0
 8000b18:	d12d      	bne.n	8000b76 <__gesf2+0x8a>
 8000b1a:	0048      	lsls	r0, r1, #1
 8000b1c:	3801      	subs	r0, #1
 8000b1e:	bd30      	pop	{r4, r5, pc}
 8000b20:	2d00      	cmp	r5, #0
 8000b22:	d125      	bne.n	8000b70 <__gesf2+0x84>
 8000b24:	2a00      	cmp	r2, #0
 8000b26:	d101      	bne.n	8000b2c <__gesf2+0x40>
 8000b28:	2c00      	cmp	r4, #0
 8000b2a:	d0f6      	beq.n	8000b1a <__gesf2+0x2e>
 8000b2c:	428b      	cmp	r3, r1
 8000b2e:	d019      	beq.n	8000b64 <__gesf2+0x78>
 8000b30:	2001      	movs	r0, #1
 8000b32:	425b      	negs	r3, r3
 8000b34:	4318      	orrs	r0, r3
 8000b36:	e7f2      	b.n	8000b1e <__gesf2+0x32>
 8000b38:	2c00      	cmp	r4, #0
 8000b3a:	d119      	bne.n	8000b70 <__gesf2+0x84>
 8000b3c:	28ff      	cmp	r0, #255	@ 0xff
 8000b3e:	d1f7      	bne.n	8000b30 <__gesf2+0x44>
 8000b40:	2d00      	cmp	r5, #0
 8000b42:	d115      	bne.n	8000b70 <__gesf2+0x84>
 8000b44:	2000      	movs	r0, #0
 8000b46:	428b      	cmp	r3, r1
 8000b48:	d1f2      	bne.n	8000b30 <__gesf2+0x44>
 8000b4a:	e7e8      	b.n	8000b1e <__gesf2+0x32>
 8000b4c:	2800      	cmp	r0, #0
 8000b4e:	d0ef      	beq.n	8000b30 <__gesf2+0x44>
 8000b50:	428b      	cmp	r3, r1
 8000b52:	d1ed      	bne.n	8000b30 <__gesf2+0x44>
 8000b54:	4282      	cmp	r2, r0
 8000b56:	dceb      	bgt.n	8000b30 <__gesf2+0x44>
 8000b58:	db04      	blt.n	8000b64 <__gesf2+0x78>
 8000b5a:	42ac      	cmp	r4, r5
 8000b5c:	d8e8      	bhi.n	8000b30 <__gesf2+0x44>
 8000b5e:	2000      	movs	r0, #0
 8000b60:	42ac      	cmp	r4, r5
 8000b62:	d2dc      	bcs.n	8000b1e <__gesf2+0x32>
 8000b64:	0058      	lsls	r0, r3, #1
 8000b66:	3801      	subs	r0, #1
 8000b68:	e7d9      	b.n	8000b1e <__gesf2+0x32>
 8000b6a:	2c00      	cmp	r4, #0
 8000b6c:	d0d7      	beq.n	8000b1e <__gesf2+0x32>
 8000b6e:	e7df      	b.n	8000b30 <__gesf2+0x44>
 8000b70:	2002      	movs	r0, #2
 8000b72:	4240      	negs	r0, r0
 8000b74:	e7d3      	b.n	8000b1e <__gesf2+0x32>
 8000b76:	428b      	cmp	r3, r1
 8000b78:	d1da      	bne.n	8000b30 <__gesf2+0x44>
 8000b7a:	e7ee      	b.n	8000b5a <__gesf2+0x6e>

08000b7c <__lesf2>:
 8000b7c:	b530      	push	{r4, r5, lr}
 8000b7e:	0042      	lsls	r2, r0, #1
 8000b80:	0244      	lsls	r4, r0, #9
 8000b82:	024d      	lsls	r5, r1, #9
 8000b84:	0fc3      	lsrs	r3, r0, #31
 8000b86:	0048      	lsls	r0, r1, #1
 8000b88:	0a64      	lsrs	r4, r4, #9
 8000b8a:	0e12      	lsrs	r2, r2, #24
 8000b8c:	0a6d      	lsrs	r5, r5, #9
 8000b8e:	0e00      	lsrs	r0, r0, #24
 8000b90:	0fc9      	lsrs	r1, r1, #31
 8000b92:	2aff      	cmp	r2, #255	@ 0xff
 8000b94:	d017      	beq.n	8000bc6 <__lesf2+0x4a>
 8000b96:	28ff      	cmp	r0, #255	@ 0xff
 8000b98:	d00a      	beq.n	8000bb0 <__lesf2+0x34>
 8000b9a:	2a00      	cmp	r2, #0
 8000b9c:	d11b      	bne.n	8000bd6 <__lesf2+0x5a>
 8000b9e:	2800      	cmp	r0, #0
 8000ba0:	d10a      	bne.n	8000bb8 <__lesf2+0x3c>
 8000ba2:	2d00      	cmp	r5, #0
 8000ba4:	d01d      	beq.n	8000be2 <__lesf2+0x66>
 8000ba6:	2c00      	cmp	r4, #0
 8000ba8:	d12d      	bne.n	8000c06 <__lesf2+0x8a>
 8000baa:	0048      	lsls	r0, r1, #1
 8000bac:	3801      	subs	r0, #1
 8000bae:	e011      	b.n	8000bd4 <__lesf2+0x58>
 8000bb0:	2d00      	cmp	r5, #0
 8000bb2:	d10e      	bne.n	8000bd2 <__lesf2+0x56>
 8000bb4:	2a00      	cmp	r2, #0
 8000bb6:	d101      	bne.n	8000bbc <__lesf2+0x40>
 8000bb8:	2c00      	cmp	r4, #0
 8000bba:	d0f6      	beq.n	8000baa <__lesf2+0x2e>
 8000bbc:	428b      	cmp	r3, r1
 8000bbe:	d10c      	bne.n	8000bda <__lesf2+0x5e>
 8000bc0:	0058      	lsls	r0, r3, #1
 8000bc2:	3801      	subs	r0, #1
 8000bc4:	e006      	b.n	8000bd4 <__lesf2+0x58>
 8000bc6:	2c00      	cmp	r4, #0
 8000bc8:	d103      	bne.n	8000bd2 <__lesf2+0x56>
 8000bca:	28ff      	cmp	r0, #255	@ 0xff
 8000bcc:	d105      	bne.n	8000bda <__lesf2+0x5e>
 8000bce:	2d00      	cmp	r5, #0
 8000bd0:	d015      	beq.n	8000bfe <__lesf2+0x82>
 8000bd2:	2002      	movs	r0, #2
 8000bd4:	bd30      	pop	{r4, r5, pc}
 8000bd6:	2800      	cmp	r0, #0
 8000bd8:	d106      	bne.n	8000be8 <__lesf2+0x6c>
 8000bda:	2001      	movs	r0, #1
 8000bdc:	425b      	negs	r3, r3
 8000bde:	4318      	orrs	r0, r3
 8000be0:	e7f8      	b.n	8000bd4 <__lesf2+0x58>
 8000be2:	2c00      	cmp	r4, #0
 8000be4:	d0f6      	beq.n	8000bd4 <__lesf2+0x58>
 8000be6:	e7f8      	b.n	8000bda <__lesf2+0x5e>
 8000be8:	428b      	cmp	r3, r1
 8000bea:	d1f6      	bne.n	8000bda <__lesf2+0x5e>
 8000bec:	4282      	cmp	r2, r0
 8000bee:	dcf4      	bgt.n	8000bda <__lesf2+0x5e>
 8000bf0:	dbe6      	blt.n	8000bc0 <__lesf2+0x44>
 8000bf2:	42ac      	cmp	r4, r5
 8000bf4:	d8f1      	bhi.n	8000bda <__lesf2+0x5e>
 8000bf6:	2000      	movs	r0, #0
 8000bf8:	42ac      	cmp	r4, r5
 8000bfa:	d2eb      	bcs.n	8000bd4 <__lesf2+0x58>
 8000bfc:	e7e0      	b.n	8000bc0 <__lesf2+0x44>
 8000bfe:	2000      	movs	r0, #0
 8000c00:	428b      	cmp	r3, r1
 8000c02:	d1ea      	bne.n	8000bda <__lesf2+0x5e>
 8000c04:	e7e6      	b.n	8000bd4 <__lesf2+0x58>
 8000c06:	428b      	cmp	r3, r1
 8000c08:	d1e7      	bne.n	8000bda <__lesf2+0x5e>
 8000c0a:	e7f2      	b.n	8000bf2 <__lesf2+0x76>

08000c0c <__aeabi_fmul>:
 8000c0c:	b5f0      	push	{r4, r5, r6, r7, lr}
 8000c0e:	464f      	mov	r7, r9
 8000c10:	4646      	mov	r6, r8
 8000c12:	46d6      	mov	lr, sl
 8000c14:	0044      	lsls	r4, r0, #1
 8000c16:	b5c0      	push	{r6, r7, lr}
 8000c18:	0246      	lsls	r6, r0, #9
 8000c1a:	1c0f      	adds	r7, r1, #0
 8000c1c:	0a76      	lsrs	r6, r6, #9
 8000c1e:	0e24      	lsrs	r4, r4, #24
 8000c20:	0fc5      	lsrs	r5, r0, #31
 8000c22:	2c00      	cmp	r4, #0
 8000c24:	d100      	bne.n	8000c28 <__aeabi_fmul+0x1c>
 8000c26:	e0da      	b.n	8000dde <__aeabi_fmul+0x1d2>
 8000c28:	2cff      	cmp	r4, #255	@ 0xff
 8000c2a:	d074      	beq.n	8000d16 <__aeabi_fmul+0x10a>
 8000c2c:	2380      	movs	r3, #128	@ 0x80
 8000c2e:	00f6      	lsls	r6, r6, #3
 8000c30:	04db      	lsls	r3, r3, #19
 8000c32:	431e      	orrs	r6, r3
 8000c34:	2300      	movs	r3, #0
 8000c36:	4699      	mov	r9, r3
 8000c38:	469a      	mov	sl, r3
 8000c3a:	3c7f      	subs	r4, #127	@ 0x7f
 8000c3c:	027b      	lsls	r3, r7, #9
 8000c3e:	0a5b      	lsrs	r3, r3, #9
 8000c40:	4698      	mov	r8, r3
 8000c42:	007b      	lsls	r3, r7, #1
 8000c44:	0e1b      	lsrs	r3, r3, #24
 8000c46:	0fff      	lsrs	r7, r7, #31
 8000c48:	2b00      	cmp	r3, #0
 8000c4a:	d074      	beq.n	8000d36 <__aeabi_fmul+0x12a>
 8000c4c:	2bff      	cmp	r3, #255	@ 0xff
 8000c4e:	d100      	bne.n	8000c52 <__aeabi_fmul+0x46>
 8000c50:	e08e      	b.n	8000d70 <__aeabi_fmul+0x164>
 8000c52:	4642      	mov	r2, r8
 8000c54:	2180      	movs	r1, #128	@ 0x80
 8000c56:	00d2      	lsls	r2, r2, #3
 8000c58:	04c9      	lsls	r1, r1, #19
 8000c5a:	4311      	orrs	r1, r2
 8000c5c:	3b7f      	subs	r3, #127	@ 0x7f
 8000c5e:	002a      	movs	r2, r5
 8000c60:	18e4      	adds	r4, r4, r3
 8000c62:	464b      	mov	r3, r9
 8000c64:	407a      	eors	r2, r7
 8000c66:	4688      	mov	r8, r1
 8000c68:	b2d2      	uxtb	r2, r2
 8000c6a:	2b0a      	cmp	r3, #10
 8000c6c:	dc75      	bgt.n	8000d5a <__aeabi_fmul+0x14e>
 8000c6e:	464b      	mov	r3, r9
 8000c70:	2000      	movs	r0, #0
 8000c72:	2b02      	cmp	r3, #2
 8000c74:	dd0f      	ble.n	8000c96 <__aeabi_fmul+0x8a>
 8000c76:	4649      	mov	r1, r9
 8000c78:	2301      	movs	r3, #1
 8000c7a:	408b      	lsls	r3, r1
 8000c7c:	21a6      	movs	r1, #166	@ 0xa6
 8000c7e:	00c9      	lsls	r1, r1, #3
 8000c80:	420b      	tst	r3, r1
 8000c82:	d169      	bne.n	8000d58 <__aeabi_fmul+0x14c>
 8000c84:	2190      	movs	r1, #144	@ 0x90
 8000c86:	0089      	lsls	r1, r1, #2
 8000c88:	420b      	tst	r3, r1
 8000c8a:	d000      	beq.n	8000c8e <__aeabi_fmul+0x82>
 8000c8c:	e100      	b.n	8000e90 <__aeabi_fmul+0x284>
 8000c8e:	2188      	movs	r1, #136	@ 0x88
 8000c90:	4219      	tst	r1, r3
 8000c92:	d000      	beq.n	8000c96 <__aeabi_fmul+0x8a>
 8000c94:	e0f5      	b.n	8000e82 <__aeabi_fmul+0x276>
 8000c96:	4641      	mov	r1, r8
 8000c98:	0409      	lsls	r1, r1, #16
 8000c9a:	0c09      	lsrs	r1, r1, #16
 8000c9c:	4643      	mov	r3, r8
 8000c9e:	0008      	movs	r0, r1
 8000ca0:	0c35      	lsrs	r5, r6, #16
 8000ca2:	0436      	lsls	r6, r6, #16
 8000ca4:	0c1b      	lsrs	r3, r3, #16
 8000ca6:	0c36      	lsrs	r6, r6, #16
 8000ca8:	4370      	muls	r0, r6
 8000caa:	4369      	muls	r1, r5
 8000cac:	435e      	muls	r6, r3
 8000cae:	435d      	muls	r5, r3
 8000cb0:	1876      	adds	r6, r6, r1
 8000cb2:	0c03      	lsrs	r3, r0, #16
 8000cb4:	199b      	adds	r3, r3, r6
 8000cb6:	4299      	cmp	r1, r3
 8000cb8:	d903      	bls.n	8000cc2 <__aeabi_fmul+0xb6>
 8000cba:	2180      	movs	r1, #128	@ 0x80
 8000cbc:	0249      	lsls	r1, r1, #9
 8000cbe:	468c      	mov	ip, r1
 8000cc0:	4465      	add	r5, ip
 8000cc2:	0400      	lsls	r0, r0, #16
 8000cc4:	0419      	lsls	r1, r3, #16
 8000cc6:	0c00      	lsrs	r0, r0, #16
 8000cc8:	1809      	adds	r1, r1, r0
 8000cca:	018e      	lsls	r6, r1, #6
 8000ccc:	1e70      	subs	r0, r6, #1
 8000cce:	4186      	sbcs	r6, r0
 8000cd0:	0c1b      	lsrs	r3, r3, #16
 8000cd2:	0e89      	lsrs	r1, r1, #26
 8000cd4:	195b      	adds	r3, r3, r5
 8000cd6:	430e      	orrs	r6, r1
 8000cd8:	019b      	lsls	r3, r3, #6
 8000cda:	431e      	orrs	r6, r3
 8000cdc:	011b      	lsls	r3, r3, #4
 8000cde:	d46c      	bmi.n	8000dba <__aeabi_fmul+0x1ae>
 8000ce0:	0023      	movs	r3, r4
 8000ce2:	337f      	adds	r3, #127	@ 0x7f
 8000ce4:	2b00      	cmp	r3, #0
 8000ce6:	dc00      	bgt.n	8000cea <__aeabi_fmul+0xde>
 8000ce8:	e0b1      	b.n	8000e4e <__aeabi_fmul+0x242>
 8000cea:	0015      	movs	r5, r2
 8000cec:	0771      	lsls	r1, r6, #29
 8000cee:	d00b      	beq.n	8000d08 <__aeabi_fmul+0xfc>
 8000cf0:	200f      	movs	r0, #15
 8000cf2:	0021      	movs	r1, r4
 8000cf4:	4030      	ands	r0, r6
 8000cf6:	2804      	cmp	r0, #4
 8000cf8:	d006      	beq.n	8000d08 <__aeabi_fmul+0xfc>
 8000cfa:	3604      	adds	r6, #4
 8000cfc:	0132      	lsls	r2, r6, #4
 8000cfe:	d503      	bpl.n	8000d08 <__aeabi_fmul+0xfc>
 8000d00:	4b6e      	ldr	r3, [pc, #440]	@ (8000ebc <__aeabi_fmul+0x2b0>)
 8000d02:	401e      	ands	r6, r3
 8000d04:	000b      	movs	r3, r1
 8000d06:	3380      	adds	r3, #128	@ 0x80
 8000d08:	2bfe      	cmp	r3, #254	@ 0xfe
 8000d0a:	dd00      	ble.n	8000d0e <__aeabi_fmul+0x102>
 8000d0c:	e0bd      	b.n	8000e8a <__aeabi_fmul+0x27e>
 8000d0e:	01b2      	lsls	r2, r6, #6
 8000d10:	0a52      	lsrs	r2, r2, #9
 8000d12:	b2db      	uxtb	r3, r3
 8000d14:	e048      	b.n	8000da8 <__aeabi_fmul+0x19c>
 8000d16:	2e00      	cmp	r6, #0
 8000d18:	d000      	beq.n	8000d1c <__aeabi_fmul+0x110>
 8000d1a:	e092      	b.n	8000e42 <__aeabi_fmul+0x236>
 8000d1c:	2308      	movs	r3, #8
 8000d1e:	4699      	mov	r9, r3
 8000d20:	3b06      	subs	r3, #6
 8000d22:	469a      	mov	sl, r3
 8000d24:	027b      	lsls	r3, r7, #9
 8000d26:	0a5b      	lsrs	r3, r3, #9
 8000d28:	4698      	mov	r8, r3
 8000d2a:	007b      	lsls	r3, r7, #1
 8000d2c:	24ff      	movs	r4, #255	@ 0xff
 8000d2e:	0e1b      	lsrs	r3, r3, #24
 8000d30:	0fff      	lsrs	r7, r7, #31
 8000d32:	2b00      	cmp	r3, #0
 8000d34:	d18a      	bne.n	8000c4c <__aeabi_fmul+0x40>
 8000d36:	4642      	mov	r2, r8
 8000d38:	2a00      	cmp	r2, #0
 8000d3a:	d164      	bne.n	8000e06 <__aeabi_fmul+0x1fa>
 8000d3c:	4649      	mov	r1, r9
 8000d3e:	3201      	adds	r2, #1
 8000d40:	4311      	orrs	r1, r2
 8000d42:	4689      	mov	r9, r1
 8000d44:	290a      	cmp	r1, #10
 8000d46:	dc08      	bgt.n	8000d5a <__aeabi_fmul+0x14e>
 8000d48:	407d      	eors	r5, r7
 8000d4a:	2001      	movs	r0, #1
 8000d4c:	b2ea      	uxtb	r2, r5
 8000d4e:	2902      	cmp	r1, #2
 8000d50:	dc91      	bgt.n	8000c76 <__aeabi_fmul+0x6a>
 8000d52:	0015      	movs	r5, r2
 8000d54:	2200      	movs	r2, #0
 8000d56:	e027      	b.n	8000da8 <__aeabi_fmul+0x19c>
 8000d58:	0015      	movs	r5, r2
 8000d5a:	4653      	mov	r3, sl
 8000d5c:	2b02      	cmp	r3, #2
 8000d5e:	d100      	bne.n	8000d62 <__aeabi_fmul+0x156>
 8000d60:	e093      	b.n	8000e8a <__aeabi_fmul+0x27e>
 8000d62:	2b03      	cmp	r3, #3
 8000d64:	d01a      	beq.n	8000d9c <__aeabi_fmul+0x190>
 8000d66:	2b01      	cmp	r3, #1
 8000d68:	d12c      	bne.n	8000dc4 <__aeabi_fmul+0x1b8>
 8000d6a:	2300      	movs	r3, #0
 8000d6c:	2200      	movs	r2, #0
 8000d6e:	e01b      	b.n	8000da8 <__aeabi_fmul+0x19c>
 8000d70:	4643      	mov	r3, r8
 8000d72:	34ff      	adds	r4, #255	@ 0xff
 8000d74:	2b00      	cmp	r3, #0
 8000d76:	d055      	beq.n	8000e24 <__aeabi_fmul+0x218>
 8000d78:	2103      	movs	r1, #3
 8000d7a:	464b      	mov	r3, r9
 8000d7c:	430b      	orrs	r3, r1
 8000d7e:	0019      	movs	r1, r3
 8000d80:	2b0a      	cmp	r3, #10
 8000d82:	dc00      	bgt.n	8000d86 <__aeabi_fmul+0x17a>
 8000d84:	e092      	b.n	8000eac <__aeabi_fmul+0x2a0>
 8000d86:	2b0f      	cmp	r3, #15
 8000d88:	d000      	beq.n	8000d8c <__aeabi_fmul+0x180>
 8000d8a:	e08c      	b.n	8000ea6 <__aeabi_fmul+0x29a>
 8000d8c:	2280      	movs	r2, #128	@ 0x80
 8000d8e:	03d2      	lsls	r2, r2, #15
 8000d90:	4216      	tst	r6, r2
 8000d92:	d003      	beq.n	8000d9c <__aeabi_fmul+0x190>
 8000d94:	4643      	mov	r3, r8
 8000d96:	4213      	tst	r3, r2
 8000d98:	d100      	bne.n	8000d9c <__aeabi_fmul+0x190>
 8000d9a:	e07d      	b.n	8000e98 <__aeabi_fmul+0x28c>
 8000d9c:	2280      	movs	r2, #128	@ 0x80
 8000d9e:	03d2      	lsls	r2, r2, #15
 8000da0:	4332      	orrs	r2, r6
 8000da2:	0252      	lsls	r2, r2, #9
 8000da4:	0a52      	lsrs	r2, r2, #9
 8000da6:	23ff      	movs	r3, #255	@ 0xff
 8000da8:	05d8      	lsls	r0, r3, #23
 8000daa:	07ed      	lsls	r5, r5, #31
 8000dac:	4310      	orrs	r0, r2
 8000dae:	4328      	orrs	r0, r5
 8000db0:	bce0      	pop	{r5, r6, r7}
 8000db2:	46ba      	mov	sl, r7
 8000db4:	46b1      	mov	r9, r6
 8000db6:	46a8      	mov	r8, r5
 8000db8:	bdf0      	pop	{r4, r5, r6, r7, pc}
 8000dba:	2301      	movs	r3, #1
 8000dbc:	0015      	movs	r5, r2
 8000dbe:	0871      	lsrs	r1, r6, #1
 8000dc0:	401e      	ands	r6, r3
 8000dc2:	430e      	orrs	r6, r1
 8000dc4:	0023      	movs	r3, r4
 8000dc6:	3380      	adds	r3, #128	@ 0x80
 8000dc8:	1c61      	adds	r1, r4, #1
 8000dca:	2b00      	cmp	r3, #0
 8000dcc:	dd41      	ble.n	8000e52 <__aeabi_fmul+0x246>
 8000dce:	0772      	lsls	r2, r6, #29
 8000dd0:	d094      	beq.n	8000cfc <__aeabi_fmul+0xf0>
 8000dd2:	220f      	movs	r2, #15
 8000dd4:	4032      	ands	r2, r6
 8000dd6:	2a04      	cmp	r2, #4
 8000dd8:	d000      	beq.n	8000ddc <__aeabi_fmul+0x1d0>
 8000dda:	e78e      	b.n	8000cfa <__aeabi_fmul+0xee>
 8000ddc:	e78e      	b.n	8000cfc <__aeabi_fmul+0xf0>
 8000dde:	2e00      	cmp	r6, #0
 8000de0:	d105      	bne.n	8000dee <__aeabi_fmul+0x1e2>
 8000de2:	2304      	movs	r3, #4
 8000de4:	4699      	mov	r9, r3
 8000de6:	3b03      	subs	r3, #3
 8000de8:	2400      	movs	r4, #0
 8000dea:	469a      	mov	sl, r3
 8000dec:	e726      	b.n	8000c3c <__aeabi_fmul+0x30>
 8000dee:	0030      	movs	r0, r6
 8000df0:	f000 fb30 	bl	8001454 <__clzsi2>
 8000df4:	2476      	movs	r4, #118	@ 0x76
 8000df6:	1f43      	subs	r3, r0, #5
 8000df8:	409e      	lsls	r6, r3
 8000dfa:	2300      	movs	r3, #0
 8000dfc:	4264      	negs	r4, r4
 8000dfe:	4699      	mov	r9, r3
 8000e00:	469a      	mov	sl, r3
 8000e02:	1a24      	subs	r4, r4, r0
 8000e04:	e71a      	b.n	8000c3c <__aeabi_fmul+0x30>
 8000e06:	4640      	mov	r0, r8
 8000e08:	f000 fb24 	bl	8001454 <__clzsi2>
 8000e0c:	464b      	mov	r3, r9
 8000e0e:	1a24      	subs	r4, r4, r0
 8000e10:	3c76      	subs	r4, #118	@ 0x76
 8000e12:	2b0a      	cmp	r3, #10
 8000e14:	dca1      	bgt.n	8000d5a <__aeabi_fmul+0x14e>
 8000e16:	4643      	mov	r3, r8
 8000e18:	3805      	subs	r0, #5
 8000e1a:	4083      	lsls	r3, r0
 8000e1c:	407d      	eors	r5, r7
 8000e1e:	4698      	mov	r8, r3
 8000e20:	b2ea      	uxtb	r2, r5
 8000e22:	e724      	b.n	8000c6e <__aeabi_fmul+0x62>
 8000e24:	464a      	mov	r2, r9
 8000e26:	3302      	adds	r3, #2
 8000e28:	4313      	orrs	r3, r2
 8000e2a:	002a      	movs	r2, r5
 8000e2c:	407a      	eors	r2, r7
 8000e2e:	b2d2      	uxtb	r2, r2
 8000e30:	2b0a      	cmp	r3, #10
 8000e32:	dc92      	bgt.n	8000d5a <__aeabi_fmul+0x14e>
 8000e34:	4649      	mov	r1, r9
 8000e36:	0015      	movs	r5, r2
 8000e38:	2900      	cmp	r1, #0
 8000e3a:	d026      	beq.n	8000e8a <__aeabi_fmul+0x27e>
 8000e3c:	4699      	mov	r9, r3
 8000e3e:	2002      	movs	r0, #2
 8000e40:	e719      	b.n	8000c76 <__aeabi_fmul+0x6a>
 8000e42:	230c      	movs	r3, #12
 8000e44:	4699      	mov	r9, r3
 8000e46:	3b09      	subs	r3, #9
 8000e48:	24ff      	movs	r4, #255	@ 0xff
 8000e4a:	469a      	mov	sl, r3
 8000e4c:	e6f6      	b.n	8000c3c <__aeabi_fmul+0x30>
 8000e4e:	0015      	movs	r5, r2
 8000e50:	0021      	movs	r1, r4
 8000e52:	2201      	movs	r2, #1
 8000e54:	1ad3      	subs	r3, r2, r3
 8000e56:	2b1b      	cmp	r3, #27
 8000e58:	dd00      	ble.n	8000e5c <__aeabi_fmul+0x250>
 8000e5a:	e786      	b.n	8000d6a <__aeabi_fmul+0x15e>
 8000e5c:	319e      	adds	r1, #158	@ 0x9e
 8000e5e:	0032      	movs	r2, r6
 8000e60:	408e      	lsls	r6, r1
 8000e62:	40da      	lsrs	r2, r3
 8000e64:	1e73      	subs	r3, r6, #1
 8000e66:	419e      	sbcs	r6, r3
 8000e68:	4332      	orrs	r2, r6
 8000e6a:	0753      	lsls	r3, r2, #29
 8000e6c:	d004      	beq.n	8000e78 <__aeabi_fmul+0x26c>
 8000e6e:	230f      	movs	r3, #15
 8000e70:	4013      	ands	r3, r2
 8000e72:	2b04      	cmp	r3, #4
 8000e74:	d000      	beq.n	8000e78 <__aeabi_fmul+0x26c>
 8000e76:	3204      	adds	r2, #4
 8000e78:	0153      	lsls	r3, r2, #5
 8000e7a:	d510      	bpl.n	8000e9e <__aeabi_fmul+0x292>
 8000e7c:	2301      	movs	r3, #1
 8000e7e:	2200      	movs	r2, #0
 8000e80:	e792      	b.n	8000da8 <__aeabi_fmul+0x19c>
 8000e82:	003d      	movs	r5, r7
 8000e84:	4646      	mov	r6, r8
 8000e86:	4682      	mov	sl, r0
 8000e88:	e767      	b.n	8000d5a <__aeabi_fmul+0x14e>
 8000e8a:	23ff      	movs	r3, #255	@ 0xff
 8000e8c:	2200      	movs	r2, #0
 8000e8e:	e78b      	b.n	8000da8 <__aeabi_fmul+0x19c>
 8000e90:	2280      	movs	r2, #128	@ 0x80
 8000e92:	2500      	movs	r5, #0
 8000e94:	03d2      	lsls	r2, r2, #15
 8000e96:	e786      	b.n	8000da6 <__aeabi_fmul+0x19a>
 8000e98:	003d      	movs	r5, r7
 8000e9a:	431a      	orrs	r2, r3
 8000e9c:	e783      	b.n	8000da6 <__aeabi_fmul+0x19a>
 8000e9e:	0192      	lsls	r2, r2, #6
 8000ea0:	2300      	movs	r3, #0
 8000ea2:	0a52      	lsrs	r2, r2, #9
 8000ea4:	e780      	b.n	8000da8 <__aeabi_fmul+0x19c>
 8000ea6:	003d      	movs	r5, r7
 8000ea8:	4646      	mov	r6, r8
 8000eaa:	e777      	b.n	8000d9c <__aeabi_fmul+0x190>
 8000eac:	002a      	movs	r2, r5
 8000eae:	2301      	movs	r3, #1
 8000eb0:	407a      	eors	r2, r7
 8000eb2:	408b      	lsls	r3, r1
 8000eb4:	2003      	movs	r0, #3
 8000eb6:	b2d2      	uxtb	r2, r2
 8000eb8:	e6e9      	b.n	8000c8e <__aeabi_fmul+0x82>
 8000eba:	46c0      	nop			@ (mov r8, r8)
 8000ebc:	f7ffffff 	.word	0xf7ffffff

08000ec0 <__aeabi_fsub>:
 8000ec0:	b5f8      	push	{r3, r4, r5, r6, r7, lr}
 8000ec2:	4647      	mov	r7, r8
 8000ec4:	46ce      	mov	lr, r9
 8000ec6:	0243      	lsls	r3, r0, #9
 8000ec8:	b580      	push	{r7, lr}
 8000eca:	0a5f      	lsrs	r7, r3, #9
 8000ecc:	099b      	lsrs	r3, r3, #6
 8000ece:	0045      	lsls	r5, r0, #1
 8000ed0:	004a      	lsls	r2, r1, #1
 8000ed2:	469c      	mov	ip, r3
 8000ed4:	024b      	lsls	r3, r1, #9
 8000ed6:	0fc4      	lsrs	r4, r0, #31
 8000ed8:	0fce      	lsrs	r6, r1, #31
 8000eda:	0e2d      	lsrs	r5, r5, #24
 8000edc:	0a58      	lsrs	r0, r3, #9
 8000ede:	0e12      	lsrs	r2, r2, #24
 8000ee0:	0999      	lsrs	r1, r3, #6
 8000ee2:	2aff      	cmp	r2, #255	@ 0xff
 8000ee4:	d06b      	beq.n	8000fbe <__aeabi_fsub+0xfe>
 8000ee6:	2301      	movs	r3, #1
 8000ee8:	405e      	eors	r6, r3
 8000eea:	1aab      	subs	r3, r5, r2
 8000eec:	42b4      	cmp	r4, r6
 8000eee:	d04b      	beq.n	8000f88 <__aeabi_fsub+0xc8>
 8000ef0:	2b00      	cmp	r3, #0
 8000ef2:	dc00      	bgt.n	8000ef6 <__aeabi_fsub+0x36>
 8000ef4:	e0ff      	b.n	80010f6 <__aeabi_fsub+0x236>
 8000ef6:	2a00      	cmp	r2, #0
 8000ef8:	d100      	bne.n	8000efc <__aeabi_fsub+0x3c>
 8000efa:	e088      	b.n	800100e <__aeabi_fsub+0x14e>
 8000efc:	2dff      	cmp	r5, #255	@ 0xff
 8000efe:	d100      	bne.n	8000f02 <__aeabi_fsub+0x42>
 8000f00:	e0ef      	b.n	80010e2 <__aeabi_fsub+0x222>
 8000f02:	2280      	movs	r2, #128	@ 0x80
 8000f04:	04d2      	lsls	r2, r2, #19
 8000f06:	4311      	orrs	r1, r2
 8000f08:	2001      	movs	r0, #1
 8000f0a:	2b1b      	cmp	r3, #27
 8000f0c:	dc08      	bgt.n	8000f20 <__aeabi_fsub+0x60>
 8000f0e:	0008      	movs	r0, r1
 8000f10:	2220      	movs	r2, #32
 8000f12:	40d8      	lsrs	r0, r3
 8000f14:	1ad3      	subs	r3, r2, r3
 8000f16:	4099      	lsls	r1, r3
 8000f18:	000b      	movs	r3, r1
 8000f1a:	1e5a      	subs	r2, r3, #1
 8000f1c:	4193      	sbcs	r3, r2
 8000f1e:	4318      	orrs	r0, r3
 8000f20:	4663      	mov	r3, ip
 8000f22:	1a1b      	subs	r3, r3, r0
 8000f24:	469c      	mov	ip, r3
 8000f26:	4663      	mov	r3, ip
 8000f28:	015b      	lsls	r3, r3, #5
 8000f2a:	d400      	bmi.n	8000f2e <__aeabi_fsub+0x6e>
 8000f2c:	e0cd      	b.n	80010ca <__aeabi_fsub+0x20a>
 8000f2e:	4663      	mov	r3, ip
 8000f30:	019f      	lsls	r7, r3, #6
 8000f32:	09bf      	lsrs	r7, r7, #6
 8000f34:	0038      	movs	r0, r7
 8000f36:	f000 fa8d 	bl	8001454 <__clzsi2>
 8000f3a:	003b      	movs	r3, r7
 8000f3c:	3805      	subs	r0, #5
 8000f3e:	4083      	lsls	r3, r0
 8000f40:	4285      	cmp	r5, r0
 8000f42:	dc00      	bgt.n	8000f46 <__aeabi_fsub+0x86>
 8000f44:	e0a2      	b.n	800108c <__aeabi_fsub+0x1cc>
 8000f46:	4ab7      	ldr	r2, [pc, #732]	@ (8001224 <__aeabi_fsub+0x364>)
 8000f48:	1a2d      	subs	r5, r5, r0
 8000f4a:	401a      	ands	r2, r3
 8000f4c:	4694      	mov	ip, r2
 8000f4e:	075a      	lsls	r2, r3, #29
 8000f50:	d100      	bne.n	8000f54 <__aeabi_fsub+0x94>
 8000f52:	e0c3      	b.n	80010dc <__aeabi_fsub+0x21c>
 8000f54:	220f      	movs	r2, #15
 8000f56:	4013      	ands	r3, r2
 8000f58:	2b04      	cmp	r3, #4
 8000f5a:	d100      	bne.n	8000f5e <__aeabi_fsub+0x9e>
 8000f5c:	e0be      	b.n	80010dc <__aeabi_fsub+0x21c>
 8000f5e:	2304      	movs	r3, #4
 8000f60:	4698      	mov	r8, r3
 8000f62:	44c4      	add	ip, r8
 8000f64:	4663      	mov	r3, ip
 8000f66:	015b      	lsls	r3, r3, #5
 8000f68:	d400      	bmi.n	8000f6c <__aeabi_fsub+0xac>
 8000f6a:	e0b7      	b.n	80010dc <__aeabi_fsub+0x21c>
 8000f6c:	1c68      	adds	r0, r5, #1
 8000f6e:	2dfe      	cmp	r5, #254	@ 0xfe
 8000f70:	d000      	beq.n	8000f74 <__aeabi_fsub+0xb4>
 8000f72:	e0a5      	b.n	80010c0 <__aeabi_fsub+0x200>
 8000f74:	20ff      	movs	r0, #255	@ 0xff
 8000f76:	2200      	movs	r2, #0
 8000f78:	05c0      	lsls	r0, r0, #23
 8000f7a:	4310      	orrs	r0, r2
 8000f7c:	07e4      	lsls	r4, r4, #31
 8000f7e:	4320      	orrs	r0, r4
 8000f80:	bcc0      	pop	{r6, r7}
 8000f82:	46b9      	mov	r9, r7
 8000f84:	46b0      	mov	r8, r6
 8000f86:	bdf8      	pop	{r3, r4, r5, r6, r7, pc}
 8000f88:	2b00      	cmp	r3, #0
 8000f8a:	dc00      	bgt.n	8000f8e <__aeabi_fsub+0xce>
 8000f8c:	e1eb      	b.n	8001366 <__aeabi_fsub+0x4a6>
 8000f8e:	2a00      	cmp	r2, #0
 8000f90:	d046      	beq.n	8001020 <__aeabi_fsub+0x160>
 8000f92:	2dff      	cmp	r5, #255	@ 0xff
 8000f94:	d100      	bne.n	8000f98 <__aeabi_fsub+0xd8>
 8000f96:	e0a4      	b.n	80010e2 <__aeabi_fsub+0x222>
 8000f98:	2280      	movs	r2, #128	@ 0x80
 8000f9a:	04d2      	lsls	r2, r2, #19
 8000f9c:	4311      	orrs	r1, r2
 8000f9e:	2b1b      	cmp	r3, #27
 8000fa0:	dc00      	bgt.n	8000fa4 <__aeabi_fsub+0xe4>
 8000fa2:	e0fb      	b.n	800119c <__aeabi_fsub+0x2dc>
 8000fa4:	2305      	movs	r3, #5
 8000fa6:	4698      	mov	r8, r3
 8000fa8:	002b      	movs	r3, r5
 8000faa:	44c4      	add	ip, r8
 8000fac:	4662      	mov	r2, ip
 8000fae:	08d7      	lsrs	r7, r2, #3
 8000fb0:	2bff      	cmp	r3, #255	@ 0xff
 8000fb2:	d100      	bne.n	8000fb6 <__aeabi_fsub+0xf6>
 8000fb4:	e095      	b.n	80010e2 <__aeabi_fsub+0x222>
 8000fb6:	027a      	lsls	r2, r7, #9
 8000fb8:	0a52      	lsrs	r2, r2, #9
 8000fba:	b2d8      	uxtb	r0, r3
 8000fbc:	e7dc      	b.n	8000f78 <__aeabi_fsub+0xb8>
 8000fbe:	002b      	movs	r3, r5
 8000fc0:	3bff      	subs	r3, #255	@ 0xff
 8000fc2:	4699      	mov	r9, r3
 8000fc4:	2900      	cmp	r1, #0
 8000fc6:	d118      	bne.n	8000ffa <__aeabi_fsub+0x13a>
 8000fc8:	2301      	movs	r3, #1
 8000fca:	405e      	eors	r6, r3
 8000fcc:	42b4      	cmp	r4, r6
 8000fce:	d100      	bne.n	8000fd2 <__aeabi_fsub+0x112>
 8000fd0:	e0ca      	b.n	8001168 <__aeabi_fsub+0x2a8>
 8000fd2:	464b      	mov	r3, r9
 8000fd4:	2b00      	cmp	r3, #0
 8000fd6:	d02d      	beq.n	8001034 <__aeabi_fsub+0x174>
 8000fd8:	2d00      	cmp	r5, #0
 8000fda:	d000      	beq.n	8000fde <__aeabi_fsub+0x11e>
 8000fdc:	e13c      	b.n	8001258 <__aeabi_fsub+0x398>
 8000fde:	23ff      	movs	r3, #255	@ 0xff
 8000fe0:	4664      	mov	r4, ip
 8000fe2:	2c00      	cmp	r4, #0
 8000fe4:	d100      	bne.n	8000fe8 <__aeabi_fsub+0x128>
 8000fe6:	e15f      	b.n	80012a8 <__aeabi_fsub+0x3e8>
 8000fe8:	1e5d      	subs	r5, r3, #1
 8000fea:	2b01      	cmp	r3, #1
 8000fec:	d100      	bne.n	8000ff0 <__aeabi_fsub+0x130>
 8000fee:	e174      	b.n	80012da <__aeabi_fsub+0x41a>
 8000ff0:	0034      	movs	r4, r6
 8000ff2:	2bff      	cmp	r3, #255	@ 0xff
 8000ff4:	d074      	beq.n	80010e0 <__aeabi_fsub+0x220>
 8000ff6:	002b      	movs	r3, r5
 8000ff8:	e103      	b.n	8001202 <__aeabi_fsub+0x342>
 8000ffa:	42b4      	cmp	r4, r6
 8000ffc:	d100      	bne.n	8001000 <__aeabi_fsub+0x140>
 8000ffe:	e09c      	b.n	800113a <__aeabi_fsub+0x27a>
 8001000:	2b00      	cmp	r3, #0
 8001002:	d017      	beq.n	8001034 <__aeabi_fsub+0x174>
 8001004:	2d00      	cmp	r5, #0
 8001006:	d0ea      	beq.n	8000fde <__aeabi_fsub+0x11e>
 8001008:	0007      	movs	r7, r0
 800100a:	0034      	movs	r4, r6
 800100c:	e06c      	b.n	80010e8 <__aeabi_fsub+0x228>
 800100e:	2900      	cmp	r1, #0
 8001010:	d0cc      	beq.n	8000fac <__aeabi_fsub+0xec>
 8001012:	1e5a      	subs	r2, r3, #1
 8001014:	2b01      	cmp	r3, #1
 8001016:	d02b      	beq.n	8001070 <__aeabi_fsub+0x1b0>
 8001018:	2bff      	cmp	r3, #255	@ 0xff
 800101a:	d062      	beq.n	80010e2 <__aeabi_fsub+0x222>
 800101c:	0013      	movs	r3, r2
 800101e:	e773      	b.n	8000f08 <__aeabi_fsub+0x48>
 8001020:	2900      	cmp	r1, #0
 8001022:	d0c3      	beq.n	8000fac <__aeabi_fsub+0xec>
 8001024:	1e5a      	subs	r2, r3, #1
 8001026:	2b01      	cmp	r3, #1
 8001028:	d100      	bne.n	800102c <__aeabi_fsub+0x16c>
 800102a:	e11e      	b.n	800126a <__aeabi_fsub+0x3aa>
 800102c:	2bff      	cmp	r3, #255	@ 0xff
 800102e:	d058      	beq.n	80010e2 <__aeabi_fsub+0x222>
 8001030:	0013      	movs	r3, r2
 8001032:	e7b4      	b.n	8000f9e <__aeabi_fsub+0xde>
 8001034:	22fe      	movs	r2, #254	@ 0xfe
 8001036:	1c6b      	adds	r3, r5, #1
 8001038:	421a      	tst	r2, r3
 800103a:	d10d      	bne.n	8001058 <__aeabi_fsub+0x198>
 800103c:	2d00      	cmp	r5, #0
 800103e:	d060      	beq.n	8001102 <__aeabi_fsub+0x242>
 8001040:	4663      	mov	r3, ip
 8001042:	2b00      	cmp	r3, #0
 8001044:	d000      	beq.n	8001048 <__aeabi_fsub+0x188>
 8001046:	e120      	b.n	800128a <__aeabi_fsub+0x3ca>
 8001048:	2900      	cmp	r1, #0
 800104a:	d000      	beq.n	800104e <__aeabi_fsub+0x18e>
 800104c:	e128      	b.n	80012a0 <__aeabi_fsub+0x3e0>
 800104e:	2280      	movs	r2, #128	@ 0x80
 8001050:	2400      	movs	r4, #0
 8001052:	20ff      	movs	r0, #255	@ 0xff
 8001054:	03d2      	lsls	r2, r2, #15
 8001056:	e78f      	b.n	8000f78 <__aeabi_fsub+0xb8>
 8001058:	4663      	mov	r3, ip
 800105a:	1a5f      	subs	r7, r3, r1
 800105c:	017b      	lsls	r3, r7, #5
 800105e:	d500      	bpl.n	8001062 <__aeabi_fsub+0x1a2>
 8001060:	e0fe      	b.n	8001260 <__aeabi_fsub+0x3a0>
 8001062:	2f00      	cmp	r7, #0
 8001064:	d000      	beq.n	8001068 <__aeabi_fsub+0x1a8>
 8001066:	e765      	b.n	8000f34 <__aeabi_fsub+0x74>
 8001068:	2400      	movs	r4, #0
 800106a:	2000      	movs	r0, #0
 800106c:	2200      	movs	r2, #0
 800106e:	e783      	b.n	8000f78 <__aeabi_fsub+0xb8>
 8001070:	4663      	mov	r3, ip
 8001072:	1a59      	subs	r1, r3, r1
 8001074:	014b      	lsls	r3, r1, #5
 8001076:	d400      	bmi.n	800107a <__aeabi_fsub+0x1ba>
 8001078:	e119      	b.n	80012ae <__aeabi_fsub+0x3ee>
 800107a:	018f      	lsls	r7, r1, #6
 800107c:	09bf      	lsrs	r7, r7, #6
 800107e:	0038      	movs	r0, r7
 8001080:	f000 f9e8 	bl	8001454 <__clzsi2>
 8001084:	003b      	movs	r3, r7
 8001086:	3805      	subs	r0, #5
 8001088:	4083      	lsls	r3, r0
 800108a:	2501      	movs	r5, #1
 800108c:	2220      	movs	r2, #32
 800108e:	1b40      	subs	r0, r0, r5
 8001090:	3001      	adds	r0, #1
 8001092:	1a12      	subs	r2, r2, r0
 8001094:	0019      	movs	r1, r3
 8001096:	4093      	lsls	r3, r2
 8001098:	40c1      	lsrs	r1, r0
 800109a:	1e5a      	subs	r2, r3, #1
 800109c:	4193      	sbcs	r3, r2
 800109e:	4319      	orrs	r1, r3
 80010a0:	468c      	mov	ip, r1
 80010a2:	1e0b      	subs	r3, r1, #0
 80010a4:	d0e1      	beq.n	800106a <__aeabi_fsub+0x1aa>
 80010a6:	075b      	lsls	r3, r3, #29
 80010a8:	d100      	bne.n	80010ac <__aeabi_fsub+0x1ec>
 80010aa:	e152      	b.n	8001352 <__aeabi_fsub+0x492>
 80010ac:	230f      	movs	r3, #15
 80010ae:	2500      	movs	r5, #0
 80010b0:	400b      	ands	r3, r1
 80010b2:	2b04      	cmp	r3, #4
 80010b4:	d000      	beq.n	80010b8 <__aeabi_fsub+0x1f8>
 80010b6:	e752      	b.n	8000f5e <__aeabi_fsub+0x9e>
 80010b8:	2001      	movs	r0, #1
 80010ba:	014a      	lsls	r2, r1, #5
 80010bc:	d400      	bmi.n	80010c0 <__aeabi_fsub+0x200>
 80010be:	e092      	b.n	80011e6 <__aeabi_fsub+0x326>
 80010c0:	b2c0      	uxtb	r0, r0
 80010c2:	4663      	mov	r3, ip
 80010c4:	019a      	lsls	r2, r3, #6
 80010c6:	0a52      	lsrs	r2, r2, #9
 80010c8:	e756      	b.n	8000f78 <__aeabi_fsub+0xb8>
 80010ca:	4663      	mov	r3, ip
 80010cc:	075b      	lsls	r3, r3, #29
 80010ce:	d005      	beq.n	80010dc <__aeabi_fsub+0x21c>
 80010d0:	230f      	movs	r3, #15
 80010d2:	4662      	mov	r2, ip
 80010d4:	4013      	ands	r3, r2
 80010d6:	2b04      	cmp	r3, #4
 80010d8:	d000      	beq.n	80010dc <__aeabi_fsub+0x21c>
 80010da:	e740      	b.n	8000f5e <__aeabi_fsub+0x9e>
 80010dc:	002b      	movs	r3, r5
 80010de:	e765      	b.n	8000fac <__aeabi_fsub+0xec>
 80010e0:	0007      	movs	r7, r0
 80010e2:	2f00      	cmp	r7, #0
 80010e4:	d100      	bne.n	80010e8 <__aeabi_fsub+0x228>
 80010e6:	e745      	b.n	8000f74 <__aeabi_fsub+0xb4>
 80010e8:	2280      	movs	r2, #128	@ 0x80
 80010ea:	03d2      	lsls	r2, r2, #15
 80010ec:	433a      	orrs	r2, r7
 80010ee:	0252      	lsls	r2, r2, #9
 80010f0:	20ff      	movs	r0, #255	@ 0xff
 80010f2:	0a52      	lsrs	r2, r2, #9
 80010f4:	e740      	b.n	8000f78 <__aeabi_fsub+0xb8>
 80010f6:	2b00      	cmp	r3, #0
 80010f8:	d179      	bne.n	80011ee <__aeabi_fsub+0x32e>
 80010fa:	22fe      	movs	r2, #254	@ 0xfe
 80010fc:	1c6b      	adds	r3, r5, #1
 80010fe:	421a      	tst	r2, r3
 8001100:	d1aa      	bne.n	8001058 <__aeabi_fsub+0x198>
 8001102:	4663      	mov	r3, ip
 8001104:	2b00      	cmp	r3, #0
 8001106:	d100      	bne.n	800110a <__aeabi_fsub+0x24a>
 8001108:	e0f5      	b.n	80012f6 <__aeabi_fsub+0x436>
 800110a:	2900      	cmp	r1, #0
 800110c:	d100      	bne.n	8001110 <__aeabi_fsub+0x250>
 800110e:	e0d1      	b.n	80012b4 <__aeabi_fsub+0x3f4>
 8001110:	1a5f      	subs	r7, r3, r1
 8001112:	2380      	movs	r3, #128	@ 0x80
 8001114:	04db      	lsls	r3, r3, #19
 8001116:	421f      	tst	r7, r3
 8001118:	d100      	bne.n	800111c <__aeabi_fsub+0x25c>
 800111a:	e10e      	b.n	800133a <__aeabi_fsub+0x47a>
 800111c:	4662      	mov	r2, ip
 800111e:	2401      	movs	r4, #1
 8001120:	1a8a      	subs	r2, r1, r2
 8001122:	4694      	mov	ip, r2
 8001124:	2000      	movs	r0, #0
 8001126:	4034      	ands	r4, r6
 8001128:	2a00      	cmp	r2, #0
 800112a:	d100      	bne.n	800112e <__aeabi_fsub+0x26e>
 800112c:	e724      	b.n	8000f78 <__aeabi_fsub+0xb8>
 800112e:	2001      	movs	r0, #1
 8001130:	421a      	tst	r2, r3
 8001132:	d1c6      	bne.n	80010c2 <__aeabi_fsub+0x202>
 8001134:	2300      	movs	r3, #0
 8001136:	08d7      	lsrs	r7, r2, #3
 8001138:	e73d      	b.n	8000fb6 <__aeabi_fsub+0xf6>
 800113a:	2b00      	cmp	r3, #0
 800113c:	d017      	beq.n	800116e <__aeabi_fsub+0x2ae>
 800113e:	2d00      	cmp	r5, #0
 8001140:	d000      	beq.n	8001144 <__aeabi_fsub+0x284>
 8001142:	e0af      	b.n	80012a4 <__aeabi_fsub+0x3e4>
 8001144:	23ff      	movs	r3, #255	@ 0xff
 8001146:	4665      	mov	r5, ip
 8001148:	2d00      	cmp	r5, #0
 800114a:	d100      	bne.n	800114e <__aeabi_fsub+0x28e>
 800114c:	e0ad      	b.n	80012aa <__aeabi_fsub+0x3ea>
 800114e:	1e5e      	subs	r6, r3, #1
 8001150:	2b01      	cmp	r3, #1
 8001152:	d100      	bne.n	8001156 <__aeabi_fsub+0x296>
 8001154:	e089      	b.n	800126a <__aeabi_fsub+0x3aa>
 8001156:	2bff      	cmp	r3, #255	@ 0xff
 8001158:	d0c2      	beq.n	80010e0 <__aeabi_fsub+0x220>
 800115a:	2e1b      	cmp	r6, #27
 800115c:	dc00      	bgt.n	8001160 <__aeabi_fsub+0x2a0>
 800115e:	e0ab      	b.n	80012b8 <__aeabi_fsub+0x3f8>
 8001160:	1d4b      	adds	r3, r1, #5
 8001162:	469c      	mov	ip, r3
 8001164:	0013      	movs	r3, r2
 8001166:	e721      	b.n	8000fac <__aeabi_fsub+0xec>
 8001168:	464b      	mov	r3, r9
 800116a:	2b00      	cmp	r3, #0
 800116c:	d170      	bne.n	8001250 <__aeabi_fsub+0x390>
 800116e:	22fe      	movs	r2, #254	@ 0xfe
 8001170:	1c6b      	adds	r3, r5, #1
 8001172:	421a      	tst	r2, r3
 8001174:	d15e      	bne.n	8001234 <__aeabi_fsub+0x374>
 8001176:	2d00      	cmp	r5, #0
 8001178:	d000      	beq.n	800117c <__aeabi_fsub+0x2bc>
 800117a:	e0c3      	b.n	8001304 <__aeabi_fsub+0x444>
 800117c:	4663      	mov	r3, ip
 800117e:	2b00      	cmp	r3, #0
 8001180:	d100      	bne.n	8001184 <__aeabi_fsub+0x2c4>
 8001182:	e0d0      	b.n	8001326 <__aeabi_fsub+0x466>
 8001184:	2900      	cmp	r1, #0
 8001186:	d100      	bne.n	800118a <__aeabi_fsub+0x2ca>
 8001188:	e094      	b.n	80012b4 <__aeabi_fsub+0x3f4>
 800118a:	000a      	movs	r2, r1
 800118c:	4462      	add	r2, ip
 800118e:	0153      	lsls	r3, r2, #5
 8001190:	d400      	bmi.n	8001194 <__aeabi_fsub+0x2d4>
 8001192:	e0d8      	b.n	8001346 <__aeabi_fsub+0x486>
 8001194:	0192      	lsls	r2, r2, #6
 8001196:	2001      	movs	r0, #1
 8001198:	0a52      	lsrs	r2, r2, #9
 800119a:	e6ed      	b.n	8000f78 <__aeabi_fsub+0xb8>
 800119c:	0008      	movs	r0, r1
 800119e:	2220      	movs	r2, #32
 80011a0:	40d8      	lsrs	r0, r3
 80011a2:	1ad3      	subs	r3, r2, r3
 80011a4:	4099      	lsls	r1, r3
 80011a6:	000b      	movs	r3, r1
 80011a8:	1e5a      	subs	r2, r3, #1
 80011aa:	4193      	sbcs	r3, r2
 80011ac:	4303      	orrs	r3, r0
 80011ae:	449c      	add	ip, r3
 80011b0:	4663      	mov	r3, ip
 80011b2:	015b      	lsls	r3, r3, #5
 80011b4:	d589      	bpl.n	80010ca <__aeabi_fsub+0x20a>
 80011b6:	3501      	adds	r5, #1
 80011b8:	2dff      	cmp	r5, #255	@ 0xff
 80011ba:	d100      	bne.n	80011be <__aeabi_fsub+0x2fe>
 80011bc:	e6da      	b.n	8000f74 <__aeabi_fsub+0xb4>
 80011be:	4662      	mov	r2, ip
 80011c0:	2301      	movs	r3, #1
 80011c2:	4919      	ldr	r1, [pc, #100]	@ (8001228 <__aeabi_fsub+0x368>)
 80011c4:	4013      	ands	r3, r2
 80011c6:	0852      	lsrs	r2, r2, #1
 80011c8:	400a      	ands	r2, r1
 80011ca:	431a      	orrs	r2, r3
 80011cc:	0013      	movs	r3, r2
 80011ce:	4694      	mov	ip, r2
 80011d0:	075b      	lsls	r3, r3, #29
 80011d2:	d004      	beq.n	80011de <__aeabi_fsub+0x31e>
 80011d4:	230f      	movs	r3, #15
 80011d6:	4013      	ands	r3, r2
 80011d8:	2b04      	cmp	r3, #4
 80011da:	d000      	beq.n	80011de <__aeabi_fsub+0x31e>
 80011dc:	e6bf      	b.n	8000f5e <__aeabi_fsub+0x9e>
 80011de:	4663      	mov	r3, ip
 80011e0:	015b      	lsls	r3, r3, #5
 80011e2:	d500      	bpl.n	80011e6 <__aeabi_fsub+0x326>
 80011e4:	e6c2      	b.n	8000f6c <__aeabi_fsub+0xac>
 80011e6:	4663      	mov	r3, ip
 80011e8:	08df      	lsrs	r7, r3, #3
 80011ea:	002b      	movs	r3, r5
 80011ec:	e6e3      	b.n	8000fb6 <__aeabi_fsub+0xf6>
 80011ee:	1b53      	subs	r3, r2, r5
 80011f0:	2d00      	cmp	r5, #0
 80011f2:	d100      	bne.n	80011f6 <__aeabi_fsub+0x336>
 80011f4:	e6f4      	b.n	8000fe0 <__aeabi_fsub+0x120>
 80011f6:	2080      	movs	r0, #128	@ 0x80
 80011f8:	4664      	mov	r4, ip
 80011fa:	04c0      	lsls	r0, r0, #19
 80011fc:	4304      	orrs	r4, r0
 80011fe:	46a4      	mov	ip, r4
 8001200:	0034      	movs	r4, r6
 8001202:	2001      	movs	r0, #1
 8001204:	2b1b      	cmp	r3, #27
 8001206:	dc09      	bgt.n	800121c <__aeabi_fsub+0x35c>
 8001208:	2520      	movs	r5, #32
 800120a:	4660      	mov	r0, ip
 800120c:	40d8      	lsrs	r0, r3
 800120e:	1aeb      	subs	r3, r5, r3
 8001210:	4665      	mov	r5, ip
 8001212:	409d      	lsls	r5, r3
 8001214:	002b      	movs	r3, r5
 8001216:	1e5d      	subs	r5, r3, #1
 8001218:	41ab      	sbcs	r3, r5
 800121a:	4318      	orrs	r0, r3
 800121c:	1a0b      	subs	r3, r1, r0
 800121e:	469c      	mov	ip, r3
 8001220:	0015      	movs	r5, r2
 8001222:	e680      	b.n	8000f26 <__aeabi_fsub+0x66>
 8001224:	fbffffff 	.word	0xfbffffff
 8001228:	7dffffff 	.word	0x7dffffff
 800122c:	22fe      	movs	r2, #254	@ 0xfe
 800122e:	1c6b      	adds	r3, r5, #1
 8001230:	4213      	tst	r3, r2
 8001232:	d0a3      	beq.n	800117c <__aeabi_fsub+0x2bc>
 8001234:	2bff      	cmp	r3, #255	@ 0xff
 8001236:	d100      	bne.n	800123a <__aeabi_fsub+0x37a>
 8001238:	e69c      	b.n	8000f74 <__aeabi_fsub+0xb4>
 800123a:	4461      	add	r1, ip
 800123c:	0849      	lsrs	r1, r1, #1
 800123e:	074a      	lsls	r2, r1, #29
 8001240:	d049      	beq.n	80012d6 <__aeabi_fsub+0x416>
 8001242:	220f      	movs	r2, #15
 8001244:	400a      	ands	r2, r1
 8001246:	2a04      	cmp	r2, #4
 8001248:	d045      	beq.n	80012d6 <__aeabi_fsub+0x416>
 800124a:	1d0a      	adds	r2, r1, #4
 800124c:	4694      	mov	ip, r2
 800124e:	e6ad      	b.n	8000fac <__aeabi_fsub+0xec>
 8001250:	2d00      	cmp	r5, #0
 8001252:	d100      	bne.n	8001256 <__aeabi_fsub+0x396>
 8001254:	e776      	b.n	8001144 <__aeabi_fsub+0x284>
 8001256:	e68d      	b.n	8000f74 <__aeabi_fsub+0xb4>
 8001258:	0034      	movs	r4, r6
 800125a:	20ff      	movs	r0, #255	@ 0xff
 800125c:	2200      	movs	r2, #0
 800125e:	e68b      	b.n	8000f78 <__aeabi_fsub+0xb8>
 8001260:	4663      	mov	r3, ip
 8001262:	2401      	movs	r4, #1
 8001264:	1acf      	subs	r7, r1, r3
 8001266:	4034      	ands	r4, r6
 8001268:	e664      	b.n	8000f34 <__aeabi_fsub+0x74>
 800126a:	4461      	add	r1, ip
 800126c:	014b      	lsls	r3, r1, #5
 800126e:	d56d      	bpl.n	800134c <__aeabi_fsub+0x48c>
 8001270:	0848      	lsrs	r0, r1, #1
 8001272:	4944      	ldr	r1, [pc, #272]	@ (8001384 <__aeabi_fsub+0x4c4>)
 8001274:	4001      	ands	r1, r0
 8001276:	0743      	lsls	r3, r0, #29
 8001278:	d02c      	beq.n	80012d4 <__aeabi_fsub+0x414>
 800127a:	230f      	movs	r3, #15
 800127c:	4003      	ands	r3, r0
 800127e:	2b04      	cmp	r3, #4
 8001280:	d028      	beq.n	80012d4 <__aeabi_fsub+0x414>
 8001282:	1d0b      	adds	r3, r1, #4
 8001284:	469c      	mov	ip, r3
 8001286:	2302      	movs	r3, #2
 8001288:	e690      	b.n	8000fac <__aeabi_fsub+0xec>
 800128a:	2900      	cmp	r1, #0
 800128c:	d100      	bne.n	8001290 <__aeabi_fsub+0x3d0>
 800128e:	e72b      	b.n	80010e8 <__aeabi_fsub+0x228>
 8001290:	2380      	movs	r3, #128	@ 0x80
 8001292:	03db      	lsls	r3, r3, #15
 8001294:	429f      	cmp	r7, r3
 8001296:	d200      	bcs.n	800129a <__aeabi_fsub+0x3da>
 8001298:	e726      	b.n	80010e8 <__aeabi_fsub+0x228>
 800129a:	4298      	cmp	r0, r3
 800129c:	d300      	bcc.n	80012a0 <__aeabi_fsub+0x3e0>
 800129e:	e723      	b.n	80010e8 <__aeabi_fsub+0x228>
 80012a0:	2401      	movs	r4, #1
 80012a2:	4034      	ands	r4, r6
 80012a4:	0007      	movs	r7, r0
 80012a6:	e71f      	b.n	80010e8 <__aeabi_fsub+0x228>
 80012a8:	0034      	movs	r4, r6
 80012aa:	468c      	mov	ip, r1
 80012ac:	e67e      	b.n	8000fac <__aeabi_fsub+0xec>
 80012ae:	2301      	movs	r3, #1
 80012b0:	08cf      	lsrs	r7, r1, #3
 80012b2:	e680      	b.n	8000fb6 <__aeabi_fsub+0xf6>
 80012b4:	2300      	movs	r3, #0
 80012b6:	e67e      	b.n	8000fb6 <__aeabi_fsub+0xf6>
 80012b8:	2020      	movs	r0, #32
 80012ba:	4665      	mov	r5, ip
 80012bc:	1b80      	subs	r0, r0, r6
 80012be:	4085      	lsls	r5, r0
 80012c0:	4663      	mov	r3, ip
 80012c2:	0028      	movs	r0, r5
 80012c4:	40f3      	lsrs	r3, r6
 80012c6:	1e45      	subs	r5, r0, #1
 80012c8:	41a8      	sbcs	r0, r5
 80012ca:	4303      	orrs	r3, r0
 80012cc:	469c      	mov	ip, r3
 80012ce:	0015      	movs	r5, r2
 80012d0:	448c      	add	ip, r1
 80012d2:	e76d      	b.n	80011b0 <__aeabi_fsub+0x2f0>
 80012d4:	2302      	movs	r3, #2
 80012d6:	08cf      	lsrs	r7, r1, #3
 80012d8:	e66d      	b.n	8000fb6 <__aeabi_fsub+0xf6>
 80012da:	1b0f      	subs	r7, r1, r4
 80012dc:	017b      	lsls	r3, r7, #5
 80012de:	d528      	bpl.n	8001332 <__aeabi_fsub+0x472>
 80012e0:	01bf      	lsls	r7, r7, #6
 80012e2:	09bf      	lsrs	r7, r7, #6
 80012e4:	0038      	movs	r0, r7
 80012e6:	f000 f8b5 	bl	8001454 <__clzsi2>
 80012ea:	003b      	movs	r3, r7
 80012ec:	3805      	subs	r0, #5
 80012ee:	4083      	lsls	r3, r0
 80012f0:	0034      	movs	r4, r6
 80012f2:	2501      	movs	r5, #1
 80012f4:	e6ca      	b.n	800108c <__aeabi_fsub+0x1cc>
 80012f6:	2900      	cmp	r1, #0
 80012f8:	d100      	bne.n	80012fc <__aeabi_fsub+0x43c>
 80012fa:	e6b5      	b.n	8001068 <__aeabi_fsub+0x1a8>
 80012fc:	2401      	movs	r4, #1
 80012fe:	0007      	movs	r7, r0
 8001300:	4034      	ands	r4, r6
 8001302:	e658      	b.n	8000fb6 <__aeabi_fsub+0xf6>
 8001304:	4663      	mov	r3, ip
 8001306:	2b00      	cmp	r3, #0
 8001308:	d100      	bne.n	800130c <__aeabi_fsub+0x44c>
 800130a:	e6e9      	b.n	80010e0 <__aeabi_fsub+0x220>
 800130c:	2900      	cmp	r1, #0
 800130e:	d100      	bne.n	8001312 <__aeabi_fsub+0x452>
 8001310:	e6ea      	b.n	80010e8 <__aeabi_fsub+0x228>
 8001312:	2380      	movs	r3, #128	@ 0x80
 8001314:	03db      	lsls	r3, r3, #15
 8001316:	429f      	cmp	r7, r3
 8001318:	d200      	bcs.n	800131c <__aeabi_fsub+0x45c>
 800131a:	e6e5      	b.n	80010e8 <__aeabi_fsub+0x228>
 800131c:	4298      	cmp	r0, r3
 800131e:	d300      	bcc.n	8001322 <__aeabi_fsub+0x462>
 8001320:	e6e2      	b.n	80010e8 <__aeabi_fsub+0x228>
 8001322:	0007      	movs	r7, r0
 8001324:	e6e0      	b.n	80010e8 <__aeabi_fsub+0x228>
 8001326:	2900      	cmp	r1, #0
 8001328:	d100      	bne.n	800132c <__aeabi_fsub+0x46c>
 800132a:	e69e      	b.n	800106a <__aeabi_fsub+0x1aa>
 800132c:	2300      	movs	r3, #0
 800132e:	08cf      	lsrs	r7, r1, #3
 8001330:	e641      	b.n	8000fb6 <__aeabi_fsub+0xf6>
 8001332:	0034      	movs	r4, r6
 8001334:	2301      	movs	r3, #1
 8001336:	08ff      	lsrs	r7, r7, #3
 8001338:	e63d      	b.n	8000fb6 <__aeabi_fsub+0xf6>
 800133a:	2f00      	cmp	r7, #0
 800133c:	d100      	bne.n	8001340 <__aeabi_fsub+0x480>
 800133e:	e693      	b.n	8001068 <__aeabi_fsub+0x1a8>
 8001340:	2300      	movs	r3, #0
 8001342:	08ff      	lsrs	r7, r7, #3
 8001344:	e637      	b.n	8000fb6 <__aeabi_fsub+0xf6>
 8001346:	2300      	movs	r3, #0
 8001348:	08d7      	lsrs	r7, r2, #3
 800134a:	e634      	b.n	8000fb6 <__aeabi_fsub+0xf6>
 800134c:	2301      	movs	r3, #1
 800134e:	08cf      	lsrs	r7, r1, #3
 8001350:	e631      	b.n	8000fb6 <__aeabi_fsub+0xf6>
 8001352:	2280      	movs	r2, #128	@ 0x80
 8001354:	000b      	movs	r3, r1
 8001356:	04d2      	lsls	r2, r2, #19
 8001358:	2001      	movs	r0, #1
 800135a:	4013      	ands	r3, r2
 800135c:	4211      	tst	r1, r2
 800135e:	d000      	beq.n	8001362 <__aeabi_fsub+0x4a2>
 8001360:	e6ae      	b.n	80010c0 <__aeabi_fsub+0x200>
 8001362:	08cf      	lsrs	r7, r1, #3
 8001364:	e627      	b.n	8000fb6 <__aeabi_fsub+0xf6>
 8001366:	2b00      	cmp	r3, #0
 8001368:	d100      	bne.n	800136c <__aeabi_fsub+0x4ac>
 800136a:	e75f      	b.n	800122c <__aeabi_fsub+0x36c>
 800136c:	1b56      	subs	r6, r2, r5
 800136e:	2d00      	cmp	r5, #0
 8001370:	d101      	bne.n	8001376 <__aeabi_fsub+0x4b6>
 8001372:	0033      	movs	r3, r6
 8001374:	e6e7      	b.n	8001146 <__aeabi_fsub+0x286>
 8001376:	2380      	movs	r3, #128	@ 0x80
 8001378:	4660      	mov	r0, ip
 800137a:	04db      	lsls	r3, r3, #19
 800137c:	4318      	orrs	r0, r3
 800137e:	4684      	mov	ip, r0
 8001380:	e6eb      	b.n	800115a <__aeabi_fsub+0x29a>
 8001382:	46c0      	nop			@ (mov r8, r8)
 8001384:	7dffffff 	.word	0x7dffffff

08001388 <__aeabi_fcmpun>:
 8001388:	0243      	lsls	r3, r0, #9
 800138a:	024a      	lsls	r2, r1, #9
 800138c:	0040      	lsls	r0, r0, #1
 800138e:	0049      	lsls	r1, r1, #1
 8001390:	0a5b      	lsrs	r3, r3, #9
 8001392:	0a52      	lsrs	r2, r2, #9
 8001394:	0e09      	lsrs	r1, r1, #24
 8001396:	0e00      	lsrs	r0, r0, #24
 8001398:	28ff      	cmp	r0, #255	@ 0xff
 800139a:	d006      	beq.n	80013aa <__aeabi_fcmpun+0x22>
 800139c:	2000      	movs	r0, #0
 800139e:	29ff      	cmp	r1, #255	@ 0xff
 80013a0:	d102      	bne.n	80013a8 <__aeabi_fcmpun+0x20>
 80013a2:	1e53      	subs	r3, r2, #1
 80013a4:	419a      	sbcs	r2, r3
 80013a6:	0010      	movs	r0, r2
 80013a8:	4770      	bx	lr
 80013aa:	38fe      	subs	r0, #254	@ 0xfe
 80013ac:	2b00      	cmp	r3, #0
 80013ae:	d1fb      	bne.n	80013a8 <__aeabi_fcmpun+0x20>
 80013b0:	e7f4      	b.n	800139c <__aeabi_fcmpun+0x14>
 80013b2:	46c0      	nop			@ (mov r8, r8)

080013b4 <__aeabi_i2f>:
 80013b4:	b570      	push	{r4, r5, r6, lr}
 80013b6:	2800      	cmp	r0, #0
 80013b8:	d012      	beq.n	80013e0 <__aeabi_i2f+0x2c>
 80013ba:	17c3      	asrs	r3, r0, #31
 80013bc:	18c5      	adds	r5, r0, r3
 80013be:	405d      	eors	r5, r3
 80013c0:	0fc4      	lsrs	r4, r0, #31
 80013c2:	0028      	movs	r0, r5
 80013c4:	f000 f846 	bl	8001454 <__clzsi2>
 80013c8:	239e      	movs	r3, #158	@ 0x9e
 80013ca:	1a1b      	subs	r3, r3, r0
 80013cc:	2b96      	cmp	r3, #150	@ 0x96
 80013ce:	dc0f      	bgt.n	80013f0 <__aeabi_i2f+0x3c>
 80013d0:	2808      	cmp	r0, #8
 80013d2:	d038      	beq.n	8001446 <__aeabi_i2f+0x92>
 80013d4:	3808      	subs	r0, #8
 80013d6:	4085      	lsls	r5, r0
 80013d8:	026d      	lsls	r5, r5, #9
 80013da:	0a6d      	lsrs	r5, r5, #9
 80013dc:	b2d8      	uxtb	r0, r3
 80013de:	e002      	b.n	80013e6 <__aeabi_i2f+0x32>
 80013e0:	2400      	movs	r4, #0
 80013e2:	2000      	movs	r0, #0
 80013e4:	2500      	movs	r5, #0
 80013e6:	05c0      	lsls	r0, r0, #23
 80013e8:	4328      	orrs	r0, r5
 80013ea:	07e4      	lsls	r4, r4, #31
 80013ec:	4320      	orrs	r0, r4
 80013ee:	bd70      	pop	{r4, r5, r6, pc}
 80013f0:	2b99      	cmp	r3, #153	@ 0x99
 80013f2:	dc14      	bgt.n	800141e <__aeabi_i2f+0x6a>
 80013f4:	1f42      	subs	r2, r0, #5
 80013f6:	4095      	lsls	r5, r2
 80013f8:	002a      	movs	r2, r5
 80013fa:	4915      	ldr	r1, [pc, #84]	@ (8001450 <__aeabi_i2f+0x9c>)
 80013fc:	4011      	ands	r1, r2
 80013fe:	0755      	lsls	r5, r2, #29
 8001400:	d01c      	beq.n	800143c <__aeabi_i2f+0x88>
 8001402:	250f      	movs	r5, #15
 8001404:	402a      	ands	r2, r5
 8001406:	2a04      	cmp	r2, #4
 8001408:	d018      	beq.n	800143c <__aeabi_i2f+0x88>
 800140a:	3104      	adds	r1, #4
 800140c:	08ca      	lsrs	r2, r1, #3
 800140e:	0149      	lsls	r1, r1, #5
 8001410:	d515      	bpl.n	800143e <__aeabi_i2f+0x8a>
 8001412:	239f      	movs	r3, #159	@ 0x9f
 8001414:	0252      	lsls	r2, r2, #9
 8001416:	1a18      	subs	r0, r3, r0
 8001418:	0a55      	lsrs	r5, r2, #9
 800141a:	b2c0      	uxtb	r0, r0
 800141c:	e7e3      	b.n	80013e6 <__aeabi_i2f+0x32>
 800141e:	2205      	movs	r2, #5
 8001420:	0029      	movs	r1, r5
 8001422:	1a12      	subs	r2, r2, r0
 8001424:	40d1      	lsrs	r1, r2
 8001426:	0002      	movs	r2, r0
 8001428:	321b      	adds	r2, #27
 800142a:	4095      	lsls	r5, r2
 800142c:	002a      	movs	r2, r5
 800142e:	1e55      	subs	r5, r2, #1
 8001430:	41aa      	sbcs	r2, r5
 8001432:	430a      	orrs	r2, r1
 8001434:	4906      	ldr	r1, [pc, #24]	@ (8001450 <__aeabi_i2f+0x9c>)
 8001436:	4011      	ands	r1, r2
 8001438:	0755      	lsls	r5, r2, #29
 800143a:	d1e2      	bne.n	8001402 <__aeabi_i2f+0x4e>
 800143c:	08ca      	lsrs	r2, r1, #3
 800143e:	0252      	lsls	r2, r2, #9
 8001440:	0a55      	lsrs	r5, r2, #9
 8001442:	b2d8      	uxtb	r0, r3
 8001444:	e7cf      	b.n	80013e6 <__aeabi_i2f+0x32>
 8001446:	026d      	lsls	r5, r5, #9
 8001448:	0a6d      	lsrs	r5, r5, #9
 800144a:	308e      	adds	r0, #142	@ 0x8e
 800144c:	e7cb      	b.n	80013e6 <__aeabi_i2f+0x32>
 800144e:	46c0      	nop			@ (mov r8, r8)
 8001450:	fbffffff 	.word	0xfbffffff

08001454 <__clzsi2>:
 8001454:	211c      	movs	r1, #28
 8001456:	2301      	movs	r3, #1
 8001458:	041b      	lsls	r3, r3, #16
 800145a:	4298      	cmp	r0, r3
 800145c:	d301      	bcc.n	8001462 <__clzsi2+0xe>
 800145e:	0c00      	lsrs	r0, r0, #16
 8001460:	3910      	subs	r1, #16
 8001462:	0a1b      	lsrs	r3, r3, #8
 8001464:	4298      	cmp	r0, r3
 8001466:	d301      	bcc.n	800146c <__clzsi2+0x18>
 8001468:	0a00      	lsrs	r0, r0, #8
 800146a:	3908      	subs	r1, #8
 800146c:	091b      	lsrs	r3, r3, #4
 800146e:	4298      	cmp	r0, r3
 8001470:	d301      	bcc.n	8001476 <__clzsi2+0x22>
 8001472:	0900      	lsrs	r0, r0, #4
 8001474:	3904      	subs	r1, #4
 8001476:	a202      	add	r2, pc, #8	@ (adr r2, 8001480 <__clzsi2+0x2c>)
 8001478:	5c10      	ldrb	r0, [r2, r0]
 800147a:	1840      	adds	r0, r0, r1
 800147c:	4770      	bx	lr
 800147e:	46c0      	nop			@ (mov r8, r8)
 8001480:	02020304 	.word	0x02020304
 8001484:	01010101 	.word	0x01010101
	...

08001490 <null_ptr_check>:

static int8_t null_ptr_check(const struct bma400_dev *dev)
{
    int8_t rslt;

    if ((dev == NULL) || (dev->read == NULL) || (dev->write == NULL) || (dev->intf_ptr == NULL))
 8001490:	2800      	cmp	r0, #0
 8001492:	d00d      	beq.n	80014b0 <null_ptr_check+0x20>
 8001494:	68c3      	ldr	r3, [r0, #12]
 8001496:	2b00      	cmp	r3, #0
 8001498:	d00d      	beq.n	80014b6 <null_ptr_check+0x26>
 800149a:	6903      	ldr	r3, [r0, #16]
 800149c:	2b00      	cmp	r3, #0
 800149e:	d00d      	beq.n	80014bc <null_ptr_check+0x2c>
 80014a0:	6843      	ldr	r3, [r0, #4]
 80014a2:	2b00      	cmp	r3, #0
 80014a4:	d001      	beq.n	80014aa <null_ptr_check+0x1a>
        rslt = BMA400_E_NULL_PTR;
    }
    else
    {
        /* Device structure is fine */
        rslt = BMA400_OK;
 80014a6:	2000      	movs	r0, #0
    }

    return rslt;
}
 80014a8:	4770      	bx	lr
        rslt = BMA400_E_NULL_PTR;
 80014aa:	2001      	movs	r0, #1
 80014ac:	4240      	negs	r0, r0
 80014ae:	e7fb      	b.n	80014a8 <null_ptr_check+0x18>
 80014b0:	2001      	movs	r0, #1
 80014b2:	4240      	negs	r0, r0
 80014b4:	e7f8      	b.n	80014a8 <null_ptr_check+0x18>
 80014b6:	2001      	movs	r0, #1
 80014b8:	4240      	negs	r0, r0
 80014ba:	e7f5      	b.n	80014a8 <null_ptr_check+0x18>
 80014bc:	2001      	movs	r0, #1
 80014be:	4240      	negs	r0, r0
 80014c0:	e7f2      	b.n	80014a8 <null_ptr_check+0x18>
	...

080014c4 <map_int_pin>:

    return rslt;
}

static void map_int_pin(uint8_t *data_array, uint8_t int_enable, enum bma400_int_chan int_map)
{
 80014c4:	b510      	push	{r4, lr}
    switch (int_enable)
 80014c6:	290b      	cmp	r1, #11
 80014c8:	d812      	bhi.n	80014f0 <map_int_pin+0x2c>
 80014ca:	0089      	lsls	r1, r1, #2
 80014cc:	4bb9      	ldr	r3, [pc, #740]	@ (80017b4 <map_int_pin+0x2f0>)
 80014ce:	585b      	ldr	r3, [r3, r1]
 80014d0:	469f      	mov	pc, r3
    {
        case BMA400_DATA_READY_INT_MAP:
            if (int_map == BMA400_INT_CHANNEL_1)
 80014d2:	2a01      	cmp	r2, #1
 80014d4:	d00d      	beq.n	80014f2 <map_int_pin+0x2e>
            {
                /* Mapping interrupt to INT pin 1*/
                data_array[0] = BMA400_SET_BITS(data_array[0], BMA400_EN_DRDY, BMA400_ENABLE);
            }

            if (int_map == BMA400_INT_CHANNEL_2)
 80014d6:	2a02      	cmp	r2, #2
 80014d8:	d011      	beq.n	80014fe <map_int_pin+0x3a>
            {
                /* Mapping interrupt to INT pin 2*/
                data_array[1] = BMA400_SET_BITS(data_array[1], BMA400_EN_DRDY, BMA400_ENABLE);
            }

            if (int_map == BMA400_UNMAP_INT_PIN)
 80014da:	2a00      	cmp	r2, #0
 80014dc:	d106      	bne.n	80014ec <map_int_pin+0x28>
            {
                data_array[0] = BMA400_SET_BIT_VAL_0(data_array[0], BMA400_EN_DRDY);
 80014de:	7801      	ldrb	r1, [r0, #0]
 80014e0:	237f      	movs	r3, #127	@ 0x7f
 80014e2:	4019      	ands	r1, r3
 80014e4:	7001      	strb	r1, [r0, #0]
                data_array[1] = BMA400_SET_BIT_VAL_0(data_array[1], BMA400_EN_DRDY);
 80014e6:	7841      	ldrb	r1, [r0, #1]
 80014e8:	400b      	ands	r3, r1
 80014ea:	7043      	strb	r3, [r0, #1]
            }

            if (int_map == BMA400_MAP_BOTH_INT_PINS)
 80014ec:	2a03      	cmp	r2, #3
 80014ee:	d00c      	beq.n	800150a <map_int_pin+0x46>

            break;
        default:
            break;
    }
}
 80014f0:	bd10      	pop	{r4, pc}
                data_array[0] = BMA400_SET_BITS(data_array[0], BMA400_EN_DRDY, BMA400_ENABLE);
 80014f2:	7801      	ldrb	r1, [r0, #0]
 80014f4:	2380      	movs	r3, #128	@ 0x80
 80014f6:	425b      	negs	r3, r3
 80014f8:	430b      	orrs	r3, r1
 80014fa:	7003      	strb	r3, [r0, #0]
 80014fc:	e7eb      	b.n	80014d6 <map_int_pin+0x12>
                data_array[1] = BMA400_SET_BITS(data_array[1], BMA400_EN_DRDY, BMA400_ENABLE);
 80014fe:	7841      	ldrb	r1, [r0, #1]
 8001500:	2380      	movs	r3, #128	@ 0x80
 8001502:	425b      	negs	r3, r3
 8001504:	430b      	orrs	r3, r1
 8001506:	7043      	strb	r3, [r0, #1]
 8001508:	e7e7      	b.n	80014da <map_int_pin+0x16>
                data_array[0] = BMA400_SET_BITS(data_array[0], BMA400_EN_DRDY, BMA400_ENABLE);
 800150a:	7802      	ldrb	r2, [r0, #0]
 800150c:	2380      	movs	r3, #128	@ 0x80
 800150e:	425b      	negs	r3, r3
 8001510:	431a      	orrs	r2, r3
 8001512:	7002      	strb	r2, [r0, #0]
                data_array[1] = BMA400_SET_BITS(data_array[1], BMA400_EN_DRDY, BMA400_ENABLE);
 8001514:	7842      	ldrb	r2, [r0, #1]
 8001516:	4313      	orrs	r3, r2
 8001518:	7043      	strb	r3, [r0, #1]
 800151a:	e7e9      	b.n	80014f0 <map_int_pin+0x2c>
            if (int_map == BMA400_INT_CHANNEL_1)
 800151c:	2a01      	cmp	r2, #1
 800151e:	d014      	beq.n	800154a <map_int_pin+0x86>
            if (int_map == BMA400_INT_CHANNEL_2)
 8001520:	2a02      	cmp	r2, #2
 8001522:	d017      	beq.n	8001554 <map_int_pin+0x90>
            if (int_map == BMA400_UNMAP_INT_PIN)
 8001524:	2a00      	cmp	r2, #0
 8001526:	d106      	bne.n	8001536 <map_int_pin+0x72>
                data_array[0] = BMA400_SET_BIT_VAL_0(data_array[0], BMA400_EN_FIFO_WM);
 8001528:	7803      	ldrb	r3, [r0, #0]
 800152a:	2140      	movs	r1, #64	@ 0x40
 800152c:	438b      	bics	r3, r1
 800152e:	7003      	strb	r3, [r0, #0]
                data_array[1] = BMA400_SET_BIT_VAL_0(data_array[1], BMA400_EN_FIFO_WM);
 8001530:	7843      	ldrb	r3, [r0, #1]
 8001532:	438b      	bics	r3, r1
 8001534:	7043      	strb	r3, [r0, #1]
            if (int_map == BMA400_MAP_BOTH_INT_PINS)
 8001536:	2a03      	cmp	r2, #3
 8001538:	d1da      	bne.n	80014f0 <map_int_pin+0x2c>
                data_array[0] = BMA400_SET_BITS(data_array[0], BMA400_EN_FIFO_WM, BMA400_ENABLE);
 800153a:	7803      	ldrb	r3, [r0, #0]
 800153c:	2240      	movs	r2, #64	@ 0x40
 800153e:	4313      	orrs	r3, r2
 8001540:	7003      	strb	r3, [r0, #0]
                data_array[1] = BMA400_SET_BITS(data_array[1], BMA400_EN_FIFO_WM, BMA400_ENABLE);
 8001542:	7843      	ldrb	r3, [r0, #1]
 8001544:	4313      	orrs	r3, r2
 8001546:	7043      	strb	r3, [r0, #1]
 8001548:	e7d2      	b.n	80014f0 <map_int_pin+0x2c>
                data_array[0] = BMA400_SET_BITS(data_array[0], BMA400_EN_FIFO_WM, BMA400_ENABLE);
 800154a:	7803      	ldrb	r3, [r0, #0]
 800154c:	2140      	movs	r1, #64	@ 0x40
 800154e:	430b      	orrs	r3, r1
 8001550:	7003      	strb	r3, [r0, #0]
 8001552:	e7e5      	b.n	8001520 <map_int_pin+0x5c>
                data_array[1] = BMA400_SET_BITS(data_array[1], BMA400_EN_FIFO_WM, BMA400_ENABLE);
 8001554:	7843      	ldrb	r3, [r0, #1]
 8001556:	2140      	movs	r1, #64	@ 0x40
 8001558:	430b      	orrs	r3, r1
 800155a:	7043      	strb	r3, [r0, #1]
 800155c:	e7e2      	b.n	8001524 <map_int_pin+0x60>
            if (int_map == BMA400_INT_CHANNEL_1)
 800155e:	2a01      	cmp	r2, #1
 8001560:	d014      	beq.n	800158c <map_int_pin+0xc8>
            if (int_map == BMA400_INT_CHANNEL_2)
 8001562:	2a02      	cmp	r2, #2
 8001564:	d017      	beq.n	8001596 <map_int_pin+0xd2>
            if (int_map == BMA400_UNMAP_INT_PIN)
 8001566:	2a00      	cmp	r2, #0
 8001568:	d106      	bne.n	8001578 <map_int_pin+0xb4>
                data_array[0] = BMA400_SET_BIT_VAL_0(data_array[0], BMA400_EN_FIFO_FULL);
 800156a:	7803      	ldrb	r3, [r0, #0]
 800156c:	2120      	movs	r1, #32
 800156e:	438b      	bics	r3, r1
 8001570:	7003      	strb	r3, [r0, #0]
                data_array[1] = BMA400_SET_BIT_VAL_0(data_array[1], BMA400_EN_FIFO_FULL);
 8001572:	7843      	ldrb	r3, [r0, #1]
 8001574:	438b      	bics	r3, r1
 8001576:	7043      	strb	r3, [r0, #1]
            if (int_map == BMA400_MAP_BOTH_INT_PINS)
 8001578:	2a03      	cmp	r2, #3
 800157a:	d1b9      	bne.n	80014f0 <map_int_pin+0x2c>
                data_array[0] = BMA400_SET_BITS(data_array[0], BMA400_EN_FIFO_FULL, BMA400_ENABLE);
 800157c:	7803      	ldrb	r3, [r0, #0]
 800157e:	2220      	movs	r2, #32
 8001580:	4313      	orrs	r3, r2
 8001582:	7003      	strb	r3, [r0, #0]
                data_array[1] = BMA400_SET_BITS(data_array[1], BMA400_EN_FIFO_FULL, BMA400_ENABLE);
 8001584:	7843      	ldrb	r3, [r0, #1]
 8001586:	4313      	orrs	r3, r2
 8001588:	7043      	strb	r3, [r0, #1]
 800158a:	e7b1      	b.n	80014f0 <map_int_pin+0x2c>
                data_array[0] = BMA400_SET_BITS(data_array[0], BMA400_EN_FIFO_FULL, BMA400_ENABLE);
 800158c:	7803      	ldrb	r3, [r0, #0]
 800158e:	2120      	movs	r1, #32
 8001590:	430b      	orrs	r3, r1
 8001592:	7003      	strb	r3, [r0, #0]
 8001594:	e7e5      	b.n	8001562 <map_int_pin+0x9e>
                data_array[1] = BMA400_SET_BITS(data_array[1], BMA400_EN_FIFO_FULL, BMA400_ENABLE);
 8001596:	7843      	ldrb	r3, [r0, #1]
 8001598:	2120      	movs	r1, #32
 800159a:	430b      	orrs	r3, r1
 800159c:	7043      	strb	r3, [r0, #1]
 800159e:	e7e2      	b.n	8001566 <map_int_pin+0xa2>
            if (int_map == BMA400_INT_CHANNEL_1)
 80015a0:	2a01      	cmp	r2, #1
 80015a2:	d014      	beq.n	80015ce <map_int_pin+0x10a>
            if (int_map == BMA400_INT_CHANNEL_2)
 80015a4:	2a02      	cmp	r2, #2
 80015a6:	d017      	beq.n	80015d8 <map_int_pin+0x114>
            if (int_map == BMA400_UNMAP_INT_PIN)
 80015a8:	2a00      	cmp	r2, #0
 80015aa:	d106      	bne.n	80015ba <map_int_pin+0xf6>
                data_array[0] = BMA400_SET_BIT_VAL_0(data_array[0], BMA400_EN_INT_OVERRUN);
 80015ac:	7803      	ldrb	r3, [r0, #0]
 80015ae:	2110      	movs	r1, #16
 80015b0:	438b      	bics	r3, r1
 80015b2:	7003      	strb	r3, [r0, #0]
                data_array[1] = BMA400_SET_BIT_VAL_0(data_array[1], BMA400_EN_INT_OVERRUN);
 80015b4:	7843      	ldrb	r3, [r0, #1]
 80015b6:	438b      	bics	r3, r1
 80015b8:	7043      	strb	r3, [r0, #1]
            if (int_map == BMA400_MAP_BOTH_INT_PINS)
 80015ba:	2a03      	cmp	r2, #3
 80015bc:	d198      	bne.n	80014f0 <map_int_pin+0x2c>
                data_array[0] = BMA400_SET_BITS(data_array[0], BMA400_EN_INT_OVERRUN, BMA400_ENABLE);
 80015be:	7803      	ldrb	r3, [r0, #0]
 80015c0:	2210      	movs	r2, #16
 80015c2:	4313      	orrs	r3, r2
 80015c4:	7003      	strb	r3, [r0, #0]
                data_array[1] = BMA400_SET_BITS(data_array[1], BMA400_EN_INT_OVERRUN, BMA400_ENABLE);
 80015c6:	7843      	ldrb	r3, [r0, #1]
 80015c8:	4313      	orrs	r3, r2
 80015ca:	7043      	strb	r3, [r0, #1]
 80015cc:	e790      	b.n	80014f0 <map_int_pin+0x2c>
                data_array[0] = BMA400_SET_BITS(data_array[0], BMA400_EN_INT_OVERRUN, BMA400_ENABLE);
 80015ce:	7803      	ldrb	r3, [r0, #0]
 80015d0:	2110      	movs	r1, #16
 80015d2:	430b      	orrs	r3, r1
 80015d4:	7003      	strb	r3, [r0, #0]
 80015d6:	e7e5      	b.n	80015a4 <map_int_pin+0xe0>
                data_array[1] = BMA400_SET_BITS(data_array[1], BMA400_EN_INT_OVERRUN, BMA400_ENABLE);
 80015d8:	7843      	ldrb	r3, [r0, #1]
 80015da:	2110      	movs	r1, #16
 80015dc:	430b      	orrs	r3, r1
 80015de:	7043      	strb	r3, [r0, #1]
 80015e0:	e7e2      	b.n	80015a8 <map_int_pin+0xe4>
            if (int_map == BMA400_INT_CHANNEL_1)
 80015e2:	2a01      	cmp	r2, #1
 80015e4:	d015      	beq.n	8001612 <map_int_pin+0x14e>
            if (int_map == BMA400_INT_CHANNEL_2)
 80015e6:	2a02      	cmp	r2, #2
 80015e8:	d018      	beq.n	800161c <map_int_pin+0x158>
            if (int_map == BMA400_UNMAP_INT_PIN)
 80015ea:	2a00      	cmp	r2, #0
 80015ec:	d106      	bne.n	80015fc <map_int_pin+0x138>
                data_array[0] = BMA400_SET_BIT_VAL_0(data_array[0], BMA400_EN_GEN2);
 80015ee:	7803      	ldrb	r3, [r0, #0]
 80015f0:	2108      	movs	r1, #8
 80015f2:	438b      	bics	r3, r1
 80015f4:	7003      	strb	r3, [r0, #0]
                data_array[1] = BMA400_SET_BIT_VAL_0(data_array[1], BMA400_EN_GEN2);
 80015f6:	7843      	ldrb	r3, [r0, #1]
 80015f8:	438b      	bics	r3, r1
 80015fa:	7043      	strb	r3, [r0, #1]
            if (int_map == BMA400_MAP_BOTH_INT_PINS)
 80015fc:	2a03      	cmp	r2, #3
 80015fe:	d000      	beq.n	8001602 <map_int_pin+0x13e>
 8001600:	e776      	b.n	80014f0 <map_int_pin+0x2c>
                data_array[0] = BMA400_SET_BITS(data_array[0], BMA400_EN_GEN2, BMA400_ENABLE);
 8001602:	7803      	ldrb	r3, [r0, #0]
 8001604:	2208      	movs	r2, #8
 8001606:	4313      	orrs	r3, r2
 8001608:	7003      	strb	r3, [r0, #0]
                data_array[1] = BMA400_SET_BITS(data_array[1], BMA400_EN_GEN2, BMA400_ENABLE);
 800160a:	7843      	ldrb	r3, [r0, #1]
 800160c:	4313      	orrs	r3, r2
 800160e:	7043      	strb	r3, [r0, #1]
 8001610:	e76e      	b.n	80014f0 <map_int_pin+0x2c>
                data_array[0] = BMA400_SET_BITS(data_array[0], BMA400_EN_GEN2, BMA400_ENABLE);
 8001612:	7803      	ldrb	r3, [r0, #0]
 8001614:	2108      	movs	r1, #8
 8001616:	430b      	orrs	r3, r1
 8001618:	7003      	strb	r3, [r0, #0]
 800161a:	e7e4      	b.n	80015e6 <map_int_pin+0x122>
                data_array[1] = BMA400_SET_BITS(data_array[1], BMA400_EN_GEN2, BMA400_ENABLE);
 800161c:	7843      	ldrb	r3, [r0, #1]
 800161e:	2108      	movs	r1, #8
 8001620:	430b      	orrs	r3, r1
 8001622:	7043      	strb	r3, [r0, #1]
 8001624:	e7e1      	b.n	80015ea <map_int_pin+0x126>
            if (int_map == BMA400_INT_CHANNEL_1)
 8001626:	2a01      	cmp	r2, #1
 8001628:	d015      	beq.n	8001656 <map_int_pin+0x192>
            if (int_map == BMA400_INT_CHANNEL_2)
 800162a:	2a02      	cmp	r2, #2
 800162c:	d018      	beq.n	8001660 <map_int_pin+0x19c>
            if (int_map == BMA400_UNMAP_INT_PIN)
 800162e:	2a00      	cmp	r2, #0
 8001630:	d106      	bne.n	8001640 <map_int_pin+0x17c>
                data_array[0] = BMA400_SET_BIT_VAL_0(data_array[0], BMA400_EN_GEN1);
 8001632:	7803      	ldrb	r3, [r0, #0]
 8001634:	2104      	movs	r1, #4
 8001636:	438b      	bics	r3, r1
 8001638:	7003      	strb	r3, [r0, #0]
                data_array[1] = BMA400_SET_BIT_VAL_0(data_array[1], BMA400_EN_GEN1);
 800163a:	7843      	ldrb	r3, [r0, #1]
 800163c:	438b      	bics	r3, r1
 800163e:	7043      	strb	r3, [r0, #1]
            if (int_map == BMA400_MAP_BOTH_INT_PINS)
 8001640:	2a03      	cmp	r2, #3
 8001642:	d000      	beq.n	8001646 <map_int_pin+0x182>
 8001644:	e754      	b.n	80014f0 <map_int_pin+0x2c>
                data_array[0] = BMA400_SET_BITS(data_array[0], BMA400_EN_GEN1, BMA400_ENABLE);
 8001646:	7803      	ldrb	r3, [r0, #0]
 8001648:	2204      	movs	r2, #4
 800164a:	4313      	orrs	r3, r2
 800164c:	7003      	strb	r3, [r0, #0]
                data_array[1] = BMA400_SET_BITS(data_array[1], BMA400_EN_GEN1, BMA400_ENABLE);
 800164e:	7843      	ldrb	r3, [r0, #1]
 8001650:	4313      	orrs	r3, r2
 8001652:	7043      	strb	r3, [r0, #1]
 8001654:	e74c      	b.n	80014f0 <map_int_pin+0x2c>
                data_array[0] = BMA400_SET_BITS(data_array[0], BMA400_EN_GEN1, BMA400_ENABLE);
 8001656:	7803      	ldrb	r3, [r0, #0]
 8001658:	2104      	movs	r1, #4
 800165a:	430b      	orrs	r3, r1
 800165c:	7003      	strb	r3, [r0, #0]
 800165e:	e7e4      	b.n	800162a <map_int_pin+0x166>
                data_array[1] = BMA400_SET_BITS(data_array[1], BMA400_EN_GEN1, BMA400_ENABLE);
 8001660:	7843      	ldrb	r3, [r0, #1]
 8001662:	2104      	movs	r1, #4
 8001664:	430b      	orrs	r3, r1
 8001666:	7043      	strb	r3, [r0, #1]
 8001668:	e7e1      	b.n	800162e <map_int_pin+0x16a>
            if (int_map == BMA400_INT_CHANNEL_1)
 800166a:	2a01      	cmp	r2, #1
 800166c:	d015      	beq.n	800169a <map_int_pin+0x1d6>
            if (int_map == BMA400_INT_CHANNEL_2)
 800166e:	2a02      	cmp	r2, #2
 8001670:	d018      	beq.n	80016a4 <map_int_pin+0x1e0>
            if (int_map == BMA400_UNMAP_INT_PIN)
 8001672:	2a00      	cmp	r2, #0
 8001674:	d106      	bne.n	8001684 <map_int_pin+0x1c0>
                data_array[0] = BMA400_SET_BIT_VAL_0(data_array[0], BMA400_EN_ORIENT_CH);
 8001676:	7803      	ldrb	r3, [r0, #0]
 8001678:	2102      	movs	r1, #2
 800167a:	438b      	bics	r3, r1
 800167c:	7003      	strb	r3, [r0, #0]
                data_array[1] = BMA400_SET_BIT_VAL_0(data_array[1], BMA400_EN_ORIENT_CH);
 800167e:	7843      	ldrb	r3, [r0, #1]
 8001680:	438b      	bics	r3, r1
 8001682:	7043      	strb	r3, [r0, #1]
            if (int_map == BMA400_MAP_BOTH_INT_PINS)
 8001684:	2a03      	cmp	r2, #3
 8001686:	d000      	beq.n	800168a <map_int_pin+0x1c6>
 8001688:	e732      	b.n	80014f0 <map_int_pin+0x2c>
                data_array[0] = BMA400_SET_BITS(data_array[0], BMA400_EN_ORIENT_CH, BMA400_ENABLE);
 800168a:	7803      	ldrb	r3, [r0, #0]
 800168c:	2202      	movs	r2, #2
 800168e:	4313      	orrs	r3, r2
 8001690:	7003      	strb	r3, [r0, #0]
                data_array[1] = BMA400_SET_BITS(data_array[1], BMA400_EN_ORIENT_CH, BMA400_ENABLE);
 8001692:	7843      	ldrb	r3, [r0, #1]
 8001694:	4313      	orrs	r3, r2
 8001696:	7043      	strb	r3, [r0, #1]
 8001698:	e72a      	b.n	80014f0 <map_int_pin+0x2c>
                data_array[0] = BMA400_SET_BITS(data_array[0], BMA400_EN_ORIENT_CH, BMA400_ENABLE);
 800169a:	7803      	ldrb	r3, [r0, #0]
 800169c:	2102      	movs	r1, #2
 800169e:	430b      	orrs	r3, r1
 80016a0:	7003      	strb	r3, [r0, #0]
 80016a2:	e7e4      	b.n	800166e <map_int_pin+0x1aa>
                data_array[1] = BMA400_SET_BITS(data_array[1], BMA400_EN_ORIENT_CH, BMA400_ENABLE);
 80016a4:	7843      	ldrb	r3, [r0, #1]
 80016a6:	2102      	movs	r1, #2
 80016a8:	430b      	orrs	r3, r1
 80016aa:	7043      	strb	r3, [r0, #1]
 80016ac:	e7e1      	b.n	8001672 <map_int_pin+0x1ae>
            if (int_map == BMA400_INT_CHANNEL_1)
 80016ae:	2a01      	cmp	r2, #1
 80016b0:	d015      	beq.n	80016de <map_int_pin+0x21a>
            if (int_map == BMA400_INT_CHANNEL_2)
 80016b2:	2a02      	cmp	r2, #2
 80016b4:	d018      	beq.n	80016e8 <map_int_pin+0x224>
            if (int_map == BMA400_UNMAP_INT_PIN)
 80016b6:	2a00      	cmp	r2, #0
 80016b8:	d106      	bne.n	80016c8 <map_int_pin+0x204>
                data_array[0] = BMA400_SET_BIT_VAL_0(data_array[0], BMA400_EN_WAKEUP_INT);
 80016ba:	7803      	ldrb	r3, [r0, #0]
 80016bc:	2101      	movs	r1, #1
 80016be:	438b      	bics	r3, r1
 80016c0:	7003      	strb	r3, [r0, #0]
                data_array[1] = BMA400_SET_BIT_VAL_0(data_array[1], BMA400_EN_WAKEUP_INT);
 80016c2:	7843      	ldrb	r3, [r0, #1]
 80016c4:	438b      	bics	r3, r1
 80016c6:	7043      	strb	r3, [r0, #1]
            if (int_map == BMA400_MAP_BOTH_INT_PINS)
 80016c8:	2a03      	cmp	r2, #3
 80016ca:	d000      	beq.n	80016ce <map_int_pin+0x20a>
 80016cc:	e710      	b.n	80014f0 <map_int_pin+0x2c>
                data_array[0] = BMA400_SET_BITS_POS_0(data_array[0], BMA400_EN_WAKEUP_INT, BMA400_ENABLE);
 80016ce:	7803      	ldrb	r3, [r0, #0]
 80016d0:	2201      	movs	r2, #1
 80016d2:	4313      	orrs	r3, r2
 80016d4:	7003      	strb	r3, [r0, #0]
                data_array[1] = BMA400_SET_BITS_POS_0(data_array[1], BMA400_EN_WAKEUP_INT, BMA400_ENABLE);
 80016d6:	7843      	ldrb	r3, [r0, #1]
 80016d8:	4313      	orrs	r3, r2
 80016da:	7043      	strb	r3, [r0, #1]
 80016dc:	e708      	b.n	80014f0 <map_int_pin+0x2c>
                data_array[0] = BMA400_SET_BITS_POS_0(data_array[0], BMA400_EN_WAKEUP_INT, BMA400_ENABLE);
 80016de:	7803      	ldrb	r3, [r0, #0]
 80016e0:	2101      	movs	r1, #1
 80016e2:	430b      	orrs	r3, r1
 80016e4:	7003      	strb	r3, [r0, #0]
 80016e6:	e7e4      	b.n	80016b2 <map_int_pin+0x1ee>
                data_array[1] = BMA400_SET_BITS_POS_0(data_array[1], BMA400_EN_WAKEUP_INT, BMA400_ENABLE);
 80016e8:	7843      	ldrb	r3, [r0, #1]
 80016ea:	2101      	movs	r1, #1
 80016ec:	430b      	orrs	r3, r1
 80016ee:	7043      	strb	r3, [r0, #1]
 80016f0:	e7e1      	b.n	80016b6 <map_int_pin+0x1f2>
            if (int_map == BMA400_INT_CHANNEL_1)
 80016f2:	2a01      	cmp	r2, #1
 80016f4:	d017      	beq.n	8001726 <map_int_pin+0x262>
            if (int_map == BMA400_INT_CHANNEL_2)
 80016f6:	2a02      	cmp	r2, #2
 80016f8:	d01a      	beq.n	8001730 <map_int_pin+0x26c>
            if (int_map == BMA400_UNMAP_INT_PIN)
 80016fa:	2a00      	cmp	r2, #0
 80016fc:	d107      	bne.n	800170e <map_int_pin+0x24a>
                data_array[2] = BMA400_SET_BIT_VAL_0(data_array[2], BMA400_ACTCH_MAP_INT1);
 80016fe:	7881      	ldrb	r1, [r0, #2]
 8001700:	2308      	movs	r3, #8
 8001702:	000c      	movs	r4, r1
 8001704:	439c      	bics	r4, r3
 8001706:	7084      	strb	r4, [r0, #2]
                data_array[2] = BMA400_SET_BIT_VAL_0(data_array[2], BMA400_ACTCH_MAP_INT2);
 8001708:	2377      	movs	r3, #119	@ 0x77
 800170a:	400b      	ands	r3, r1
 800170c:	7083      	strb	r3, [r0, #2]
            if (int_map == BMA400_MAP_BOTH_INT_PINS)
 800170e:	2a03      	cmp	r2, #3
 8001710:	d000      	beq.n	8001714 <map_int_pin+0x250>
 8001712:	e6ed      	b.n	80014f0 <map_int_pin+0x2c>
                data_array[2] = BMA400_SET_BITS(data_array[2], BMA400_ACTCH_MAP_INT1, BMA400_ENABLE);
 8001714:	7882      	ldrb	r2, [r0, #2]
 8001716:	2308      	movs	r3, #8
 8001718:	4313      	orrs	r3, r2
 800171a:	7083      	strb	r3, [r0, #2]
                data_array[2] = BMA400_SET_BITS(data_array[2], BMA400_ACTCH_MAP_INT2, BMA400_ENABLE);
 800171c:	2378      	movs	r3, #120	@ 0x78
 800171e:	425b      	negs	r3, r3
 8001720:	4313      	orrs	r3, r2
 8001722:	7083      	strb	r3, [r0, #2]
 8001724:	e6e4      	b.n	80014f0 <map_int_pin+0x2c>
                data_array[2] = BMA400_SET_BITS(data_array[2], BMA400_ACTCH_MAP_INT1, BMA400_ENABLE);
 8001726:	7883      	ldrb	r3, [r0, #2]
 8001728:	2108      	movs	r1, #8
 800172a:	430b      	orrs	r3, r1
 800172c:	7083      	strb	r3, [r0, #2]
 800172e:	e7e2      	b.n	80016f6 <map_int_pin+0x232>
                data_array[2] = BMA400_SET_BITS(data_array[2], BMA400_ACTCH_MAP_INT2, BMA400_ENABLE);
 8001730:	7881      	ldrb	r1, [r0, #2]
 8001732:	2380      	movs	r3, #128	@ 0x80
 8001734:	425b      	negs	r3, r3
 8001736:	430b      	orrs	r3, r1
 8001738:	7083      	strb	r3, [r0, #2]
 800173a:	e7de      	b.n	80016fa <map_int_pin+0x236>
            if (int_map == BMA400_INT_CHANNEL_1)
 800173c:	2a01      	cmp	r2, #1
 800173e:	d016      	beq.n	800176e <map_int_pin+0x2aa>
            if (int_map == BMA400_INT_CHANNEL_2)
 8001740:	2a02      	cmp	r2, #2
 8001742:	d019      	beq.n	8001778 <map_int_pin+0x2b4>
            if (int_map == BMA400_UNMAP_INT_PIN)
 8001744:	2a00      	cmp	r2, #0
 8001746:	d107      	bne.n	8001758 <map_int_pin+0x294>
                data_array[2] = BMA400_SET_BIT_VAL_0(data_array[2], BMA400_TAP_MAP_INT1);
 8001748:	7883      	ldrb	r3, [r0, #2]
 800174a:	2104      	movs	r1, #4
 800174c:	001c      	movs	r4, r3
 800174e:	438c      	bics	r4, r1
 8001750:	7084      	strb	r4, [r0, #2]
                data_array[2] = BMA400_SET_BIT_VAL_0(data_array[2], BMA400_TAP_MAP_INT2);
 8001752:	2144      	movs	r1, #68	@ 0x44
 8001754:	438b      	bics	r3, r1
 8001756:	7083      	strb	r3, [r0, #2]
            if (int_map == BMA400_MAP_BOTH_INT_PINS)
 8001758:	2a03      	cmp	r2, #3
 800175a:	d000      	beq.n	800175e <map_int_pin+0x29a>
 800175c:	e6c8      	b.n	80014f0 <map_int_pin+0x2c>
                data_array[2] = BMA400_SET_BITS(data_array[2], BMA400_TAP_MAP_INT1, BMA400_ENABLE);
 800175e:	7883      	ldrb	r3, [r0, #2]
 8001760:	2204      	movs	r2, #4
 8001762:	431a      	orrs	r2, r3
 8001764:	7082      	strb	r2, [r0, #2]
                data_array[2] = BMA400_SET_BITS(data_array[2], BMA400_TAP_MAP_INT2, BMA400_ENABLE);
 8001766:	2244      	movs	r2, #68	@ 0x44
 8001768:	4313      	orrs	r3, r2
 800176a:	7083      	strb	r3, [r0, #2]
 800176c:	e6c0      	b.n	80014f0 <map_int_pin+0x2c>
                data_array[2] = BMA400_SET_BITS(data_array[2], BMA400_TAP_MAP_INT1, BMA400_ENABLE);
 800176e:	7883      	ldrb	r3, [r0, #2]
 8001770:	2104      	movs	r1, #4
 8001772:	430b      	orrs	r3, r1
 8001774:	7083      	strb	r3, [r0, #2]
 8001776:	e7e3      	b.n	8001740 <map_int_pin+0x27c>
                data_array[2] = BMA400_SET_BITS(data_array[2], BMA400_TAP_MAP_INT2, BMA400_ENABLE);
 8001778:	7883      	ldrb	r3, [r0, #2]
 800177a:	2140      	movs	r1, #64	@ 0x40
 800177c:	430b      	orrs	r3, r1
 800177e:	7083      	strb	r3, [r0, #2]
 8001780:	e7e0      	b.n	8001744 <map_int_pin+0x280>
            if (int_map == BMA400_INT_CHANNEL_1)
 8001782:	2a01      	cmp	r2, #1
 8001784:	d018      	beq.n	80017b8 <map_int_pin+0x2f4>
            if (int_map == BMA400_INT_CHANNEL_2)
 8001786:	2a02      	cmp	r2, #2
 8001788:	d01b      	beq.n	80017c2 <map_int_pin+0x2fe>
            if (int_map == BMA400_UNMAP_INT_PIN)
 800178a:	2a00      	cmp	r2, #0
 800178c:	d107      	bne.n	800179e <map_int_pin+0x2da>
                data_array[2] = BMA400_SET_BIT_VAL_0(data_array[2], BMA400_EN_STEP_INT);
 800178e:	7883      	ldrb	r3, [r0, #2]
 8001790:	2101      	movs	r1, #1
 8001792:	001c      	movs	r4, r3
 8001794:	438c      	bics	r4, r1
 8001796:	7084      	strb	r4, [r0, #2]
                data_array[2] = BMA400_SET_BIT_VAL_0(data_array[2], BMA400_STEP_MAP_INT2);
 8001798:	2111      	movs	r1, #17
 800179a:	438b      	bics	r3, r1
 800179c:	7083      	strb	r3, [r0, #2]
            if (int_map == BMA400_MAP_BOTH_INT_PINS)
 800179e:	2a03      	cmp	r2, #3
 80017a0:	d000      	beq.n	80017a4 <map_int_pin+0x2e0>
 80017a2:	e6a5      	b.n	80014f0 <map_int_pin+0x2c>
                data_array[2] = BMA400_SET_BITS_POS_0(data_array[2], BMA400_EN_STEP_INT, BMA400_ENABLE);
 80017a4:	7883      	ldrb	r3, [r0, #2]
 80017a6:	2201      	movs	r2, #1
 80017a8:	431a      	orrs	r2, r3
 80017aa:	7082      	strb	r2, [r0, #2]
                data_array[2] = BMA400_SET_BITS(data_array[2], BMA400_STEP_MAP_INT2, BMA400_ENABLE);
 80017ac:	2211      	movs	r2, #17
 80017ae:	4313      	orrs	r3, r2
 80017b0:	7083      	strb	r3, [r0, #2]
}
 80017b2:	e69d      	b.n	80014f0 <map_int_pin+0x2c>
 80017b4:	08005a28 	.word	0x08005a28
                data_array[2] = BMA400_SET_BITS_POS_0(data_array[2], BMA400_EN_STEP_INT, BMA400_ENABLE);
 80017b8:	7883      	ldrb	r3, [r0, #2]
 80017ba:	2101      	movs	r1, #1
 80017bc:	430b      	orrs	r3, r1
 80017be:	7083      	strb	r3, [r0, #2]
 80017c0:	e7e1      	b.n	8001786 <map_int_pin+0x2c2>
                data_array[2] = BMA400_SET_BITS(data_array[2], BMA400_STEP_MAP_INT2, BMA400_ENABLE);
 80017c2:	7883      	ldrb	r3, [r0, #2]
 80017c4:	2110      	movs	r1, #16
 80017c6:	430b      	orrs	r3, r1
 80017c8:	7083      	strb	r3, [r0, #2]
 80017ca:	e7de      	b.n	800178a <map_int_pin+0x2c6>

080017cc <bma400_set_regs>:
{
 80017cc:	b5f0      	push	{r4, r5, r6, r7, lr}
 80017ce:	46d6      	mov	lr, sl
 80017d0:	464f      	mov	r7, r9
 80017d2:	4646      	mov	r6, r8
 80017d4:	b5c0      	push	{r6, r7, lr}
 80017d6:	0005      	movs	r5, r0
 80017d8:	4689      	mov	r9, r1
 80017da:	4690      	mov	r8, r2
 80017dc:	001e      	movs	r6, r3
    rslt = null_ptr_check(dev);
 80017de:	0018      	movs	r0, r3
 80017e0:	f7ff fe56 	bl	8001490 <null_ptr_check>
 80017e4:	1e07      	subs	r7, r0, #0
    if ((rslt == BMA400_OK) && (reg_data != NULL))
 80017e6:	d12b      	bne.n	8001840 <bma400_set_regs+0x74>
 80017e8:	464b      	mov	r3, r9
 80017ea:	2b00      	cmp	r3, #0
 80017ec:	d030      	beq.n	8001850 <bma400_set_regs+0x84>
        if (len == 1)
 80017ee:	4643      	mov	r3, r8
 80017f0:	2b01      	cmp	r3, #1
 80017f2:	d004      	beq.n	80017fe <bma400_set_regs+0x32>
        if (len > 1)
 80017f4:	4643      	mov	r3, r8
 80017f6:	2b01      	cmp	r3, #1
 80017f8:	d924      	bls.n	8001844 <bma400_set_regs+0x78>
            for (count = 0; (count < len) && (rslt == BMA400_OK); count++)
 80017fa:	2400      	movs	r4, #0
 80017fc:	e00c      	b.n	8001818 <bma400_set_regs+0x4c>
            dev->intf_rslt = dev->write(reg_addr, reg_data, len, dev->intf_ptr);
 80017fe:	6934      	ldr	r4, [r6, #16]
 8001800:	6873      	ldr	r3, [r6, #4]
 8001802:	4642      	mov	r2, r8
 8001804:	4649      	mov	r1, r9
 8001806:	0028      	movs	r0, r5
 8001808:	47a0      	blx	r4
 800180a:	7730      	strb	r0, [r6, #28]
            if (dev->intf_rslt != BMA400_INTF_RET_SUCCESS)
 800180c:	2800      	cmp	r0, #0
 800180e:	d0f1      	beq.n	80017f4 <bma400_set_regs+0x28>
                rslt = BMA400_E_COM_FAIL;
 8001810:	3f02      	subs	r7, #2
 8001812:	e7ef      	b.n	80017f4 <bma400_set_regs+0x28>
            for (count = 0; (count < len) && (rslt == BMA400_OK); count++)
 8001814:	3401      	adds	r4, #1
 8001816:	b2e4      	uxtb	r4, r4
 8001818:	0021      	movs	r1, r4
 800181a:	4544      	cmp	r4, r8
 800181c:	d212      	bcs.n	8001844 <bma400_set_regs+0x78>
 800181e:	2f00      	cmp	r7, #0
 8001820:	d110      	bne.n	8001844 <bma400_set_regs+0x78>
                dev->intf_rslt = dev->write(reg_addr, &reg_data[count], 1, dev->intf_ptr);
 8001822:	6933      	ldr	r3, [r6, #16]
 8001824:	469a      	mov	sl, r3
 8001826:	6873      	ldr	r3, [r6, #4]
 8001828:	4449      	add	r1, r9
 800182a:	2201      	movs	r2, #1
 800182c:	0028      	movs	r0, r5
 800182e:	47d0      	blx	sl
 8001830:	7730      	strb	r0, [r6, #28]
                reg_addr++;
 8001832:	3501      	adds	r5, #1
 8001834:	b2ed      	uxtb	r5, r5
                if (dev->intf_rslt != BMA400_INTF_RET_SUCCESS)
 8001836:	2800      	cmp	r0, #0
 8001838:	d0ec      	beq.n	8001814 <bma400_set_regs+0x48>
                    rslt = BMA400_E_COM_FAIL;
 800183a:	2702      	movs	r7, #2
 800183c:	427f      	negs	r7, r7
 800183e:	e7e9      	b.n	8001814 <bma400_set_regs+0x48>
        rslt = BMA400_E_NULL_PTR;
 8001840:	2701      	movs	r7, #1
 8001842:	427f      	negs	r7, r7
}
 8001844:	0038      	movs	r0, r7
 8001846:	bce0      	pop	{r5, r6, r7}
 8001848:	46ba      	mov	sl, r7
 800184a:	46b1      	mov	r9, r6
 800184c:	46a8      	mov	r8, r5
 800184e:	bdf0      	pop	{r4, r5, r6, r7, pc}
        rslt = BMA400_E_NULL_PTR;
 8001850:	2701      	movs	r7, #1
 8001852:	427f      	negs	r7, r7
 8001854:	e7f6      	b.n	8001844 <bma400_set_regs+0x78>

08001856 <set_activity_change_conf>:
{
 8001856:	b530      	push	{r4, r5, lr}
 8001858:	b083      	sub	sp, #12
 800185a:	000b      	movs	r3, r1
    uint8_t data_array[2] = { 0 };
 800185c:	a901      	add	r1, sp, #4
 800185e:	2200      	movs	r2, #0
 8001860:	800a      	strh	r2, [r1, #0]
    data_array[0] = act_ch_set->act_ch_thres;
 8001862:	7802      	ldrb	r2, [r0, #0]
 8001864:	700a      	strb	r2, [r1, #0]
    data_array[1] = BMA400_SET_BITS(data_array[1], BMA400_ACT_CH_AXES_EN, act_ch_set->axes_sel);
 8001866:	7842      	ldrb	r2, [r0, #1]
 8001868:	0152      	lsls	r2, r2, #5
 800186a:	b2d2      	uxtb	r2, r2
 800186c:	704a      	strb	r2, [r1, #1]
    data_array[1] = BMA400_SET_BITS(data_array[1], BMA400_ACT_CH_DATA_SRC, act_ch_set->data_source);
 800186e:	7885      	ldrb	r5, [r0, #2]
 8001870:	012d      	lsls	r5, r5, #4
 8001872:	2410      	movs	r4, #16
 8001874:	402c      	ands	r4, r5
 8001876:	4322      	orrs	r2, r4
 8001878:	704a      	strb	r2, [r1, #1]
    data_array[1] = BMA400_SET_BITS_POS_0(data_array[1], BMA400_ACT_CH_NPTS, act_ch_set->act_ch_ntps);
 800187a:	78c4      	ldrb	r4, [r0, #3]
 800187c:	200f      	movs	r0, #15
 800187e:	4020      	ands	r0, r4
 8001880:	4302      	orrs	r2, r0
 8001882:	704a      	strb	r2, [r1, #1]
    rslt = bma400_set_regs(BMA400_REG_ACT_CH_CONFIG_0, data_array, 2, dev);
 8001884:	2202      	movs	r2, #2
 8001886:	2055      	movs	r0, #85	@ 0x55
 8001888:	f7ff ffa0 	bl	80017cc <bma400_set_regs>
}
 800188c:	b003      	add	sp, #12
 800188e:	bd30      	pop	{r4, r5, pc}

08001890 <set_gen1_int>:
{
 8001890:	b570      	push	{r4, r5, r6, lr}
 8001892:	b084      	sub	sp, #16
 8001894:	0005      	movs	r5, r0
 8001896:	000e      	movs	r6, r1
    uint8_t data_array[11] = { 0 };
 8001898:	ac01      	add	r4, sp, #4
 800189a:	220b      	movs	r2, #11
 800189c:	2100      	movs	r1, #0
 800189e:	0020      	movs	r0, r4
 80018a0:	f002 ff3c 	bl	800471c <memset>
    data_array[0] = BMA400_SET_BITS(data_array[0], BMA400_INT_AXES_EN, gen_int_set->axes_sel);
 80018a4:	792a      	ldrb	r2, [r5, #4]
 80018a6:	0152      	lsls	r2, r2, #5
 80018a8:	b2d2      	uxtb	r2, r2
 80018aa:	7022      	strb	r2, [r4, #0]
    data_array[0] = BMA400_SET_BITS(data_array[0], BMA400_INT_DATA_SRC, gen_int_set->data_src);
 80018ac:	7969      	ldrb	r1, [r5, #5]
 80018ae:	0109      	lsls	r1, r1, #4
 80018b0:	2310      	movs	r3, #16
 80018b2:	400b      	ands	r3, r1
 80018b4:	431a      	orrs	r2, r3
 80018b6:	7022      	strb	r2, [r4, #0]
    data_array[0] = BMA400_SET_BITS(data_array[0], BMA400_INT_REFU, gen_int_set->ref_update);
 80018b8:	7a29      	ldrb	r1, [r5, #8]
 80018ba:	0088      	lsls	r0, r1, #2
 80018bc:	230c      	movs	r3, #12
 80018be:	4003      	ands	r3, r0
 80018c0:	431a      	orrs	r2, r3
 80018c2:	7022      	strb	r2, [r4, #0]
    data_array[0] = BMA400_SET_BITS_POS_0(data_array[0], BMA400_INT_HYST, gen_int_set->hysteresis);
 80018c4:	7a68      	ldrb	r0, [r5, #9]
 80018c6:	2303      	movs	r3, #3
 80018c8:	4003      	ands	r3, r0
 80018ca:	431a      	orrs	r2, r3
 80018cc:	7022      	strb	r2, [r4, #0]
    data_array[1] = BMA400_SET_BITS(data_array[1], BMA400_GEN_INT_CRITERION, gen_int_set->criterion_sel);
 80018ce:	79aa      	ldrb	r2, [r5, #6]
 80018d0:	0052      	lsls	r2, r2, #1
 80018d2:	2302      	movs	r3, #2
 80018d4:	4013      	ands	r3, r2
 80018d6:	7063      	strb	r3, [r4, #1]
    data_array[1] = BMA400_SET_BITS_POS_0(data_array[1], BMA400_GEN_INT_COMB, gen_int_set->evaluate_axes);
 80018d8:	79e8      	ldrb	r0, [r5, #7]
 80018da:	2201      	movs	r2, #1
 80018dc:	4002      	ands	r2, r0
 80018de:	4313      	orrs	r3, r2
 80018e0:	7063      	strb	r3, [r4, #1]
    data_array[2] = gen_int_set->gen_int_thres;
 80018e2:	782b      	ldrb	r3, [r5, #0]
 80018e4:	70a3      	strb	r3, [r4, #2]
    data_array[3] = BMA400_GET_MSB(gen_int_set->gen_int_dur);
 80018e6:	886b      	ldrh	r3, [r5, #2]
 80018e8:	0a1a      	lsrs	r2, r3, #8
 80018ea:	70e2      	strb	r2, [r4, #3]
    data_array[4] = BMA400_GET_LSB(gen_int_set->gen_int_dur);
 80018ec:	7123      	strb	r3, [r4, #4]
    if (gen_int_set->ref_update == BMA400_UPDATE_MANUAL)
 80018ee:	2900      	cmp	r1, #0
 80018f0:	d116      	bne.n	8001920 <set_gen1_int+0x90>
        data_array[5] = BMA400_GET_LSB(gen_int_set->int_thres_ref_x);
 80018f2:	896b      	ldrh	r3, [r5, #10]
 80018f4:	7aaa      	ldrb	r2, [r5, #10]
 80018f6:	0021      	movs	r1, r4
 80018f8:	7162      	strb	r2, [r4, #5]
        data_array[6] = BMA400_GET_MSB(gen_int_set->int_thres_ref_x);
 80018fa:	0a1b      	lsrs	r3, r3, #8
 80018fc:	71a3      	strb	r3, [r4, #6]
        data_array[7] = BMA400_GET_LSB(gen_int_set->int_thres_ref_y);
 80018fe:	89ab      	ldrh	r3, [r5, #12]
 8001900:	7b2a      	ldrb	r2, [r5, #12]
 8001902:	71e2      	strb	r2, [r4, #7]
        data_array[8] = BMA400_GET_MSB(gen_int_set->int_thres_ref_y);
 8001904:	0a1b      	lsrs	r3, r3, #8
 8001906:	7223      	strb	r3, [r4, #8]
        data_array[9] = BMA400_GET_LSB(gen_int_set->int_thres_ref_z);
 8001908:	89eb      	ldrh	r3, [r5, #14]
 800190a:	7baa      	ldrb	r2, [r5, #14]
 800190c:	7262      	strb	r2, [r4, #9]
        data_array[10] = BMA400_GET_MSB(gen_int_set->int_thres_ref_z);
 800190e:	0a1b      	lsrs	r3, r3, #8
 8001910:	72a3      	strb	r3, [r4, #10]
        rslt = bma400_set_regs(BMA400_REG_GEN1_INT_CONFIG, data_array, 11, dev);
 8001912:	0033      	movs	r3, r6
 8001914:	220b      	movs	r2, #11
 8001916:	203f      	movs	r0, #63	@ 0x3f
 8001918:	f7ff ff58 	bl	80017cc <bma400_set_regs>
}
 800191c:	b004      	add	sp, #16
 800191e:	bd70      	pop	{r4, r5, r6, pc}
        rslt = bma400_set_regs(BMA400_REG_GEN1_INT_CONFIG, data_array, 5, dev);
 8001920:	0033      	movs	r3, r6
 8001922:	2205      	movs	r2, #5
 8001924:	a901      	add	r1, sp, #4
 8001926:	203f      	movs	r0, #63	@ 0x3f
 8001928:	f7ff ff50 	bl	80017cc <bma400_set_regs>
 800192c:	e7f6      	b.n	800191c <set_gen1_int+0x8c>

0800192e <set_gen2_int>:
{
 800192e:	b570      	push	{r4, r5, r6, lr}
 8001930:	b084      	sub	sp, #16
 8001932:	0005      	movs	r5, r0
 8001934:	000e      	movs	r6, r1
    uint8_t data_array[11] = { 0 };
 8001936:	ac01      	add	r4, sp, #4
 8001938:	220b      	movs	r2, #11
 800193a:	2100      	movs	r1, #0
 800193c:	0020      	movs	r0, r4
 800193e:	f002 feed 	bl	800471c <memset>
    data_array[0] = BMA400_SET_BITS(data_array[0], BMA400_INT_AXES_EN, gen_int_set->axes_sel);
 8001942:	792a      	ldrb	r2, [r5, #4]
 8001944:	0152      	lsls	r2, r2, #5
 8001946:	b2d2      	uxtb	r2, r2
 8001948:	7022      	strb	r2, [r4, #0]
    data_array[0] = BMA400_SET_BITS(data_array[0], BMA400_INT_DATA_SRC, gen_int_set->data_src);
 800194a:	7969      	ldrb	r1, [r5, #5]
 800194c:	0109      	lsls	r1, r1, #4
 800194e:	2310      	movs	r3, #16
 8001950:	400b      	ands	r3, r1
 8001952:	431a      	orrs	r2, r3
 8001954:	7022      	strb	r2, [r4, #0]
    data_array[0] = BMA400_SET_BITS(data_array[0], BMA400_INT_REFU, gen_int_set->ref_update);
 8001956:	7a29      	ldrb	r1, [r5, #8]
 8001958:	0088      	lsls	r0, r1, #2
 800195a:	230c      	movs	r3, #12
 800195c:	4003      	ands	r3, r0
 800195e:	431a      	orrs	r2, r3
 8001960:	7022      	strb	r2, [r4, #0]
    data_array[0] = BMA400_SET_BITS_POS_0(data_array[0], BMA400_INT_HYST, gen_int_set->hysteresis);
 8001962:	7a68      	ldrb	r0, [r5, #9]
 8001964:	2303      	movs	r3, #3
 8001966:	4003      	ands	r3, r0
 8001968:	431a      	orrs	r2, r3
 800196a:	7022      	strb	r2, [r4, #0]
    data_array[1] = BMA400_SET_BITS(data_array[1], BMA400_GEN_INT_CRITERION, gen_int_set->criterion_sel);
 800196c:	79aa      	ldrb	r2, [r5, #6]
 800196e:	0052      	lsls	r2, r2, #1
 8001970:	2302      	movs	r3, #2
 8001972:	4013      	ands	r3, r2
 8001974:	7063      	strb	r3, [r4, #1]
    data_array[1] = BMA400_SET_BITS_POS_0(data_array[1], BMA400_GEN_INT_COMB, gen_int_set->evaluate_axes);
 8001976:	79e8      	ldrb	r0, [r5, #7]
 8001978:	2201      	movs	r2, #1
 800197a:	4002      	ands	r2, r0
 800197c:	4313      	orrs	r3, r2
 800197e:	7063      	strb	r3, [r4, #1]
    data_array[2] = gen_int_set->gen_int_thres;
 8001980:	782b      	ldrb	r3, [r5, #0]
 8001982:	70a3      	strb	r3, [r4, #2]
    data_array[3] = BMA400_GET_MSB(gen_int_set->gen_int_dur);
 8001984:	886b      	ldrh	r3, [r5, #2]
 8001986:	0a1a      	lsrs	r2, r3, #8
 8001988:	70e2      	strb	r2, [r4, #3]
    data_array[4] = BMA400_GET_LSB(gen_int_set->gen_int_dur);
 800198a:	7123      	strb	r3, [r4, #4]
    if (gen_int_set->ref_update == BMA400_UPDATE_MANUAL)
 800198c:	2900      	cmp	r1, #0
 800198e:	d116      	bne.n	80019be <set_gen2_int+0x90>
        data_array[5] = BMA400_GET_LSB(gen_int_set->int_thres_ref_x);
 8001990:	896b      	ldrh	r3, [r5, #10]
 8001992:	7aaa      	ldrb	r2, [r5, #10]
 8001994:	0021      	movs	r1, r4
 8001996:	7162      	strb	r2, [r4, #5]
        data_array[6] = BMA400_GET_MSB(gen_int_set->int_thres_ref_x);
 8001998:	0a1b      	lsrs	r3, r3, #8
 800199a:	71a3      	strb	r3, [r4, #6]
        data_array[7] = BMA400_GET_LSB(gen_int_set->int_thres_ref_y);
 800199c:	89ab      	ldrh	r3, [r5, #12]
 800199e:	7b2a      	ldrb	r2, [r5, #12]
 80019a0:	71e2      	strb	r2, [r4, #7]
        data_array[8] = BMA400_GET_MSB(gen_int_set->int_thres_ref_y);
 80019a2:	0a1b      	lsrs	r3, r3, #8
 80019a4:	7223      	strb	r3, [r4, #8]
        data_array[9] = BMA400_GET_LSB(gen_int_set->int_thres_ref_z);
 80019a6:	89eb      	ldrh	r3, [r5, #14]
 80019a8:	7baa      	ldrb	r2, [r5, #14]
 80019aa:	7262      	strb	r2, [r4, #9]
        data_array[10] = BMA400_GET_MSB(gen_int_set->int_thres_ref_z);
 80019ac:	0a1b      	lsrs	r3, r3, #8
 80019ae:	72a3      	strb	r3, [r4, #10]
        rslt = bma400_set_regs(BMA400_REG_GEN2_INT_CONFIG, data_array, 11, dev);
 80019b0:	0033      	movs	r3, r6
 80019b2:	220b      	movs	r2, #11
 80019b4:	204a      	movs	r0, #74	@ 0x4a
 80019b6:	f7ff ff09 	bl	80017cc <bma400_set_regs>
}
 80019ba:	b004      	add	sp, #16
 80019bc:	bd70      	pop	{r4, r5, r6, pc}
        rslt = bma400_set_regs(BMA400_REG_GEN2_INT_CONFIG, data_array, 5, dev);
 80019be:	0033      	movs	r3, r6
 80019c0:	2205      	movs	r2, #5
 80019c2:	a901      	add	r1, sp, #4
 80019c4:	204a      	movs	r0, #74	@ 0x4a
 80019c6:	f7ff ff01 	bl	80017cc <bma400_set_regs>
 80019ca:	e7f6      	b.n	80019ba <set_gen2_int+0x8c>

080019cc <set_orient_int>:
{
 80019cc:	b570      	push	{r4, r5, r6, lr}
 80019ce:	b084      	sub	sp, #16
 80019d0:	0004      	movs	r4, r0
 80019d2:	000e      	movs	r6, r1
    uint8_t data_array[10] = { 0 };
 80019d4:	ad01      	add	r5, sp, #4
 80019d6:	220a      	movs	r2, #10
 80019d8:	2100      	movs	r1, #0
 80019da:	0028      	movs	r0, r5
 80019dc:	f002 fe9e 	bl	800471c <memset>
    data_array[0] = BMA400_SET_BITS(data_array[0], BMA400_INT_AXES_EN, orient_conf->axes_sel);
 80019e0:	7822      	ldrb	r2, [r4, #0]
 80019e2:	0152      	lsls	r2, r2, #5
 80019e4:	b2d2      	uxtb	r2, r2
 80019e6:	702a      	strb	r2, [r5, #0]
    data_array[0] = BMA400_SET_BITS(data_array[0], BMA400_INT_DATA_SRC, orient_conf->data_src);
 80019e8:	7861      	ldrb	r1, [r4, #1]
 80019ea:	0109      	lsls	r1, r1, #4
 80019ec:	2310      	movs	r3, #16
 80019ee:	400b      	ands	r3, r1
 80019f0:	431a      	orrs	r2, r3
 80019f2:	702a      	strb	r2, [r5, #0]
    data_array[0] = BMA400_SET_BITS(data_array[0], BMA400_INT_REFU, orient_conf->ref_update);
 80019f4:	78a1      	ldrb	r1, [r4, #2]
 80019f6:	0088      	lsls	r0, r1, #2
 80019f8:	230c      	movs	r3, #12
 80019fa:	4003      	ands	r3, r0
 80019fc:	431a      	orrs	r2, r3
 80019fe:	702a      	strb	r2, [r5, #0]
    data_array[1] = orient_conf->orient_thres;
 8001a00:	78e3      	ldrb	r3, [r4, #3]
 8001a02:	706b      	strb	r3, [r5, #1]
    data_array[2] = orient_conf->stability_thres;
 8001a04:	7923      	ldrb	r3, [r4, #4]
 8001a06:	70ab      	strb	r3, [r5, #2]
    data_array[3] = orient_conf->orient_int_dur;
 8001a08:	7963      	ldrb	r3, [r4, #5]
 8001a0a:	70eb      	strb	r3, [r5, #3]
    if (orient_conf->ref_update == BMA400_UPDATE_MANUAL)
 8001a0c:	2900      	cmp	r1, #0
 8001a0e:	d116      	bne.n	8001a3e <set_orient_int+0x72>
        data_array[4] = BMA400_GET_LSB(orient_conf->orient_ref_x);
 8001a10:	88e3      	ldrh	r3, [r4, #6]
 8001a12:	79a2      	ldrb	r2, [r4, #6]
 8001a14:	0029      	movs	r1, r5
 8001a16:	712a      	strb	r2, [r5, #4]
        data_array[5] = BMA400_GET_MSB(orient_conf->orient_ref_x);
 8001a18:	0a1b      	lsrs	r3, r3, #8
 8001a1a:	716b      	strb	r3, [r5, #5]
        data_array[6] = BMA400_GET_LSB(orient_conf->orient_ref_y);
 8001a1c:	8923      	ldrh	r3, [r4, #8]
 8001a1e:	7a22      	ldrb	r2, [r4, #8]
 8001a20:	71aa      	strb	r2, [r5, #6]
        data_array[7] = BMA400_GET_MSB(orient_conf->orient_ref_y);
 8001a22:	0a1b      	lsrs	r3, r3, #8
 8001a24:	71eb      	strb	r3, [r5, #7]
        data_array[8] = BMA400_GET_LSB(orient_conf->orient_ref_z);
 8001a26:	8963      	ldrh	r3, [r4, #10]
 8001a28:	7aa2      	ldrb	r2, [r4, #10]
 8001a2a:	722a      	strb	r2, [r5, #8]
        data_array[9] = BMA400_GET_MSB(orient_conf->orient_ref_z);
 8001a2c:	0a1b      	lsrs	r3, r3, #8
 8001a2e:	726b      	strb	r3, [r5, #9]
        rslt = bma400_set_regs(BMA400_REG_ORIENTCH_INT_CONFIG, data_array, 10, dev);
 8001a30:	0033      	movs	r3, r6
 8001a32:	220a      	movs	r2, #10
 8001a34:	2035      	movs	r0, #53	@ 0x35
 8001a36:	f7ff fec9 	bl	80017cc <bma400_set_regs>
}
 8001a3a:	b004      	add	sp, #16
 8001a3c:	bd70      	pop	{r4, r5, r6, pc}
        rslt = bma400_set_regs(BMA400_REG_ORIENTCH_INT_CONFIG, data_array, 4, dev);
 8001a3e:	0033      	movs	r3, r6
 8001a40:	2204      	movs	r2, #4
 8001a42:	a901      	add	r1, sp, #4
 8001a44:	2035      	movs	r0, #53	@ 0x35
 8001a46:	f7ff fec1 	bl	80017cc <bma400_set_regs>
 8001a4a:	e7f6      	b.n	8001a3a <set_orient_int+0x6e>

08001a4c <set_autowakeup_interrupt>:
{
 8001a4c:	b530      	push	{r4, r5, lr}
 8001a4e:	b083      	sub	sp, #12
 8001a50:	0004      	movs	r4, r0
 8001a52:	000d      	movs	r5, r1
    uint8_t data_array[5] = { 0 };
 8001a54:	2205      	movs	r2, #5
 8001a56:	2100      	movs	r1, #0
 8001a58:	4668      	mov	r0, sp
 8001a5a:	f002 fe5f 	bl	800471c <memset>
    data_array[0] = BMA400_SET_BITS_POS_0(data_array[0], BMA400_WKUP_REF_UPDATE, wakeup_conf->wakeup_ref_update);
 8001a5e:	7823      	ldrb	r3, [r4, #0]
 8001a60:	2203      	movs	r2, #3
 8001a62:	401a      	ands	r2, r3
 8001a64:	466b      	mov	r3, sp
 8001a66:	701a      	strb	r2, [r3, #0]
    data_array[0] = BMA400_SET_BITS(data_array[0], BMA400_SAMPLE_COUNT, wakeup_conf->sample_count);
 8001a68:	7861      	ldrb	r1, [r4, #1]
 8001a6a:	0089      	lsls	r1, r1, #2
 8001a6c:	231c      	movs	r3, #28
 8001a6e:	400b      	ands	r3, r1
 8001a70:	431a      	orrs	r2, r3
 8001a72:	466b      	mov	r3, sp
 8001a74:	701a      	strb	r2, [r3, #0]
    data_array[0] = BMA400_SET_BITS(data_array[0], BMA400_WAKEUP_EN_AXES, wakeup_conf->wakeup_axes_en);
 8001a76:	78a3      	ldrb	r3, [r4, #2]
 8001a78:	015b      	lsls	r3, r3, #5
 8001a7a:	431a      	orrs	r2, r3
 8001a7c:	466b      	mov	r3, sp
 8001a7e:	701a      	strb	r2, [r3, #0]
    data_array[1] = wakeup_conf->int_wkup_threshold;
 8001a80:	78e3      	ldrb	r3, [r4, #3]
 8001a82:	466a      	mov	r2, sp
 8001a84:	7053      	strb	r3, [r2, #1]
    data_array[2] = wakeup_conf->int_wkup_ref_x;
 8001a86:	7923      	ldrb	r3, [r4, #4]
 8001a88:	7093      	strb	r3, [r2, #2]
    data_array[3] = wakeup_conf->int_wkup_ref_y;
 8001a8a:	7963      	ldrb	r3, [r4, #5]
 8001a8c:	70d3      	strb	r3, [r2, #3]
    data_array[4] = wakeup_conf->int_wkup_ref_z;
 8001a8e:	79a3      	ldrb	r3, [r4, #6]
 8001a90:	7113      	strb	r3, [r2, #4]
    rslt = bma400_set_regs(BMA400_REG_WAKEUP_INT_CONF_0, data_array, 5, dev);
 8001a92:	002b      	movs	r3, r5
 8001a94:	2205      	movs	r2, #5
 8001a96:	4669      	mov	r1, sp
 8001a98:	202f      	movs	r0, #47	@ 0x2f
 8001a9a:	f7ff fe97 	bl	80017cc <bma400_set_regs>
}
 8001a9e:	b003      	add	sp, #12
 8001aa0:	bd30      	pop	{r4, r5, pc}

08001aa2 <bma400_get_regs>:
{
 8001aa2:	b5f0      	push	{r4, r5, r6, r7, lr}
 8001aa4:	46ce      	mov	lr, r9
 8001aa6:	4647      	mov	r7, r8
 8001aa8:	b580      	push	{r7, lr}
 8001aaa:	b0a1      	sub	sp, #132	@ 0x84
 8001aac:	0004      	movs	r4, r0
 8001aae:	4688      	mov	r8, r1
 8001ab0:	0017      	movs	r7, r2
 8001ab2:	001e      	movs	r6, r3
    rslt = null_ptr_check(dev);
 8001ab4:	0018      	movs	r0, r3
 8001ab6:	f7ff fceb 	bl	8001490 <null_ptr_check>
 8001aba:	4681      	mov	r9, r0
    if ((rslt == BMA400_OK) && (reg_data != NULL))
 8001abc:	2800      	cmp	r0, #0
 8001abe:	d129      	bne.n	8001b14 <bma400_get_regs+0x72>
 8001ac0:	4643      	mov	r3, r8
 8001ac2:	2b00      	cmp	r3, #0
 8001ac4:	d02a      	beq.n	8001b1c <bma400_get_regs+0x7a>
        if (dev->intf != BMA400_I2C_INTF)
 8001ac6:	7873      	ldrb	r3, [r6, #1]
 8001ac8:	2b01      	cmp	r3, #1
 8001aca:	d003      	beq.n	8001ad4 <bma400_get_regs+0x32>
            reg_addr = reg_addr | BMA400_SPI_RD_MASK;
 8001acc:	2380      	movs	r3, #128	@ 0x80
 8001ace:	425b      	negs	r3, r3
 8001ad0:	431c      	orrs	r4, r3
 8001ad2:	b2e4      	uxtb	r4, r4
        dev->intf_rslt = dev->read(reg_addr, temp_buff, (len + dev->dummy_byte), dev->intf_ptr);
 8001ad4:	68f5      	ldr	r5, [r6, #12]
 8001ad6:	7a32      	ldrb	r2, [r6, #8]
 8001ad8:	6873      	ldr	r3, [r6, #4]
 8001ada:	19d2      	adds	r2, r2, r7
 8001adc:	4669      	mov	r1, sp
 8001ade:	0020      	movs	r0, r4
 8001ae0:	47a8      	blx	r5
 8001ae2:	7730      	strb	r0, [r6, #28]
        if (dev->intf_rslt == BMA400_INTF_RET_SUCCESS)
 8001ae4:	2800      	cmp	r0, #0
 8001ae6:	d101      	bne.n	8001aec <bma400_get_regs+0x4a>
            for (index = 0; index < len; index++)
 8001ae8:	2400      	movs	r4, #0
 8001aea:	e00b      	b.n	8001b04 <bma400_get_regs+0x62>
            rslt = BMA400_E_COM_FAIL;
 8001aec:	2302      	movs	r3, #2
 8001aee:	425b      	negs	r3, r3
 8001af0:	4699      	mov	r9, r3
 8001af2:	e009      	b.n	8001b08 <bma400_get_regs+0x66>
                reg_data[index] = temp_buff[index + dev->dummy_byte];
 8001af4:	7a35      	ldrb	r5, [r6, #8]
 8001af6:	1965      	adds	r5, r4, r5
 8001af8:	466b      	mov	r3, sp
 8001afa:	5d5b      	ldrb	r3, [r3, r5]
 8001afc:	4642      	mov	r2, r8
 8001afe:	5513      	strb	r3, [r2, r4]
            for (index = 0; index < len; index++)
 8001b00:	3401      	adds	r4, #1
 8001b02:	b2a4      	uxth	r4, r4
 8001b04:	42bc      	cmp	r4, r7
 8001b06:	d3f5      	bcc.n	8001af4 <bma400_get_regs+0x52>
}
 8001b08:	4648      	mov	r0, r9
 8001b0a:	b021      	add	sp, #132	@ 0x84
 8001b0c:	bcc0      	pop	{r6, r7}
 8001b0e:	46b9      	mov	r9, r7
 8001b10:	46b0      	mov	r8, r6
 8001b12:	bdf0      	pop	{r4, r5, r6, r7, pc}
        rslt = BMA400_E_NULL_PTR;
 8001b14:	2301      	movs	r3, #1
 8001b16:	425b      	negs	r3, r3
 8001b18:	4699      	mov	r9, r3
 8001b1a:	e7f5      	b.n	8001b08 <bma400_get_regs+0x66>
 8001b1c:	2301      	movs	r3, #1
 8001b1e:	425b      	negs	r3, r3
 8001b20:	4699      	mov	r9, r3
 8001b22:	e7f1      	b.n	8001b08 <bma400_get_regs+0x66>

08001b24 <bma400_init>:
{
 8001b24:	b530      	push	{r4, r5, lr}
 8001b26:	b083      	sub	sp, #12
 8001b28:	0005      	movs	r5, r0
    uint8_t chip_id = 0;
 8001b2a:	466b      	mov	r3, sp
 8001b2c:	2200      	movs	r2, #0
 8001b2e:	71da      	strb	r2, [r3, #7]
    rslt = null_ptr_check(dev);
 8001b30:	f7ff fcae 	bl	8001490 <null_ptr_check>
 8001b34:	1e04      	subs	r4, r0, #0
    if (rslt == BMA400_OK)
 8001b36:	d10a      	bne.n	8001b4e <bma400_init+0x2a>
        dev->delay_us(5000, dev->intf_ptr);
 8001b38:	696b      	ldr	r3, [r5, #20]
 8001b3a:	6869      	ldr	r1, [r5, #4]
 8001b3c:	4814      	ldr	r0, [pc, #80]	@ (8001b90 <bma400_init+0x6c>)
 8001b3e:	4798      	blx	r3
        if (dev->intf == BMA400_SPI_INTF)
 8001b40:	786b      	ldrb	r3, [r5, #1]
 8001b42:	2b00      	cmp	r3, #0
 8001b44:	d006      	beq.n	8001b54 <bma400_init+0x30>
            dev->dummy_byte = 0;
 8001b46:	2300      	movs	r3, #0
 8001b48:	722b      	strb	r3, [r5, #8]
        if (rslt == BMA400_OK)
 8001b4a:	2c00      	cmp	r4, #0
 8001b4c:	d00d      	beq.n	8001b6a <bma400_init+0x46>
}
 8001b4e:	0020      	movs	r0, r4
 8001b50:	b003      	add	sp, #12
 8001b52:	bd30      	pop	{r4, r5, pc}
            dev->dummy_byte = 1;
 8001b54:	3301      	adds	r3, #1
 8001b56:	722b      	strb	r3, [r5, #8]
            rslt = bma400_get_regs(BMA400_REG_CHIP_ID, &chip_id, 1, dev);
 8001b58:	002b      	movs	r3, r5
 8001b5a:	2201      	movs	r2, #1
 8001b5c:	4669      	mov	r1, sp
 8001b5e:	3107      	adds	r1, #7
 8001b60:	2000      	movs	r0, #0
 8001b62:	f7ff ff9e 	bl	8001aa2 <bma400_get_regs>
 8001b66:	0004      	movs	r4, r0
 8001b68:	e7ef      	b.n	8001b4a <bma400_init+0x26>
            rslt = bma400_get_regs(BMA400_REG_CHIP_ID, &chip_id, 1, dev);
 8001b6a:	002b      	movs	r3, r5
 8001b6c:	2201      	movs	r2, #1
 8001b6e:	4669      	mov	r1, sp
 8001b70:	3107      	adds	r1, #7
 8001b72:	2000      	movs	r0, #0
 8001b74:	f7ff ff95 	bl	8001aa2 <bma400_get_regs>
 8001b78:	1e04      	subs	r4, r0, #0
            if (rslt == BMA400_OK)
 8001b7a:	d1e8      	bne.n	8001b4e <bma400_init+0x2a>
                if (chip_id == BMA400_CHIP_ID)
 8001b7c:	466b      	mov	r3, sp
 8001b7e:	3307      	adds	r3, #7
 8001b80:	781b      	ldrb	r3, [r3, #0]
 8001b82:	2b90      	cmp	r3, #144	@ 0x90
 8001b84:	d101      	bne.n	8001b8a <bma400_init+0x66>
                    dev->chip_id = chip_id;
 8001b86:	702b      	strb	r3, [r5, #0]
 8001b88:	e7e1      	b.n	8001b4e <bma400_init+0x2a>
                    rslt = BMA400_E_DEV_NOT_FOUND;
 8001b8a:	2403      	movs	r4, #3
 8001b8c:	4264      	negs	r4, r4
 8001b8e:	e7de      	b.n	8001b4e <bma400_init+0x2a>
 8001b90:	00001388 	.word	0x00001388

08001b94 <get_accel_data>:
{
 8001b94:	b570      	push	{r4, r5, r6, lr}
 8001b96:	b084      	sub	sp, #16
 8001b98:	0005      	movs	r5, r0
 8001b9a:	000c      	movs	r4, r1
 8001b9c:	0016      	movs	r6, r2
    uint8_t data_array[9] = { 0 };
 8001b9e:	2209      	movs	r2, #9
 8001ba0:	2100      	movs	r1, #0
 8001ba2:	a801      	add	r0, sp, #4
 8001ba4:	f002 fdba 	bl	800471c <memset>
    if (data_sel == BMA400_DATA_ONLY)
 8001ba8:	2d00      	cmp	r5, #0
 8001baa:	d03f      	beq.n	8001c2c <get_accel_data+0x98>
    else if (data_sel == BMA400_DATA_SENSOR_TIME)
 8001bac:	2d01      	cmp	r5, #1
 8001bae:	d150      	bne.n	8001c52 <get_accel_data+0xbe>
        rslt = bma400_get_regs(BMA400_REG_ACCEL_DATA, data_array, 9, dev);
 8001bb0:	0033      	movs	r3, r6
 8001bb2:	2209      	movs	r2, #9
 8001bb4:	a901      	add	r1, sp, #4
 8001bb6:	2004      	movs	r0, #4
 8001bb8:	f7ff ff73 	bl	8001aa2 <bma400_get_regs>
    if (rslt == BMA400_OK)
 8001bbc:	2800      	cmp	r0, #0
 8001bbe:	d133      	bne.n	8001c28 <get_accel_data+0x94>
        lsb = data_array[0];
 8001bc0:	aa01      	add	r2, sp, #4
 8001bc2:	7813      	ldrb	r3, [r2, #0]
        msb = data_array[1];
 8001bc4:	7852      	ldrb	r2, [r2, #1]
        accel->x = (int16_t)(((uint16_t)msb * 256) + lsb);
 8001bc6:	0212      	lsls	r2, r2, #8
 8001bc8:	189b      	adds	r3, r3, r2
 8001bca:	b29a      	uxth	r2, r3
 8001bcc:	b21b      	sxth	r3, r3
 8001bce:	8023      	strh	r3, [r4, #0]
        if (accel->x > 2047)
 8001bd0:	2180      	movs	r1, #128	@ 0x80
 8001bd2:	0109      	lsls	r1, r1, #4
 8001bd4:	428b      	cmp	r3, r1
 8001bd6:	db03      	blt.n	8001be0 <get_accel_data+0x4c>
            accel->x = accel->x - 4096;
 8001bd8:	4b1f      	ldr	r3, [pc, #124]	@ (8001c58 <get_accel_data+0xc4>)
 8001bda:	469c      	mov	ip, r3
 8001bdc:	4462      	add	r2, ip
 8001bde:	8022      	strh	r2, [r4, #0]
        lsb = data_array[2];
 8001be0:	ab01      	add	r3, sp, #4
 8001be2:	789a      	ldrb	r2, [r3, #2]
        msb = data_array[3];
 8001be4:	78db      	ldrb	r3, [r3, #3]
        accel->y = (int16_t)(((uint16_t)msb * 256) | lsb);
 8001be6:	021b      	lsls	r3, r3, #8
 8001be8:	4313      	orrs	r3, r2
 8001bea:	b21b      	sxth	r3, r3
 8001bec:	8063      	strh	r3, [r4, #2]
        if (accel->y > 2047)
 8001bee:	2280      	movs	r2, #128	@ 0x80
 8001bf0:	0112      	lsls	r2, r2, #4
 8001bf2:	4293      	cmp	r3, r2
 8001bf4:	db04      	blt.n	8001c00 <get_accel_data+0x6c>
            accel->y = accel->y - 4096;
 8001bf6:	b29b      	uxth	r3, r3
 8001bf8:	4a17      	ldr	r2, [pc, #92]	@ (8001c58 <get_accel_data+0xc4>)
 8001bfa:	4694      	mov	ip, r2
 8001bfc:	4463      	add	r3, ip
 8001bfe:	8063      	strh	r3, [r4, #2]
        lsb = data_array[4];
 8001c00:	ab01      	add	r3, sp, #4
 8001c02:	791a      	ldrb	r2, [r3, #4]
        msb = data_array[5];
 8001c04:	795b      	ldrb	r3, [r3, #5]
        accel->z = (int16_t)(((uint16_t)msb * 256) | lsb);
 8001c06:	021b      	lsls	r3, r3, #8
 8001c08:	4313      	orrs	r3, r2
 8001c0a:	b21b      	sxth	r3, r3
 8001c0c:	80a3      	strh	r3, [r4, #4]
        if (accel->z > 2047)
 8001c0e:	2280      	movs	r2, #128	@ 0x80
 8001c10:	0112      	lsls	r2, r2, #4
 8001c12:	4293      	cmp	r3, r2
 8001c14:	db04      	blt.n	8001c20 <get_accel_data+0x8c>
            accel->z = accel->z - 4096;
 8001c16:	b29b      	uxth	r3, r3
 8001c18:	4a0f      	ldr	r2, [pc, #60]	@ (8001c58 <get_accel_data+0xc4>)
 8001c1a:	4694      	mov	ip, r2
 8001c1c:	4463      	add	r3, ip
 8001c1e:	80a3      	strh	r3, [r4, #4]
        if (data_sel == BMA400_DATA_ONLY)
 8001c20:	2d00      	cmp	r5, #0
 8001c22:	d10a      	bne.n	8001c3a <get_accel_data+0xa6>
            accel->sensortime = 0;
 8001c24:	2300      	movs	r3, #0
 8001c26:	60a3      	str	r3, [r4, #8]
}
 8001c28:	b004      	add	sp, #16
 8001c2a:	bd70      	pop	{r4, r5, r6, pc}
        rslt = bma400_get_regs(BMA400_REG_ACCEL_DATA, data_array, 6, dev);
 8001c2c:	0033      	movs	r3, r6
 8001c2e:	2206      	movs	r2, #6
 8001c30:	a901      	add	r1, sp, #4
 8001c32:	2004      	movs	r0, #4
 8001c34:	f7ff ff35 	bl	8001aa2 <bma400_get_regs>
 8001c38:	e7c0      	b.n	8001bbc <get_accel_data+0x28>
        if (data_sel == BMA400_DATA_SENSOR_TIME)
 8001c3a:	2d01      	cmp	r5, #1
 8001c3c:	d1f4      	bne.n	8001c28 <get_accel_data+0x94>
            time_0 = data_array[6];
 8001c3e:	a901      	add	r1, sp, #4
 8001c40:	798a      	ldrb	r2, [r1, #6]
            time_1 = ((uint16_t)data_array[7] << 8);
 8001c42:	79cb      	ldrb	r3, [r1, #7]
 8001c44:	021b      	lsls	r3, r3, #8
            time_2 = ((uint32_t)data_array[8] << 16);
 8001c46:	7a09      	ldrb	r1, [r1, #8]
 8001c48:	0409      	lsls	r1, r1, #16
            accel->sensortime = (uint32_t)(time_2 + time_1 + time_0);
 8001c4a:	185b      	adds	r3, r3, r1
 8001c4c:	18d3      	adds	r3, r2, r3
 8001c4e:	60a3      	str	r3, [r4, #8]
 8001c50:	e7ea      	b.n	8001c28 <get_accel_data+0x94>
        rslt = BMA400_E_INVALID_CONFIG;
 8001c52:	2004      	movs	r0, #4
 8001c54:	4240      	negs	r0, r0
 8001c56:	e7e7      	b.n	8001c28 <get_accel_data+0x94>
 8001c58:	fffff000 	.word	0xfffff000

08001c5c <set_accel_conf>:
{
 8001c5c:	b530      	push	{r4, r5, lr}
 8001c5e:	b083      	sub	sp, #12
 8001c60:	0004      	movs	r4, r0
 8001c62:	000d      	movs	r5, r1
    uint8_t data_array[3] = { 0, 0, 0xE0 };
 8001c64:	4b22      	ldr	r3, [pc, #136]	@ (8001cf0 <set_accel_conf+0x94>)
 8001c66:	881a      	ldrh	r2, [r3, #0]
 8001c68:	4669      	mov	r1, sp
 8001c6a:	808a      	strh	r2, [r1, #4]
 8001c6c:	789b      	ldrb	r3, [r3, #2]
 8001c6e:	718b      	strb	r3, [r1, #6]
    rslt = bma400_get_regs(BMA400_REG_ACCEL_CONFIG_0, data_array, 3, dev);
 8001c70:	002b      	movs	r3, r5
 8001c72:	2203      	movs	r2, #3
 8001c74:	a901      	add	r1, sp, #4
 8001c76:	2019      	movs	r0, #25
 8001c78:	f7ff ff13 	bl	8001aa2 <bma400_get_regs>
    if (rslt == BMA400_OK)
 8001c7c:	2800      	cmp	r0, #0
 8001c7e:	d001      	beq.n	8001c84 <set_accel_conf+0x28>
}
 8001c80:	b003      	add	sp, #12
 8001c82:	bd30      	pop	{r4, r5, pc}
        data_array[0] = BMA400_SET_BITS(data_array[0], BMA400_FILT_1_BW, accel_conf->filt1_bw);
 8001c84:	a901      	add	r1, sp, #4
 8001c86:	7808      	ldrb	r0, [r1, #0]
 8001c88:	7962      	ldrb	r2, [r4, #5]
 8001c8a:	237f      	movs	r3, #127	@ 0x7f
 8001c8c:	4003      	ands	r3, r0
 8001c8e:	01d2      	lsls	r2, r2, #7
 8001c90:	4313      	orrs	r3, r2
 8001c92:	b2db      	uxtb	r3, r3
 8001c94:	700b      	strb	r3, [r1, #0]
        data_array[0] = BMA400_SET_BITS(data_array[0], BMA400_OSR_LP, accel_conf->osr_lp);
 8001c96:	7920      	ldrb	r0, [r4, #4]
 8001c98:	0140      	lsls	r0, r0, #5
 8001c9a:	2260      	movs	r2, #96	@ 0x60
 8001c9c:	4002      	ands	r2, r0
 8001c9e:	2060      	movs	r0, #96	@ 0x60
 8001ca0:	4383      	bics	r3, r0
 8001ca2:	4313      	orrs	r3, r2
 8001ca4:	700b      	strb	r3, [r1, #0]
        data_array[1] = BMA400_SET_BITS(data_array[1], BMA400_ACCEL_RANGE, accel_conf->range);
 8001ca6:	7848      	ldrb	r0, [r1, #1]
 8001ca8:	7863      	ldrb	r3, [r4, #1]
 8001caa:	223f      	movs	r2, #63	@ 0x3f
 8001cac:	4002      	ands	r2, r0
 8001cae:	019b      	lsls	r3, r3, #6
 8001cb0:	431a      	orrs	r2, r3
 8001cb2:	b2d2      	uxtb	r2, r2
 8001cb4:	704a      	strb	r2, [r1, #1]
        data_array[1] = BMA400_SET_BITS(data_array[1], BMA400_OSR, accel_conf->osr);
 8001cb6:	78e0      	ldrb	r0, [r4, #3]
 8001cb8:	0100      	lsls	r0, r0, #4
 8001cba:	2330      	movs	r3, #48	@ 0x30
 8001cbc:	4003      	ands	r3, r0
 8001cbe:	2030      	movs	r0, #48	@ 0x30
 8001cc0:	4382      	bics	r2, r0
 8001cc2:	431a      	orrs	r2, r3
 8001cc4:	704a      	strb	r2, [r1, #1]
        data_array[1] = BMA400_SET_BITS_POS_0(data_array[1], BMA400_ACCEL_ODR, accel_conf->odr);
 8001cc6:	7820      	ldrb	r0, [r4, #0]
 8001cc8:	230f      	movs	r3, #15
 8001cca:	439a      	bics	r2, r3
 8001ccc:	4003      	ands	r3, r0
 8001cce:	431a      	orrs	r2, r3
 8001cd0:	704a      	strb	r2, [r1, #1]
        data_array[2] = BMA400_SET_BITS(data_array[2], BMA400_DATA_FILTER, accel_conf->data_src);
 8001cd2:	788b      	ldrb	r3, [r1, #2]
 8001cd4:	78a0      	ldrb	r0, [r4, #2]
 8001cd6:	0080      	lsls	r0, r0, #2
 8001cd8:	220c      	movs	r2, #12
 8001cda:	4002      	ands	r2, r0
 8001cdc:	200c      	movs	r0, #12
 8001cde:	4383      	bics	r3, r0
 8001ce0:	4313      	orrs	r3, r2
 8001ce2:	708b      	strb	r3, [r1, #2]
        rslt = bma400_set_regs(BMA400_REG_ACCEL_CONFIG_0, data_array, 3, dev);
 8001ce4:	002b      	movs	r3, r5
 8001ce6:	2203      	movs	r2, #3
 8001ce8:	300d      	adds	r0, #13
 8001cea:	f7ff fd6f 	bl	80017cc <bma400_set_regs>
 8001cee:	e7c7      	b.n	8001c80 <set_accel_conf+0x24>
 8001cf0:	080059a8 	.word	0x080059a8

08001cf4 <set_tap_conf>:
{
 8001cf4:	b530      	push	{r4, r5, lr}
 8001cf6:	b083      	sub	sp, #12
 8001cf8:	0005      	movs	r5, r0
 8001cfa:	000c      	movs	r4, r1
    uint8_t reg_data[2] = { 0, 0 };
 8001cfc:	a901      	add	r1, sp, #4
 8001cfe:	2300      	movs	r3, #0
 8001d00:	800b      	strh	r3, [r1, #0]
    rslt = bma400_get_regs(BMA400_REG_TAP_CONFIG, reg_data, 2, dev);
 8001d02:	0023      	movs	r3, r4
 8001d04:	2202      	movs	r2, #2
 8001d06:	2057      	movs	r0, #87	@ 0x57
 8001d08:	f7ff fecb 	bl	8001aa2 <bma400_get_regs>
    if (rslt == BMA400_OK)
 8001d0c:	2800      	cmp	r0, #0
 8001d0e:	d001      	beq.n	8001d14 <set_tap_conf+0x20>
}
 8001d10:	b003      	add	sp, #12
 8001d12:	bd30      	pop	{r4, r5, pc}
        reg_data[0] = BMA400_SET_BITS(reg_data[0], BMA400_TAP_AXES_EN, tap_set->axes_sel);
 8001d14:	a901      	add	r1, sp, #4
 8001d16:	780b      	ldrb	r3, [r1, #0]
 8001d18:	7828      	ldrb	r0, [r5, #0]
 8001d1a:	00c0      	lsls	r0, r0, #3
 8001d1c:	2218      	movs	r2, #24
 8001d1e:	4002      	ands	r2, r0
 8001d20:	2018      	movs	r0, #24
 8001d22:	4383      	bics	r3, r0
 8001d24:	4313      	orrs	r3, r2
 8001d26:	700b      	strb	r3, [r1, #0]
        reg_data[0] = BMA400_SET_BITS_POS_0(reg_data[0], BMA400_TAP_SENSITIVITY, tap_set->sensitivity);
 8001d28:	7868      	ldrb	r0, [r5, #1]
 8001d2a:	2207      	movs	r2, #7
 8001d2c:	4393      	bics	r3, r2
 8001d2e:	4002      	ands	r2, r0
 8001d30:	4313      	orrs	r3, r2
 8001d32:	700b      	strb	r3, [r1, #0]
        reg_data[1] = BMA400_SET_BITS(reg_data[1], BMA400_TAP_QUIET_DT, tap_set->quiet_dt);
 8001d34:	784a      	ldrb	r2, [r1, #1]
 8001d36:	7928      	ldrb	r0, [r5, #4]
 8001d38:	0100      	lsls	r0, r0, #4
 8001d3a:	2330      	movs	r3, #48	@ 0x30
 8001d3c:	4003      	ands	r3, r0
 8001d3e:	2030      	movs	r0, #48	@ 0x30
 8001d40:	4382      	bics	r2, r0
 8001d42:	431a      	orrs	r2, r3
 8001d44:	704a      	strb	r2, [r1, #1]
        reg_data[1] = BMA400_SET_BITS(reg_data[1], BMA400_TAP_QUIET, tap_set->quiet);
 8001d46:	78e8      	ldrb	r0, [r5, #3]
 8001d48:	0080      	lsls	r0, r0, #2
 8001d4a:	230c      	movs	r3, #12
 8001d4c:	4003      	ands	r3, r0
 8001d4e:	200c      	movs	r0, #12
 8001d50:	4382      	bics	r2, r0
 8001d52:	431a      	orrs	r2, r3
 8001d54:	704a      	strb	r2, [r1, #1]
        reg_data[1] = BMA400_SET_BITS_POS_0(reg_data[1], BMA400_TAP_TICS_TH, tap_set->tics_th);
 8001d56:	78a8      	ldrb	r0, [r5, #2]
 8001d58:	2303      	movs	r3, #3
 8001d5a:	439a      	bics	r2, r3
 8001d5c:	4003      	ands	r3, r0
 8001d5e:	431a      	orrs	r2, r3
 8001d60:	704a      	strb	r2, [r1, #1]
        rslt = bma400_set_regs(BMA400_REG_TAP_CONFIG, reg_data, 2, dev);
 8001d62:	0023      	movs	r3, r4
 8001d64:	2202      	movs	r2, #2
 8001d66:	2057      	movs	r0, #87	@ 0x57
 8001d68:	f7ff fd30 	bl	80017cc <bma400_set_regs>
 8001d6c:	e7d0      	b.n	8001d10 <set_tap_conf+0x1c>

08001d6e <set_sensor_conf>:
{
 8001d6e:	b5f0      	push	{r4, r5, r6, r7, lr}
 8001d70:	b083      	sub	sp, #12
 8001d72:	9001      	str	r0, [sp, #4]
 8001d74:	000c      	movs	r4, r1
 8001d76:	0016      	movs	r6, r2
    if (BMA400_ACCEL == conf->type)
 8001d78:	780b      	ldrb	r3, [r1, #0]
 8001d7a:	2b00      	cmp	r3, #0
 8001d7c:	d018      	beq.n	8001db0 <set_sensor_conf+0x42>
    enum bma400_int_chan int_map = BMA400_UNMAP_INT_PIN;
 8001d7e:	2200      	movs	r2, #0
    uint8_t int_enable = 0;
 8001d80:	2100      	movs	r1, #0
    int8_t rslt = BMA400_E_INVALID_CONFIG;
 8001d82:	2504      	movs	r5, #4
 8001d84:	426d      	negs	r5, r5
    if (BMA400_TAP_INT == conf->type)
 8001d86:	7823      	ldrb	r3, [r4, #0]
 8001d88:	2b01      	cmp	r3, #1
 8001d8a:	d019      	beq.n	8001dc0 <set_sensor_conf+0x52>
    if (BMA400_ACTIVITY_CHANGE_INT == conf->type)
 8001d8c:	7823      	ldrb	r3, [r4, #0]
 8001d8e:	2b02      	cmp	r3, #2
 8001d90:	d01e      	beq.n	8001dd0 <set_sensor_conf+0x62>
    if (BMA400_GEN1_INT == conf->type)
 8001d92:	7823      	ldrb	r3, [r4, #0]
 8001d94:	2b03      	cmp	r3, #3
 8001d96:	d023      	beq.n	8001de0 <set_sensor_conf+0x72>
    if (BMA400_GEN2_INT == conf->type)
 8001d98:	7827      	ldrb	r7, [r4, #0]
 8001d9a:	2f04      	cmp	r7, #4
 8001d9c:	d028      	beq.n	8001df0 <set_sensor_conf+0x82>
    if (BMA400_ORIENT_CHANGE_INT == conf->type)
 8001d9e:	7823      	ldrb	r3, [r4, #0]
 8001da0:	2b05      	cmp	r3, #5
 8001da2:	d02d      	beq.n	8001e00 <set_sensor_conf+0x92>
    if (BMA400_STEP_COUNTER_INT == conf->type)
 8001da4:	7823      	ldrb	r3, [r4, #0]
 8001da6:	2b06      	cmp	r3, #6
 8001da8:	d032      	beq.n	8001e10 <set_sensor_conf+0xa2>
    if (rslt == BMA400_OK)
 8001daa:	2d00      	cmp	r5, #0
 8001dac:	d136      	bne.n	8001e1c <set_sensor_conf+0xae>
 8001dae:	e032      	b.n	8001e16 <set_sensor_conf+0xa8>
        rslt = set_accel_conf(&conf->param.accel, dev);
 8001db0:	1c88      	adds	r0, r1, #2
 8001db2:	0011      	movs	r1, r2
 8001db4:	f7ff ff52 	bl	8001c5c <set_accel_conf>
 8001db8:	0005      	movs	r5, r0
        int_map = conf->param.accel.int_chan;
 8001dba:	7a22      	ldrb	r2, [r4, #8]
        int_enable = BMA400_DATA_READY_INT_MAP;
 8001dbc:	2101      	movs	r1, #1
 8001dbe:	e7e2      	b.n	8001d86 <set_sensor_conf+0x18>
        rslt = set_tap_conf(&conf->param.tap, dev);
 8001dc0:	1ca0      	adds	r0, r4, #2
 8001dc2:	0031      	movs	r1, r6
 8001dc4:	f7ff ff96 	bl	8001cf4 <set_tap_conf>
 8001dc8:	0005      	movs	r5, r0
        int_map = conf->param.tap.int_chan;
 8001dca:	79e2      	ldrb	r2, [r4, #7]
        int_enable = BMA400_TAP_INT_MAP;
 8001dcc:	2109      	movs	r1, #9
 8001dce:	e7dd      	b.n	8001d8c <set_sensor_conf+0x1e>
        rslt = set_activity_change_conf(&conf->param.act_ch, dev);
 8001dd0:	1ca0      	adds	r0, r4, #2
 8001dd2:	0031      	movs	r1, r6
 8001dd4:	f7ff fd3f 	bl	8001856 <set_activity_change_conf>
 8001dd8:	0005      	movs	r5, r0
        int_map = conf->param.act_ch.int_chan;
 8001dda:	79a2      	ldrb	r2, [r4, #6]
        int_enable = BMA400_ACT_CH_INT_MAP;
 8001ddc:	2108      	movs	r1, #8
 8001dde:	e7d8      	b.n	8001d92 <set_sensor_conf+0x24>
        rslt = set_gen1_int(&conf->param.gen_int, dev);
 8001de0:	1ca0      	adds	r0, r4, #2
 8001de2:	0031      	movs	r1, r6
 8001de4:	f7ff fd54 	bl	8001890 <set_gen1_int>
 8001de8:	0005      	movs	r5, r0
        int_map = conf->param.gen_int.int_chan;
 8001dea:	7ca2      	ldrb	r2, [r4, #18]
        int_enable = BMA400_GEN1_INT_MAP;
 8001dec:	2105      	movs	r1, #5
 8001dee:	e7d3      	b.n	8001d98 <set_sensor_conf+0x2a>
        rslt = set_gen2_int(&conf->param.gen_int, dev);
 8001df0:	1ca0      	adds	r0, r4, #2
 8001df2:	0031      	movs	r1, r6
 8001df4:	f7ff fd9b 	bl	800192e <set_gen2_int>
 8001df8:	0005      	movs	r5, r0
        int_map = conf->param.gen_int.int_chan;
 8001dfa:	7ca2      	ldrb	r2, [r4, #18]
        int_enable = BMA400_GEN2_INT_MAP;
 8001dfc:	0039      	movs	r1, r7
 8001dfe:	e7ce      	b.n	8001d9e <set_sensor_conf+0x30>
        rslt = set_orient_int(&conf->param.orient, dev);
 8001e00:	1ca0      	adds	r0, r4, #2
 8001e02:	0031      	movs	r1, r6
 8001e04:	f7ff fde2 	bl	80019cc <set_orient_int>
 8001e08:	0005      	movs	r5, r0
        int_map = conf->param.orient.int_chan;
 8001e0a:	7ba2      	ldrb	r2, [r4, #14]
        int_enable = BMA400_ORIENT_CH_INT_MAP;
 8001e0c:	2106      	movs	r1, #6
 8001e0e:	e7c9      	b.n	8001da4 <set_sensor_conf+0x36>
        int_map = conf->param.step_cnt.int_chan;
 8001e10:	78a2      	ldrb	r2, [r4, #2]
        int_enable = BMA400_STEP_INT_MAP;
 8001e12:	210a      	movs	r1, #10
        rslt = BMA400_OK;
 8001e14:	2500      	movs	r5, #0
        map_int_pin(data, int_enable, int_map);
 8001e16:	9801      	ldr	r0, [sp, #4]
 8001e18:	f7ff fb54 	bl	80014c4 <map_int_pin>
}
 8001e1c:	0028      	movs	r0, r5
 8001e1e:	b003      	add	sp, #12
 8001e20:	bdf0      	pop	{r4, r5, r6, r7, pc}

08001e22 <set_autowakeup_timeout>:
{
 8001e22:	b530      	push	{r4, r5, lr}
 8001e24:	b083      	sub	sp, #12
 8001e26:	0005      	movs	r5, r0
 8001e28:	000c      	movs	r4, r1
    rslt = bma400_get_regs(BMA400_REG_AUTOWAKEUP_1, &data_array[1], 1, dev);
 8001e2a:	000b      	movs	r3, r1
 8001e2c:	2201      	movs	r2, #1
 8001e2e:	4669      	mov	r1, sp
 8001e30:	3105      	adds	r1, #5
 8001e32:	202d      	movs	r0, #45	@ 0x2d
 8001e34:	f7ff fe35 	bl	8001aa2 <bma400_get_regs>
    if (rslt == BMA400_OK)
 8001e38:	2800      	cmp	r0, #0
 8001e3a:	d001      	beq.n	8001e40 <set_autowakeup_timeout+0x1e>
}
 8001e3c:	b003      	add	sp, #12
 8001e3e:	bd30      	pop	{r4, r5, pc}
        data_array[1] = BMA400_SET_BITS(data_array[1], BMA400_WAKEUP_TIMEOUT, wakeup_conf->wakeup_timeout);
 8001e40:	a901      	add	r1, sp, #4
 8001e42:	784b      	ldrb	r3, [r1, #1]
 8001e44:	7828      	ldrb	r0, [r5, #0]
 8001e46:	0080      	lsls	r0, r0, #2
 8001e48:	2204      	movs	r2, #4
 8001e4a:	4002      	ands	r2, r0
 8001e4c:	2004      	movs	r0, #4
 8001e4e:	4383      	bics	r3, r0
 8001e50:	4313      	orrs	r3, r2
 8001e52:	704b      	strb	r3, [r1, #1]
        lsb = BMA400_GET_BITS_POS_0(wakeup_conf->timeout_thres, BMA400_WAKEUP_THRES_LSB);
 8001e54:	8868      	ldrh	r0, [r5, #2]
        msb = BMA400_GET_BITS(wakeup_conf->timeout_thres, BMA400_WAKEUP_THRES_MSB);
 8001e56:	1102      	asrs	r2, r0, #4
        data_array[0] = msb;
 8001e58:	700a      	strb	r2, [r1, #0]
        data_array[1] = BMA400_SET_BITS(data_array[1], BMA400_WAKEUP_TIMEOUT_THRES, lsb);
 8001e5a:	220f      	movs	r2, #15
 8001e5c:	4013      	ands	r3, r2
 8001e5e:	0100      	lsls	r0, r0, #4
 8001e60:	4303      	orrs	r3, r0
 8001e62:	704b      	strb	r3, [r1, #1]
        rslt = bma400_set_regs(BMA400_REG_AUTOWAKEUP_0, data_array, 2, dev);
 8001e64:	0023      	movs	r3, r4
 8001e66:	3a0d      	subs	r2, #13
 8001e68:	202c      	movs	r0, #44	@ 0x2c
 8001e6a:	f7ff fcaf 	bl	80017cc <bma400_set_regs>
 8001e6e:	e7e5      	b.n	8001e3c <set_autowakeup_timeout+0x1a>

08001e70 <set_auto_low_power>:
{
 8001e70:	b570      	push	{r4, r5, r6, lr}
 8001e72:	b082      	sub	sp, #8
 8001e74:	0004      	movs	r4, r0
 8001e76:	000d      	movs	r5, r1
    rslt = bma400_get_regs(BMA400_REG_AUTO_LOW_POW_1, &reg_data, 1, dev);
 8001e78:	000b      	movs	r3, r1
 8001e7a:	2201      	movs	r2, #1
 8001e7c:	4669      	mov	r1, sp
 8001e7e:	3107      	adds	r1, #7
 8001e80:	202b      	movs	r0, #43	@ 0x2b
 8001e82:	f7ff fe0e 	bl	8001aa2 <bma400_get_regs>
    if (rslt == BMA400_OK)
 8001e86:	2800      	cmp	r0, #0
 8001e88:	d10d      	bne.n	8001ea6 <set_auto_low_power+0x36>
        reg_data = BMA400_SET_BITS_POS_0(reg_data, BMA400_AUTO_LOW_POW, auto_lp_conf->auto_low_power_trigger);
 8001e8a:	466b      	mov	r3, sp
 8001e8c:	1dd9      	adds	r1, r3, #7
 8001e8e:	79db      	ldrb	r3, [r3, #7]
 8001e90:	7826      	ldrb	r6, [r4, #0]
 8001e92:	220f      	movs	r2, #15
 8001e94:	4393      	bics	r3, r2
 8001e96:	4032      	ands	r2, r6
 8001e98:	4313      	orrs	r3, r2
 8001e9a:	700b      	strb	r3, [r1, #0]
        if (auto_lp_conf->auto_low_power_trigger & 0x0C)
 8001e9c:	230c      	movs	r3, #12
 8001e9e:	4233      	tst	r3, r6
 8001ea0:	d103      	bne.n	8001eaa <set_auto_low_power+0x3a>
        if (rslt == BMA400_OK)
 8001ea2:	2800      	cmp	r0, #0
 8001ea4:	d01d      	beq.n	8001ee2 <set_auto_low_power+0x72>
}
 8001ea6:	b002      	add	sp, #8
 8001ea8:	bd70      	pop	{r4, r5, r6, pc}
            rslt = bma400_get_regs(BMA400_REG_AUTO_LOW_POW_0, &timeout_msb, 1, dev);
 8001eaa:	002b      	movs	r3, r5
 8001eac:	2201      	movs	r2, #1
 8001eae:	4669      	mov	r1, sp
 8001eb0:	3106      	adds	r1, #6
 8001eb2:	302a      	adds	r0, #42	@ 0x2a
 8001eb4:	f7ff fdf5 	bl	8001aa2 <bma400_get_regs>
            if (rslt == BMA400_OK)
 8001eb8:	2800      	cmp	r0, #0
 8001eba:	d1f4      	bne.n	8001ea6 <set_auto_low_power+0x36>
                timeout_msb = BMA400_GET_BITS(auto_lp_conf->auto_lp_timeout_threshold, BMA400_AUTO_LP_THRES);
 8001ebc:	8862      	ldrh	r2, [r4, #2]
 8001ebe:	1113      	asrs	r3, r2, #4
 8001ec0:	4669      	mov	r1, sp
 8001ec2:	3106      	adds	r1, #6
 8001ec4:	700b      	strb	r3, [r1, #0]
                reg_data = BMA400_SET_BITS(reg_data, BMA400_AUTO_LP_TIMEOUT_LSB, timeout_lsb);
 8001ec6:	466b      	mov	r3, sp
 8001ec8:	1dd8      	adds	r0, r3, #7
 8001eca:	79dc      	ldrb	r4, [r3, #7]
 8001ecc:	230f      	movs	r3, #15
 8001ece:	4023      	ands	r3, r4
 8001ed0:	0112      	lsls	r2, r2, #4
 8001ed2:	4313      	orrs	r3, r2
 8001ed4:	7003      	strb	r3, [r0, #0]
                rslt = bma400_set_regs(BMA400_REG_AUTO_LOW_POW_0, &timeout_msb, 1, dev);
 8001ed6:	002b      	movs	r3, r5
 8001ed8:	2201      	movs	r2, #1
 8001eda:	202a      	movs	r0, #42	@ 0x2a
 8001edc:	f7ff fc76 	bl	80017cc <bma400_set_regs>
 8001ee0:	e7df      	b.n	8001ea2 <set_auto_low_power+0x32>
            rslt = bma400_set_regs(BMA400_REG_AUTO_LOW_POW_1, &reg_data, 1, dev);
 8001ee2:	002b      	movs	r3, r5
 8001ee4:	2201      	movs	r2, #1
 8001ee6:	4669      	mov	r1, sp
 8001ee8:	3107      	adds	r1, #7
 8001eea:	302b      	adds	r0, #43	@ 0x2b
 8001eec:	f7ff fc6e 	bl	80017cc <bma400_set_regs>
 8001ef0:	e7d9      	b.n	8001ea6 <set_auto_low_power+0x36>

08001ef2 <set_int_pin_conf>:
            break;
    }
}

static int8_t set_int_pin_conf(struct bma400_int_pin_conf int_conf, struct bma400_dev *dev)
{
 8001ef2:	b530      	push	{r4, r5, lr}
 8001ef4:	b085      	sub	sp, #20
 8001ef6:	ab01      	add	r3, sp, #4
 8001ef8:	8018      	strh	r0, [r3, #0]
 8001efa:	000c      	movs	r4, r1
    int8_t rslt;
    uint8_t reg_data;

    rslt = bma400_get_regs(BMA400_REG_INT_12_IO_CTRL, &reg_data, 1, dev);
 8001efc:	000b      	movs	r3, r1
 8001efe:	2201      	movs	r2, #1
 8001f00:	210f      	movs	r1, #15
 8001f02:	4469      	add	r1, sp
 8001f04:	2024      	movs	r0, #36	@ 0x24
 8001f06:	f7ff fdcc 	bl	8001aa2 <bma400_get_regs>
    if (rslt == BMA400_OK)
 8001f0a:	2800      	cmp	r0, #0
 8001f0c:	d10c      	bne.n	8001f28 <set_int_pin_conf+0x36>
    {
        if (int_conf.int_chan == BMA400_INT_CHANNEL_1)
 8001f0e:	ab01      	add	r3, sp, #4
 8001f10:	781b      	ldrb	r3, [r3, #0]
 8001f12:	2b01      	cmp	r3, #1
 8001f14:	d00a      	beq.n	8001f2c <set_int_pin_conf+0x3a>
        {
            /* Setting interrupt pin configurations */
            reg_data = BMA400_SET_BITS(reg_data, BMA400_INT_PIN1_CONF, int_conf.pin_conf);
        }

        if (int_conf.int_chan == BMA400_INT_CHANNEL_2)
 8001f16:	2b02      	cmp	r3, #2
 8001f18:	d015      	beq.n	8001f46 <set_int_pin_conf+0x54>
            /* Setting interrupt pin configurations */
            reg_data = BMA400_SET_BITS(reg_data, BMA400_INT_PIN2_CONF, int_conf.pin_conf);
        }

        /* Set the configurations in the sensor */
        rslt = bma400_set_regs(BMA400_REG_INT_12_IO_CTRL, &reg_data, 1, dev);
 8001f1a:	0023      	movs	r3, r4
 8001f1c:	2201      	movs	r2, #1
 8001f1e:	210f      	movs	r1, #15
 8001f20:	4469      	add	r1, sp
 8001f22:	2024      	movs	r0, #36	@ 0x24
 8001f24:	f7ff fc52 	bl	80017cc <bma400_set_regs>
    }

    return rslt;
}
 8001f28:	b005      	add	sp, #20
 8001f2a:	bd30      	pop	{r4, r5, pc}
            reg_data = BMA400_SET_BITS(reg_data, BMA400_INT_PIN1_CONF, int_conf.pin_conf);
 8001f2c:	300f      	adds	r0, #15
 8001f2e:	4468      	add	r0, sp
 8001f30:	7802      	ldrb	r2, [r0, #0]
 8001f32:	a901      	add	r1, sp, #4
 8001f34:	784d      	ldrb	r5, [r1, #1]
 8001f36:	006d      	lsls	r5, r5, #1
 8001f38:	2106      	movs	r1, #6
 8001f3a:	4029      	ands	r1, r5
 8001f3c:	2506      	movs	r5, #6
 8001f3e:	43aa      	bics	r2, r5
 8001f40:	430a      	orrs	r2, r1
 8001f42:	7002      	strb	r2, [r0, #0]
 8001f44:	e7e7      	b.n	8001f16 <set_int_pin_conf+0x24>
            reg_data = BMA400_SET_BITS(reg_data, BMA400_INT_PIN2_CONF, int_conf.pin_conf);
 8001f46:	200f      	movs	r0, #15
 8001f48:	4468      	add	r0, sp
 8001f4a:	7803      	ldrb	r3, [r0, #0]
 8001f4c:	aa01      	add	r2, sp, #4
 8001f4e:	7851      	ldrb	r1, [r2, #1]
 8001f50:	0149      	lsls	r1, r1, #5
 8001f52:	2260      	movs	r2, #96	@ 0x60
 8001f54:	400a      	ands	r2, r1
 8001f56:	2160      	movs	r1, #96	@ 0x60
 8001f58:	438b      	bics	r3, r1
 8001f5a:	4313      	orrs	r3, r2
 8001f5c:	7003      	strb	r3, [r0, #0]
 8001f5e:	e7dc      	b.n	8001f1a <set_int_pin_conf+0x28>

08001f60 <set_fifo_conf>:

    return rslt;
}

static int8_t set_fifo_conf(const struct bma400_fifo_conf *fifo_conf, struct bma400_dev *dev)
{
 8001f60:	b530      	push	{r4, r5, lr}
 8001f62:	b083      	sub	sp, #12
 8001f64:	0004      	movs	r4, r0
 8001f66:	000d      	movs	r5, r1
    int8_t rslt;
    uint8_t data_array[3];
    uint8_t sens_data[3];

    /* Check for null pointer in the device structure */
    rslt = null_ptr_check(dev);
 8001f68:	0008      	movs	r0, r1
 8001f6a:	f7ff fa91 	bl	8001490 <null_ptr_check>

    /* Proceed if null check is fine */
    if (rslt == BMA400_OK)
 8001f6e:	2800      	cmp	r0, #0
 8001f70:	d001      	beq.n	8001f76 <set_fifo_conf+0x16>
            }
        }
    }

    return rslt;
}
 8001f72:	b003      	add	sp, #12
 8001f74:	bd30      	pop	{r4, r5, pc}
        rslt = bma400_get_regs(BMA400_REG_FIFO_CONFIG_0, sens_data, 3, dev);
 8001f76:	002b      	movs	r3, r5
 8001f78:	2203      	movs	r2, #3
 8001f7a:	4669      	mov	r1, sp
 8001f7c:	3026      	adds	r0, #38	@ 0x26
 8001f7e:	f7ff fd90 	bl	8001aa2 <bma400_get_regs>
        if (rslt == BMA400_OK)
 8001f82:	2800      	cmp	r0, #0
 8001f84:	d1f5      	bne.n	8001f72 <set_fifo_conf+0x12>
            data_array[0] = fifo_conf->conf_regs;
 8001f86:	7823      	ldrb	r3, [r4, #0]
 8001f88:	aa01      	add	r2, sp, #4
 8001f8a:	7013      	strb	r3, [r2, #0]
            if (fifo_conf->conf_status == BMA400_DISABLE)
 8001f8c:	7862      	ldrb	r2, [r4, #1]
 8001f8e:	2a00      	cmp	r2, #0
 8001f90:	d106      	bne.n	8001fa0 <set_fifo_conf+0x40>
                data_array[0] = sens_data[0] & (~data_array[0]);
 8001f92:	466a      	mov	r2, sp
 8001f94:	7812      	ldrb	r2, [r2, #0]
 8001f96:	43db      	mvns	r3, r3
 8001f98:	b25b      	sxtb	r3, r3
 8001f9a:	4013      	ands	r3, r2
 8001f9c:	aa01      	add	r2, sp, #4
 8001f9e:	7013      	strb	r3, [r2, #0]
            data_array[1] = BMA400_GET_LSB(fifo_conf->fifo_watermark);
 8001fa0:	8863      	ldrh	r3, [r4, #2]
 8001fa2:	78a0      	ldrb	r0, [r4, #2]
 8001fa4:	a901      	add	r1, sp, #4
 8001fa6:	7048      	strb	r0, [r1, #1]
            data_array[2] = BMA400_GET_MSB(fifo_conf->fifo_watermark);
 8001fa8:	0a1b      	lsrs	r3, r3, #8
 8001faa:	708b      	strb	r3, [r1, #2]
            data_array[2] = BMA400_GET_BITS_POS_0(data_array[2], BMA400_FIFO_BYTES_CNT);
 8001fac:	2207      	movs	r2, #7
 8001fae:	4013      	ands	r3, r2
 8001fb0:	708b      	strb	r3, [r1, #2]
            if ((data_array[1] == sens_data[1]) && (data_array[2] == sens_data[2]))
 8001fb2:	466a      	mov	r2, sp
 8001fb4:	7852      	ldrb	r2, [r2, #1]
 8001fb6:	4290      	cmp	r0, r2
 8001fb8:	d103      	bne.n	8001fc2 <set_fifo_conf+0x62>
 8001fba:	466a      	mov	r2, sp
 8001fbc:	7892      	ldrb	r2, [r2, #2]
 8001fbe:	4293      	cmp	r3, r2
 8001fc0:	d006      	beq.n	8001fd0 <set_fifo_conf+0x70>
                rslt = bma400_set_regs(BMA400_REG_FIFO_CONFIG_0, data_array, 3, dev);
 8001fc2:	002b      	movs	r3, r5
 8001fc4:	2203      	movs	r2, #3
 8001fc6:	a901      	add	r1, sp, #4
 8001fc8:	2026      	movs	r0, #38	@ 0x26
 8001fca:	f7ff fbff 	bl	80017cc <bma400_set_regs>
 8001fce:	e7d0      	b.n	8001f72 <set_fifo_conf+0x12>
                rslt = bma400_set_regs(BMA400_REG_FIFO_CONFIG_0, data_array, 1, dev);
 8001fd0:	002b      	movs	r3, r5
 8001fd2:	2201      	movs	r2, #1
 8001fd4:	2026      	movs	r0, #38	@ 0x26
 8001fd6:	f7ff fbf9 	bl	80017cc <bma400_set_regs>
 8001fda:	e7ca      	b.n	8001f72 <set_fifo_conf+0x12>

08001fdc <bma400_set_power_mode>:
{
 8001fdc:	b570      	push	{r4, r5, r6, lr}
 8001fde:	b082      	sub	sp, #8
 8001fe0:	0005      	movs	r5, r0
 8001fe2:	000e      	movs	r6, r1
    uint8_t reg_data = 0;
 8001fe4:	466b      	mov	r3, sp
 8001fe6:	2200      	movs	r2, #0
 8001fe8:	71da      	strb	r2, [r3, #7]
    rslt = null_ptr_check(dev);
 8001fea:	0008      	movs	r0, r1
 8001fec:	f7ff fa50 	bl	8001490 <null_ptr_check>
 8001ff0:	1e04      	subs	r4, r0, #0
    if (rslt == BMA400_OK)
 8001ff2:	d002      	beq.n	8001ffa <bma400_set_power_mode+0x1e>
}
 8001ff4:	0020      	movs	r0, r4
 8001ff6:	b002      	add	sp, #8
 8001ff8:	bd70      	pop	{r4, r5, r6, pc}
        rslt = bma400_get_regs(BMA400_REG_ACCEL_CONFIG_0, &reg_data, 1, dev);
 8001ffa:	0033      	movs	r3, r6
 8001ffc:	2201      	movs	r2, #1
 8001ffe:	4669      	mov	r1, sp
 8002000:	3107      	adds	r1, #7
 8002002:	2019      	movs	r0, #25
 8002004:	f7ff fd4d 	bl	8001aa2 <bma400_get_regs>
 8002008:	1e04      	subs	r4, r0, #0
    if (rslt == BMA400_OK)
 800200a:	d1f3      	bne.n	8001ff4 <bma400_set_power_mode+0x18>
        reg_data = BMA400_SET_BITS_POS_0(reg_data, BMA400_POWER_MODE, power_mode);
 800200c:	466b      	mov	r3, sp
 800200e:	79da      	ldrb	r2, [r3, #7]
 8002010:	2303      	movs	r3, #3
 8002012:	402b      	ands	r3, r5
 8002014:	2103      	movs	r1, #3
 8002016:	438a      	bics	r2, r1
 8002018:	4313      	orrs	r3, r2
 800201a:	466a      	mov	r2, sp
 800201c:	71d3      	strb	r3, [r2, #7]
        rslt = bma400_set_regs(BMA400_REG_ACCEL_CONFIG_0, &reg_data, 1, dev);
 800201e:	0033      	movs	r3, r6
 8002020:	2201      	movs	r2, #1
 8002022:	4669      	mov	r1, sp
 8002024:	3107      	adds	r1, #7
 8002026:	2019      	movs	r0, #25
 8002028:	f7ff fbd0 	bl	80017cc <bma400_set_regs>
 800202c:	0004      	movs	r4, r0
        if (power_mode == BMA400_MODE_LOW_POWER)
 800202e:	2d01      	cmp	r5, #1
 8002030:	d004      	beq.n	800203c <bma400_set_power_mode+0x60>
            dev->delay_us(10000, dev->intf_ptr); /* TBC */
 8002032:	6973      	ldr	r3, [r6, #20]
 8002034:	6871      	ldr	r1, [r6, #4]
 8002036:	4804      	ldr	r0, [pc, #16]	@ (8002048 <bma400_set_power_mode+0x6c>)
 8002038:	4798      	blx	r3
 800203a:	e7db      	b.n	8001ff4 <bma400_set_power_mode+0x18>
            dev->delay_us(40000, dev->intf_ptr);
 800203c:	6973      	ldr	r3, [r6, #20]
 800203e:	6871      	ldr	r1, [r6, #4]
 8002040:	4802      	ldr	r0, [pc, #8]	@ (800204c <bma400_set_power_mode+0x70>)
 8002042:	4798      	blx	r3
 8002044:	e7d6      	b.n	8001ff4 <bma400_set_power_mode+0x18>
 8002046:	46c0      	nop			@ (mov r8, r8)
 8002048:	00002710 	.word	0x00002710
 800204c:	00009c40 	.word	0x00009c40

08002050 <bma400_get_accel_data>:
{
 8002050:	b570      	push	{r4, r5, r6, lr}
 8002052:	0006      	movs	r6, r0
 8002054:	000d      	movs	r5, r1
 8002056:	0014      	movs	r4, r2
    rslt = null_ptr_check(dev);
 8002058:	0010      	movs	r0, r2
 800205a:	f7ff fa19 	bl	8001490 <null_ptr_check>
    if ((rslt == BMA400_OK) && (accel != NULL))
 800205e:	2800      	cmp	r0, #0
 8002060:	d107      	bne.n	8002072 <bma400_get_accel_data+0x22>
 8002062:	2d00      	cmp	r5, #0
 8002064:	d008      	beq.n	8002078 <bma400_get_accel_data+0x28>
        rslt = get_accel_data(data_sel, accel, dev);
 8002066:	0022      	movs	r2, r4
 8002068:	0029      	movs	r1, r5
 800206a:	0030      	movs	r0, r6
 800206c:	f7ff fd92 	bl	8001b94 <get_accel_data>
}
 8002070:	bd70      	pop	{r4, r5, r6, pc}
        rslt = BMA400_E_NULL_PTR;
 8002072:	2001      	movs	r0, #1
 8002074:	4240      	negs	r0, r0
 8002076:	e7fb      	b.n	8002070 <bma400_get_accel_data+0x20>
 8002078:	2001      	movs	r0, #1
 800207a:	4240      	negs	r0, r0
 800207c:	e7f8      	b.n	8002070 <bma400_get_accel_data+0x20>

0800207e <bma400_set_sensor_conf>:
{
 800207e:	b5f0      	push	{r4, r5, r6, r7, lr}
 8002080:	b083      	sub	sp, #12
 8002082:	0006      	movs	r6, r0
 8002084:	000f      	movs	r7, r1
 8002086:	0015      	movs	r5, r2
    uint8_t data_array[3] = { 0 };
 8002088:	2203      	movs	r2, #3
 800208a:	2100      	movs	r1, #0
 800208c:	a801      	add	r0, sp, #4
 800208e:	f002 fb45 	bl	800471c <memset>
    rslt = null_ptr_check(dev);
 8002092:	0028      	movs	r0, r5
 8002094:	f7ff f9fc 	bl	8001490 <null_ptr_check>
    if ((rslt == BMA400_OK) && (conf != NULL))
 8002098:	2800      	cmp	r0, #0
 800209a:	d124      	bne.n	80020e6 <bma400_set_sensor_conf+0x68>
 800209c:	2e00      	cmp	r6, #0
 800209e:	d025      	beq.n	80020ec <bma400_set_sensor_conf+0x6e>
        rslt = bma400_get_regs(BMA400_REG_INT_MAP, data_array, 3, dev);
 80020a0:	002b      	movs	r3, r5
 80020a2:	2203      	movs	r2, #3
 80020a4:	a901      	add	r1, sp, #4
 80020a6:	3021      	adds	r0, #33	@ 0x21
 80020a8:	f7ff fcfb 	bl	8001aa2 <bma400_get_regs>
        if (rslt == BMA400_OK)
 80020ac:	2800      	cmp	r0, #0
 80020ae:	d001      	beq.n	80020b4 <bma400_set_sensor_conf+0x36>
}
 80020b0:	b003      	add	sp, #12
 80020b2:	bdf0      	pop	{r4, r5, r6, r7, pc}
            for (idx = 0; (idx < n_sett) && (rslt == BMA400_OK); idx++)
 80020b4:	2400      	movs	r4, #0
 80020b6:	42bc      	cmp	r4, r7
 80020b8:	d20c      	bcs.n	80020d4 <bma400_set_sensor_conf+0x56>
 80020ba:	2800      	cmp	r0, #0
 80020bc:	d10a      	bne.n	80020d4 <bma400_set_sensor_conf+0x56>
                rslt = set_sensor_conf(data_array, conf + idx, dev);
 80020be:	00a1      	lsls	r1, r4, #2
 80020c0:	1909      	adds	r1, r1, r4
 80020c2:	0089      	lsls	r1, r1, #2
 80020c4:	1871      	adds	r1, r6, r1
 80020c6:	002a      	movs	r2, r5
 80020c8:	a801      	add	r0, sp, #4
 80020ca:	f7ff fe50 	bl	8001d6e <set_sensor_conf>
            for (idx = 0; (idx < n_sett) && (rslt == BMA400_OK); idx++)
 80020ce:	3401      	adds	r4, #1
 80020d0:	b2a4      	uxth	r4, r4
 80020d2:	e7f0      	b.n	80020b6 <bma400_set_sensor_conf+0x38>
            if (rslt == BMA400_OK)
 80020d4:	2800      	cmp	r0, #0
 80020d6:	d1eb      	bne.n	80020b0 <bma400_set_sensor_conf+0x32>
                rslt = bma400_set_regs(BMA400_REG_INT_MAP, data_array, 3, dev);
 80020d8:	002b      	movs	r3, r5
 80020da:	2203      	movs	r2, #3
 80020dc:	a901      	add	r1, sp, #4
 80020de:	3021      	adds	r0, #33	@ 0x21
 80020e0:	f7ff fb74 	bl	80017cc <bma400_set_regs>
 80020e4:	e7e4      	b.n	80020b0 <bma400_set_sensor_conf+0x32>
        rslt = BMA400_E_NULL_PTR;
 80020e6:	2001      	movs	r0, #1
 80020e8:	4240      	negs	r0, r0
 80020ea:	e7e1      	b.n	80020b0 <bma400_set_sensor_conf+0x32>
 80020ec:	2001      	movs	r0, #1
 80020ee:	4240      	negs	r0, r0
 80020f0:	e7de      	b.n	80020b0 <bma400_set_sensor_conf+0x32>
	...

080020f4 <bma400_set_device_conf>:
{
 80020f4:	b5f0      	push	{r4, r5, r6, r7, lr}
 80020f6:	46ce      	mov	lr, r9
 80020f8:	4647      	mov	r7, r8
 80020fa:	b580      	push	{r7, lr}
 80020fc:	b083      	sub	sp, #12
 80020fe:	0006      	movs	r6, r0
 8002100:	000f      	movs	r7, r1
 8002102:	4690      	mov	r8, r2
    uint8_t data_array[3] = { 0 };
 8002104:	2203      	movs	r2, #3
 8002106:	2100      	movs	r1, #0
 8002108:	a801      	add	r0, sp, #4
 800210a:	f002 fb07 	bl	800471c <memset>
    rslt = null_ptr_check(dev);
 800210e:	4640      	mov	r0, r8
 8002110:	f7ff f9be 	bl	8001490 <null_ptr_check>
    if ((rslt == BMA400_OK) && (conf != NULL))
 8002114:	2800      	cmp	r0, #0
 8002116:	d000      	beq.n	800211a <bma400_set_device_conf+0x26>
 8002118:	e06d      	b.n	80021f6 <bma400_set_device_conf+0x102>
 800211a:	2e00      	cmp	r6, #0
 800211c:	d100      	bne.n	8002120 <bma400_set_device_conf+0x2c>
 800211e:	e06d      	b.n	80021fc <bma400_set_device_conf+0x108>
        rslt = bma400_get_regs(BMA400_REG_INT_MAP, data_array, 3, dev);
 8002120:	4643      	mov	r3, r8
 8002122:	2203      	movs	r2, #3
 8002124:	a901      	add	r1, sp, #4
 8002126:	3021      	adds	r0, #33	@ 0x21
 8002128:	f7ff fcbb 	bl	8001aa2 <bma400_get_regs>
 800212c:	0005      	movs	r5, r0
        for (idx = 0; (idx < n_sett) && (rslt == BMA400_OK); idx++)
 800212e:	2400      	movs	r4, #0
 8002130:	e007      	b.n	8002142 <bma400_set_device_conf+0x4e>
                    rslt = set_autowakeup_timeout(&conf[idx].param.auto_wakeup, dev);
 8002132:	4648      	mov	r0, r9
 8002134:	3002      	adds	r0, #2
 8002136:	4641      	mov	r1, r8
 8002138:	f7ff fe73 	bl	8001e22 <set_autowakeup_timeout>
 800213c:	0005      	movs	r5, r0
        for (idx = 0; (idx < n_sett) && (rslt == BMA400_OK); idx++)
 800213e:	3401      	adds	r4, #1
 8002140:	b2a4      	uxth	r4, r4
 8002142:	42a7      	cmp	r7, r4
 8002144:	d947      	bls.n	80021d6 <bma400_set_device_conf+0xe2>
 8002146:	2d00      	cmp	r5, #0
 8002148:	d145      	bne.n	80021d6 <bma400_set_device_conf+0xe2>
            switch (conf[idx].type)
 800214a:	00a3      	lsls	r3, r4, #2
 800214c:	191b      	adds	r3, r3, r4
 800214e:	005b      	lsls	r3, r3, #1
 8002150:	18f2      	adds	r2, r6, r3
 8002152:	4691      	mov	r9, r2
 8002154:	5cf3      	ldrb	r3, [r6, r3]
 8002156:	2b05      	cmp	r3, #5
 8002158:	d83a      	bhi.n	80021d0 <bma400_set_device_conf+0xdc>
 800215a:	009b      	lsls	r3, r3, #2
 800215c:	4a29      	ldr	r2, [pc, #164]	@ (8002204 <bma400_set_device_conf+0x110>)
 800215e:	58d3      	ldr	r3, [r2, r3]
 8002160:	469f      	mov	pc, r3
                    rslt = set_autowakeup_interrupt(&conf[idx].param.wakeup, dev);
 8002162:	464b      	mov	r3, r9
 8002164:	1c98      	adds	r0, r3, #2
 8002166:	4641      	mov	r1, r8
 8002168:	f7ff fc70 	bl	8001a4c <set_autowakeup_interrupt>
 800216c:	1e05      	subs	r5, r0, #0
                    if (rslt == BMA400_OK)
 800216e:	d1e6      	bne.n	800213e <bma400_set_device_conf+0x4a>
                        map_int_pin(data_array, BMA400_WAKEUP_INT_MAP, conf[idx].param.wakeup.int_chan);
 8002170:	464b      	mov	r3, r9
 8002172:	7a5a      	ldrb	r2, [r3, #9]
 8002174:	2107      	movs	r1, #7
 8002176:	a801      	add	r0, sp, #4
 8002178:	f7ff f9a4 	bl	80014c4 <map_int_pin>
 800217c:	e7df      	b.n	800213e <bma400_set_device_conf+0x4a>
                    rslt = set_auto_low_power(&conf[idx].param.auto_lp, dev);
 800217e:	4648      	mov	r0, r9
 8002180:	3002      	adds	r0, #2
 8002182:	4641      	mov	r1, r8
 8002184:	f7ff fe74 	bl	8001e70 <set_auto_low_power>
 8002188:	0005      	movs	r5, r0
                    break;
 800218a:	e7d8      	b.n	800213e <bma400_set_device_conf+0x4a>
                    rslt = set_int_pin_conf(conf[idx].param.int_conf, dev);
 800218c:	464b      	mov	r3, r9
 800218e:	8858      	ldrh	r0, [r3, #2]
 8002190:	4641      	mov	r1, r8
 8002192:	f7ff feae 	bl	8001ef2 <set_int_pin_conf>
 8002196:	0005      	movs	r5, r0
                    break;
 8002198:	e7d1      	b.n	800213e <bma400_set_device_conf+0x4a>
                    map_int_pin(data_array, BMA400_INT_OVERRUN_MAP, conf[idx].param.overrun_int.int_chan);
 800219a:	464b      	mov	r3, r9
 800219c:	789a      	ldrb	r2, [r3, #2]
 800219e:	210b      	movs	r1, #11
 80021a0:	a801      	add	r0, sp, #4
 80021a2:	f7ff f98f 	bl	80014c4 <map_int_pin>
                    break;
 80021a6:	e7ca      	b.n	800213e <bma400_set_device_conf+0x4a>
                    rslt = set_fifo_conf(&conf[idx].param.fifo_conf, dev);
 80021a8:	464b      	mov	r3, r9
 80021aa:	1c98      	adds	r0, r3, #2
 80021ac:	4641      	mov	r1, r8
 80021ae:	f7ff fed7 	bl	8001f60 <set_fifo_conf>
 80021b2:	1e05      	subs	r5, r0, #0
                    if (rslt == BMA400_OK)
 80021b4:	d1c3      	bne.n	800213e <bma400_set_device_conf+0x4a>
                        map_int_pin(data_array, BMA400_FIFO_WM_INT_MAP, conf[idx].param.fifo_conf.fifo_wm_channel);
 80021b6:	464b      	mov	r3, r9
 80021b8:	79da      	ldrb	r2, [r3, #7]
 80021ba:	2102      	movs	r1, #2
 80021bc:	a801      	add	r0, sp, #4
 80021be:	f7ff f981 	bl	80014c4 <map_int_pin>
                        map_int_pin(data_array, BMA400_FIFO_FULL_INT_MAP, conf[idx].param.fifo_conf.fifo_full_channel);
 80021c2:	464b      	mov	r3, r9
 80021c4:	799a      	ldrb	r2, [r3, #6]
 80021c6:	2103      	movs	r1, #3
 80021c8:	a801      	add	r0, sp, #4
 80021ca:	f7ff f97b 	bl	80014c4 <map_int_pin>
 80021ce:	e7b6      	b.n	800213e <bma400_set_device_conf+0x4a>
            switch (conf[idx].type)
 80021d0:	2504      	movs	r5, #4
 80021d2:	426d      	negs	r5, r5
 80021d4:	e7b3      	b.n	800213e <bma400_set_device_conf+0x4a>
        if (rslt == BMA400_OK)
 80021d6:	2d00      	cmp	r5, #0
 80021d8:	d005      	beq.n	80021e6 <bma400_set_device_conf+0xf2>
}
 80021da:	0028      	movs	r0, r5
 80021dc:	b003      	add	sp, #12
 80021de:	bcc0      	pop	{r6, r7}
 80021e0:	46b9      	mov	r9, r7
 80021e2:	46b0      	mov	r8, r6
 80021e4:	bdf0      	pop	{r4, r5, r6, r7, pc}
            rslt = bma400_set_regs(BMA400_REG_INT_MAP, data_array, 3, dev);
 80021e6:	4643      	mov	r3, r8
 80021e8:	2203      	movs	r2, #3
 80021ea:	a901      	add	r1, sp, #4
 80021ec:	2021      	movs	r0, #33	@ 0x21
 80021ee:	f7ff faed 	bl	80017cc <bma400_set_regs>
 80021f2:	0005      	movs	r5, r0
 80021f4:	e7f1      	b.n	80021da <bma400_set_device_conf+0xe6>
        rslt = BMA400_E_NULL_PTR;
 80021f6:	2501      	movs	r5, #1
 80021f8:	426d      	negs	r5, r5
 80021fa:	e7ee      	b.n	80021da <bma400_set_device_conf+0xe6>
 80021fc:	2501      	movs	r5, #1
 80021fe:	426d      	negs	r5, r5
 8002200:	e7eb      	b.n	80021da <bma400_set_device_conf+0xe6>
 8002202:	46c0      	nop			@ (mov r8, r8)
 8002204:	08005a58 	.word	0x08005a58

08002208 <set_auto_wakeup>:
{
 8002208:	b530      	push	{r4, r5, lr}
 800220a:	b083      	sub	sp, #12
 800220c:	0005      	movs	r5, r0
 800220e:	000c      	movs	r4, r1
    rslt = bma400_get_regs(BMA400_REG_AUTOWAKEUP_1, &reg_data, 1, dev);
 8002210:	000b      	movs	r3, r1
 8002212:	2201      	movs	r2, #1
 8002214:	4669      	mov	r1, sp
 8002216:	3107      	adds	r1, #7
 8002218:	202d      	movs	r0, #45	@ 0x2d
 800221a:	f7ff fc42 	bl	8001aa2 <bma400_get_regs>
    if (rslt == BMA400_OK)
 800221e:	2800      	cmp	r0, #0
 8002220:	d001      	beq.n	8002226 <set_auto_wakeup+0x1e>
}
 8002222:	b003      	add	sp, #12
 8002224:	bd30      	pop	{r4, r5, pc}
        reg_data = BMA400_SET_BITS(reg_data, BMA400_WAKEUP_INTERRUPT, conf);
 8002226:	466b      	mov	r3, sp
 8002228:	79db      	ldrb	r3, [r3, #7]
 800222a:	006d      	lsls	r5, r5, #1
 800222c:	2202      	movs	r2, #2
 800222e:	402a      	ands	r2, r5
 8002230:	2102      	movs	r1, #2
 8002232:	438b      	bics	r3, r1
 8002234:	4313      	orrs	r3, r2
 8002236:	466a      	mov	r2, sp
 8002238:	71d3      	strb	r3, [r2, #7]
        rslt = bma400_set_regs(BMA400_REG_AUTOWAKEUP_1, &reg_data, 1, dev);
 800223a:	0023      	movs	r3, r4
 800223c:	2201      	movs	r2, #1
 800223e:	4669      	mov	r1, sp
 8002240:	3107      	adds	r1, #7
 8002242:	302d      	adds	r0, #45	@ 0x2d
 8002244:	f7ff fac2 	bl	80017cc <bma400_set_regs>
 8002248:	e7eb      	b.n	8002222 <set_auto_wakeup+0x1a>

0800224a <user_i2c_read>:

    return rslt;
}

int8_t user_i2c_read(uint8_t reg_addr, uint8_t *data, uint32_t len, void *intf_ptr)
{
 800224a:	b510      	push	{r4, lr}
 800224c:	b084      	sub	sp, #16
 800224e:	0004      	movs	r4, r0
 8002250:	0018      	movs	r0, r3
    I2C_HandleTypeDef *hi2c = (I2C_HandleTypeDef *)intf_ptr;

    if (HAL_I2C_Mem_Read(hi2c, BMA400_I2C_ADDR, reg_addr,
 8002252:	2301      	movs	r3, #1
 8002254:	425b      	negs	r3, r3
 8002256:	9302      	str	r3, [sp, #8]
 8002258:	b292      	uxth	r2, r2
 800225a:	9201      	str	r2, [sp, #4]
 800225c:	9100      	str	r1, [sp, #0]
 800225e:	3302      	adds	r3, #2
 8002260:	0022      	movs	r2, r4
 8002262:	2128      	movs	r1, #40	@ 0x28
 8002264:	f001 f8aa 	bl	80033bc <HAL_I2C_Mem_Read>
 8002268:	2800      	cmp	r0, #0
 800226a:	d101      	bne.n	8002270 <user_i2c_read+0x26>
    }
    else
    {
        return BMA400_E_COM_FAIL;
    }
}
 800226c:	b004      	add	sp, #16
 800226e:	bd10      	pop	{r4, pc}
        return BMA400_E_COM_FAIL;
 8002270:	2002      	movs	r0, #2
 8002272:	4240      	negs	r0, r0
 8002274:	e7fa      	b.n	800226c <user_i2c_read+0x22>

08002276 <user_i2c_write>:

int8_t user_i2c_write(uint8_t reg_addr, const uint8_t *data, uint32_t len, void *intf_ptr)
{
 8002276:	b510      	push	{r4, lr}
 8002278:	b084      	sub	sp, #16
 800227a:	0004      	movs	r4, r0
 800227c:	0018      	movs	r0, r3
    I2C_HandleTypeDef *hi2c = (I2C_HandleTypeDef *)intf_ptr;

    if (HAL_I2C_Mem_Write(hi2c, BMA400_I2C_ADDR, reg_addr,
 800227e:	2301      	movs	r3, #1
 8002280:	425b      	negs	r3, r3
 8002282:	9302      	str	r3, [sp, #8]
 8002284:	b292      	uxth	r2, r2
 8002286:	9201      	str	r2, [sp, #4]
 8002288:	9100      	str	r1, [sp, #0]
 800228a:	3302      	adds	r3, #2
 800228c:	0022      	movs	r2, r4
 800228e:	2128      	movs	r1, #40	@ 0x28
 8002290:	f000 ffc4 	bl	800321c <HAL_I2C_Mem_Write>
 8002294:	2800      	cmp	r0, #0
 8002296:	d101      	bne.n	800229c <user_i2c_write+0x26>
    }
    else
    {
        return BMA400_E_COM_FAIL;
    }
}
 8002298:	b004      	add	sp, #16
 800229a:	bd10      	pop	{r4, pc}
        return BMA400_E_COM_FAIL;
 800229c:	2002      	movs	r0, #2
 800229e:	4240      	negs	r0, r0
 80022a0:	e7fa      	b.n	8002298 <user_i2c_write+0x22>

080022a2 <user_delay_us>:

void user_delay_us(uint32_t period, void *intf_ptr)
{
 80022a2:	b510      	push	{r4, lr}
    // Zakadamy, e potrzebne opnienia maj  1000us (1ms)
    HAL_Delay(period / 1000);
 80022a4:	21fa      	movs	r1, #250	@ 0xfa
 80022a6:	0089      	lsls	r1, r1, #2
 80022a8:	f7fd ff40 	bl	800012c <__udivsi3>
 80022ac:	f000 fc24 	bl	8002af8 <HAL_Delay>

    // Jeli potrzebujesz dokadniejszych opnie  patrz niej
}
 80022b0:	bd10      	pop	{r4, pc}
	...

080022b4 <MX_GPIO_Init>:
        * Output
        * EVENT_OUT
        * EXTI
*/
void MX_GPIO_Init(void)
{
 80022b4:	b5f0      	push	{r4, r5, r6, r7, lr}
 80022b6:	b08b      	sub	sp, #44	@ 0x2c

  GPIO_InitTypeDef GPIO_InitStruct = {0};
 80022b8:	2214      	movs	r2, #20
 80022ba:	2100      	movs	r1, #0
 80022bc:	a805      	add	r0, sp, #20
 80022be:	f002 fa2d 	bl	800471c <memset>

  /* GPIO Ports Clock Enable */
  __HAL_RCC_GPIOC_CLK_ENABLE();
 80022c2:	4b22      	ldr	r3, [pc, #136]	@ (800234c <MX_GPIO_Init+0x98>)
 80022c4:	6b5a      	ldr	r2, [r3, #52]	@ 0x34
 80022c6:	2404      	movs	r4, #4
 80022c8:	4322      	orrs	r2, r4
 80022ca:	635a      	str	r2, [r3, #52]	@ 0x34
 80022cc:	6b5a      	ldr	r2, [r3, #52]	@ 0x34
 80022ce:	4022      	ands	r2, r4
 80022d0:	9201      	str	r2, [sp, #4]
 80022d2:	9a01      	ldr	r2, [sp, #4]
  __HAL_RCC_GPIOF_CLK_ENABLE();
 80022d4:	6b59      	ldr	r1, [r3, #52]	@ 0x34
 80022d6:	2220      	movs	r2, #32
 80022d8:	4311      	orrs	r1, r2
 80022da:	6359      	str	r1, [r3, #52]	@ 0x34
 80022dc:	6b59      	ldr	r1, [r3, #52]	@ 0x34
 80022de:	400a      	ands	r2, r1
 80022e0:	9202      	str	r2, [sp, #8]
 80022e2:	9a02      	ldr	r2, [sp, #8]
  __HAL_RCC_GPIOA_CLK_ENABLE();
 80022e4:	6b5a      	ldr	r2, [r3, #52]	@ 0x34
 80022e6:	2501      	movs	r5, #1
 80022e8:	432a      	orrs	r2, r5
 80022ea:	635a      	str	r2, [r3, #52]	@ 0x34
 80022ec:	6b5a      	ldr	r2, [r3, #52]	@ 0x34
 80022ee:	402a      	ands	r2, r5
 80022f0:	9203      	str	r2, [sp, #12]
 80022f2:	9a03      	ldr	r2, [sp, #12]
  __HAL_RCC_GPIOB_CLK_ENABLE();
 80022f4:	6b59      	ldr	r1, [r3, #52]	@ 0x34
 80022f6:	2202      	movs	r2, #2
 80022f8:	4311      	orrs	r1, r2
 80022fa:	6359      	str	r1, [r3, #52]	@ 0x34
 80022fc:	6b5b      	ldr	r3, [r3, #52]	@ 0x34
 80022fe:	401a      	ands	r2, r3
 8002300:	9204      	str	r2, [sp, #16]
 8002302:	9b04      	ldr	r3, [sp, #16]

  /*Configure GPIO pin Output Level */
  HAL_GPIO_WritePin(GPIOA, EN_IO_Pin|LED1_Pin|LED2_Pin, GPIO_PIN_RESET);
 8002304:	27d0      	movs	r7, #208	@ 0xd0
 8002306:	007f      	lsls	r7, r7, #1
 8002308:	26a0      	movs	r6, #160	@ 0xa0
 800230a:	05f6      	lsls	r6, r6, #23
 800230c:	2200      	movs	r2, #0
 800230e:	0039      	movs	r1, r7
 8002310:	0030      	movs	r0, r6
 8002312:	f000 fd43 	bl	8002d9c <HAL_GPIO_WritePin>

  /*Configure GPIO pin : NRST_Pin */
  GPIO_InitStruct.Pin = NRST_Pin;
 8002316:	9405      	str	r4, [sp, #20]
  GPIO_InitStruct.Mode = GPIO_MODE_INPUT;
 8002318:	2400      	movs	r4, #0
 800231a:	9406      	str	r4, [sp, #24]
  GPIO_InitStruct.Pull = GPIO_NOPULL;
 800231c:	9407      	str	r4, [sp, #28]
  HAL_GPIO_Init(NRST_GPIO_Port, &GPIO_InitStruct);
 800231e:	a905      	add	r1, sp, #20
 8002320:	480b      	ldr	r0, [pc, #44]	@ (8002350 <MX_GPIO_Init+0x9c>)
 8002322:	f000 fc63 	bl	8002bec <HAL_GPIO_Init>

  /*Configure GPIO pins : EN_IO_Pin LED1_Pin LED2_Pin */
  GPIO_InitStruct.Pin = EN_IO_Pin|LED1_Pin|LED2_Pin;
 8002326:	9705      	str	r7, [sp, #20]
  GPIO_InitStruct.Mode = GPIO_MODE_OUTPUT_PP;
 8002328:	9506      	str	r5, [sp, #24]
  GPIO_InitStruct.Pull = GPIO_NOPULL;
 800232a:	9407      	str	r4, [sp, #28]
  GPIO_InitStruct.Speed = GPIO_SPEED_FREQ_LOW;
 800232c:	9408      	str	r4, [sp, #32]
  HAL_GPIO_Init(GPIOA, &GPIO_InitStruct);
 800232e:	a905      	add	r1, sp, #20
 8002330:	0030      	movs	r0, r6
 8002332:	f000 fc5b 	bl	8002bec <HAL_GPIO_Init>

  /*Configure GPIO pin : Button_Pin */
  GPIO_InitStruct.Pin = Button_Pin;
 8002336:	2340      	movs	r3, #64	@ 0x40
 8002338:	9305      	str	r3, [sp, #20]
  GPIO_InitStruct.Mode = GPIO_MODE_INPUT;
 800233a:	9406      	str	r4, [sp, #24]
  GPIO_InitStruct.Pull = GPIO_PULLUP;
 800233c:	9507      	str	r5, [sp, #28]
  HAL_GPIO_Init(Button_GPIO_Port, &GPIO_InitStruct);
 800233e:	a905      	add	r1, sp, #20
 8002340:	0030      	movs	r0, r6
 8002342:	f000 fc53 	bl	8002bec <HAL_GPIO_Init>

}
 8002346:	b00b      	add	sp, #44	@ 0x2c
 8002348:	bdf0      	pop	{r4, r5, r6, r7, pc}
 800234a:	46c0      	nop			@ (mov r8, r8)
 800234c:	40021000 	.word	0x40021000
 8002350:	50001400 	.word	0x50001400

08002354 <MX_I2C1_Init>:

I2C_HandleTypeDef hi2c1;

/* I2C1 init function */
void MX_I2C1_Init(void)
{
 8002354:	b510      	push	{r4, lr}
  /* USER CODE END I2C1_Init 0 */

  /* USER CODE BEGIN I2C1_Init 1 */

  /* USER CODE END I2C1_Init 1 */
  hi2c1.Instance = I2C1;
 8002356:	4814      	ldr	r0, [pc, #80]	@ (80023a8 <MX_I2C1_Init+0x54>)
 8002358:	4b14      	ldr	r3, [pc, #80]	@ (80023ac <MX_I2C1_Init+0x58>)
 800235a:	6003      	str	r3, [r0, #0]
  hi2c1.Init.Timing = 0x00402D41;
 800235c:	4b14      	ldr	r3, [pc, #80]	@ (80023b0 <MX_I2C1_Init+0x5c>)
 800235e:	6043      	str	r3, [r0, #4]
  hi2c1.Init.OwnAddress1 = 0;
 8002360:	2300      	movs	r3, #0
 8002362:	6083      	str	r3, [r0, #8]
  hi2c1.Init.AddressingMode = I2C_ADDRESSINGMODE_7BIT;
 8002364:	2201      	movs	r2, #1
 8002366:	60c2      	str	r2, [r0, #12]
  hi2c1.Init.DualAddressMode = I2C_DUALADDRESS_DISABLE;
 8002368:	6103      	str	r3, [r0, #16]
  hi2c1.Init.OwnAddress2 = 0;
 800236a:	6143      	str	r3, [r0, #20]
  hi2c1.Init.OwnAddress2Masks = I2C_OA2_NOMASK;
 800236c:	6183      	str	r3, [r0, #24]
  hi2c1.Init.GeneralCallMode = I2C_GENERALCALL_DISABLE;
 800236e:	61c3      	str	r3, [r0, #28]
  hi2c1.Init.NoStretchMode = I2C_NOSTRETCH_DISABLE;
 8002370:	6203      	str	r3, [r0, #32]
  if (HAL_I2C_Init(&hi2c1) != HAL_OK)
 8002372:	f000 fee5 	bl	8003140 <HAL_I2C_Init>
 8002376:	2800      	cmp	r0, #0
 8002378:	d10c      	bne.n	8002394 <MX_I2C1_Init+0x40>
    Error_Handler();
  }

  /** Configure Analogue filter
  */
  if (HAL_I2CEx_ConfigAnalogFilter(&hi2c1, I2C_ANALOGFILTER_ENABLE) != HAL_OK)
 800237a:	480b      	ldr	r0, [pc, #44]	@ (80023a8 <MX_I2C1_Init+0x54>)
 800237c:	2100      	movs	r1, #0
 800237e:	f001 f8f1 	bl	8003564 <HAL_I2CEx_ConfigAnalogFilter>
 8002382:	2800      	cmp	r0, #0
 8002384:	d109      	bne.n	800239a <MX_I2C1_Init+0x46>
    Error_Handler();
  }

  /** Configure Digital filter
  */
  if (HAL_I2CEx_ConfigDigitalFilter(&hi2c1, 0) != HAL_OK)
 8002386:	4808      	ldr	r0, [pc, #32]	@ (80023a8 <MX_I2C1_Init+0x54>)
 8002388:	2100      	movs	r1, #0
 800238a:	f001 f917 	bl	80035bc <HAL_I2CEx_ConfigDigitalFilter>
 800238e:	2800      	cmp	r0, #0
 8002390:	d106      	bne.n	80023a0 <MX_I2C1_Init+0x4c>
  }
  /* USER CODE BEGIN I2C1_Init 2 */

  /* USER CODE END I2C1_Init 2 */

}
 8002392:	bd10      	pop	{r4, pc}
    Error_Handler();
 8002394:	f000 f97e 	bl	8002694 <Error_Handler>
 8002398:	e7ef      	b.n	800237a <MX_I2C1_Init+0x26>
    Error_Handler();
 800239a:	f000 f97b 	bl	8002694 <Error_Handler>
 800239e:	e7f2      	b.n	8002386 <MX_I2C1_Init+0x32>
    Error_Handler();
 80023a0:	f000 f978 	bl	8002694 <Error_Handler>
}
 80023a4:	e7f5      	b.n	8002392 <MX_I2C1_Init+0x3e>
 80023a6:	46c0      	nop			@ (mov r8, r8)
 80023a8:	20000098 	.word	0x20000098
 80023ac:	40005400 	.word	0x40005400
 80023b0:	00402d41 	.word	0x00402d41

080023b4 <HAL_I2C_MspInit>:

void HAL_I2C_MspInit(I2C_HandleTypeDef* i2cHandle)
{
 80023b4:	b510      	push	{r4, lr}
 80023b6:	b08e      	sub	sp, #56	@ 0x38
 80023b8:	0004      	movs	r4, r0

  GPIO_InitTypeDef GPIO_InitStruct = {0};
 80023ba:	2214      	movs	r2, #20
 80023bc:	2100      	movs	r1, #0
 80023be:	a809      	add	r0, sp, #36	@ 0x24
 80023c0:	f002 f9ac 	bl	800471c <memset>
  RCC_PeriphCLKInitTypeDef PeriphClkInit = {0};
 80023c4:	221c      	movs	r2, #28
 80023c6:	2100      	movs	r1, #0
 80023c8:	a802      	add	r0, sp, #8
 80023ca:	f002 f9a7 	bl	800471c <memset>
  if(i2cHandle->Instance==I2C1)
 80023ce:	6822      	ldr	r2, [r4, #0]
 80023d0:	4b17      	ldr	r3, [pc, #92]	@ (8002430 <HAL_I2C_MspInit+0x7c>)
 80023d2:	429a      	cmp	r2, r3
 80023d4:	d001      	beq.n	80023da <HAL_I2C_MspInit+0x26>
    __HAL_RCC_I2C1_CLK_ENABLE();
  /* USER CODE BEGIN I2C1_MspInit 1 */

  /* USER CODE END I2C1_MspInit 1 */
  }
}
 80023d6:	b00e      	add	sp, #56	@ 0x38
 80023d8:	bd10      	pop	{r4, pc}
    PeriphClkInit.PeriphClockSelection = RCC_PERIPHCLK_I2C1;
 80023da:	2302      	movs	r3, #2
 80023dc:	9302      	str	r3, [sp, #8]
    if (HAL_RCCEx_PeriphCLKConfig(&PeriphClkInit) != HAL_OK)
 80023de:	a802      	add	r0, sp, #8
 80023e0:	f001 fbb2 	bl	8003b48 <HAL_RCCEx_PeriphCLKConfig>
 80023e4:	2800      	cmp	r0, #0
 80023e6:	d120      	bne.n	800242a <HAL_I2C_MspInit+0x76>
    __HAL_RCC_GPIOB_CLK_ENABLE();
 80023e8:	4c12      	ldr	r4, [pc, #72]	@ (8002434 <HAL_I2C_MspInit+0x80>)
 80023ea:	6b62      	ldr	r2, [r4, #52]	@ 0x34
 80023ec:	2302      	movs	r3, #2
 80023ee:	431a      	orrs	r2, r3
 80023f0:	6362      	str	r2, [r4, #52]	@ 0x34
 80023f2:	6b62      	ldr	r2, [r4, #52]	@ 0x34
 80023f4:	4013      	ands	r3, r2
 80023f6:	9300      	str	r3, [sp, #0]
 80023f8:	9b00      	ldr	r3, [sp, #0]
    GPIO_InitStruct.Pin = GPIO_PIN_6|GPIO_PIN_7;
 80023fa:	23c0      	movs	r3, #192	@ 0xc0
 80023fc:	9309      	str	r3, [sp, #36]	@ 0x24
    GPIO_InitStruct.Mode = GPIO_MODE_AF_OD;
 80023fe:	3bae      	subs	r3, #174	@ 0xae
 8002400:	930a      	str	r3, [sp, #40]	@ 0x28
    GPIO_InitStruct.Pull = GPIO_PULLUP;
 8002402:	3b11      	subs	r3, #17
 8002404:	930b      	str	r3, [sp, #44]	@ 0x2c
    GPIO_InitStruct.Speed = GPIO_SPEED_FREQ_LOW;
 8002406:	2300      	movs	r3, #0
 8002408:	930c      	str	r3, [sp, #48]	@ 0x30
    GPIO_InitStruct.Alternate = GPIO_AF6_I2C1;
 800240a:	3306      	adds	r3, #6
 800240c:	930d      	str	r3, [sp, #52]	@ 0x34
    HAL_GPIO_Init(GPIOB, &GPIO_InitStruct);
 800240e:	a909      	add	r1, sp, #36	@ 0x24
 8002410:	4809      	ldr	r0, [pc, #36]	@ (8002438 <HAL_I2C_MspInit+0x84>)
 8002412:	f000 fbeb 	bl	8002bec <HAL_GPIO_Init>
    __HAL_RCC_I2C1_CLK_ENABLE();
 8002416:	6be3      	ldr	r3, [r4, #60]	@ 0x3c
 8002418:	2280      	movs	r2, #128	@ 0x80
 800241a:	0392      	lsls	r2, r2, #14
 800241c:	4313      	orrs	r3, r2
 800241e:	63e3      	str	r3, [r4, #60]	@ 0x3c
 8002420:	6be3      	ldr	r3, [r4, #60]	@ 0x3c
 8002422:	4013      	ands	r3, r2
 8002424:	9301      	str	r3, [sp, #4]
 8002426:	9b01      	ldr	r3, [sp, #4]
}
 8002428:	e7d5      	b.n	80023d6 <HAL_I2C_MspInit+0x22>
      Error_Handler();
 800242a:	f000 f933 	bl	8002694 <Error_Handler>
 800242e:	e7db      	b.n	80023e8 <HAL_I2C_MspInit+0x34>
 8002430:	40005400 	.word	0x40005400
 8002434:	40021000 	.word	0x40021000
 8002438:	50000400 	.word	0x50000400

0800243c <enterStandby>:
/* USER CODE END PFP */

/* Private user code ---------------------------------------------------------*/
/* USER CODE BEGIN 0 */
void enterStandby(void)
{
 800243c:	b510      	push	{r4, lr}
	__HAL_PWR_CLEAR_FLAG(PWR_FLAG_WUF);
 800243e:	4b04      	ldr	r3, [pc, #16]	@ (8002450 <enterStandby+0x14>)
 8002440:	4a04      	ldr	r2, [pc, #16]	@ (8002454 <enterStandby+0x18>)
 8002442:	619a      	str	r2, [r3, #24]
  	HAL_PWR_EnableWakeUpPin(PWR_WAKEUP_PIN1);
 8002444:	2001      	movs	r0, #1
 8002446:	f001 f8e3 	bl	8003610 <HAL_PWR_EnableWakeUpPin>
    HAL_PWR_EnterSTANDBYMode();
 800244a:	f001 f8ef 	bl	800362c <HAL_PWR_EnterSTANDBYMode>
}
 800244e:	bd10      	pop	{r4, pc}
 8002450:	40007000 	.word	0x40007000
 8002454:	0001002f 	.word	0x0001002f

08002458 <configureBMA400>:

// Configure BMA400 for low power + wake-up on Y-axis motion
void configureBMA400(struct bma400_dev *dev)
{
 8002458:	b5f0      	push	{r4, r5, r6, r7, lr}
 800245a:	b08f      	sub	sp, #60	@ 0x3c
 800245c:	0005      	movs	r5, r0
	bma400_set_power_mode(BMA400_MODE_LOW_POWER, dev);
 800245e:	0001      	movs	r1, r0
 8002460:	2001      	movs	r0, #1
 8002462:	f7ff fdbb 	bl	8001fdc <bma400_set_power_mode>

	struct bma400_device_conf dev_conf[] = {
 8002466:	ac06      	add	r4, sp, #24
 8002468:	221e      	movs	r2, #30
 800246a:	2100      	movs	r1, #0
 800246c:	0020      	movs	r0, r4
 800246e:	f002 f955 	bl	800471c <memset>
 8002472:	2302      	movs	r3, #2
 8002474:	7023      	strb	r3, [r4, #0]
 8002476:	220e      	movs	r2, #14
 8002478:	70a2      	strb	r2, [r4, #2]
 800247a:	32ba      	adds	r2, #186	@ 0xba
 800247c:	80a2      	strh	r2, [r4, #4]
 800247e:	2601      	movs	r6, #1
 8002480:	72a6      	strb	r6, [r4, #10]
 8002482:	7323      	strb	r3, [r4, #12]
 8002484:	73a3      	strb	r3, [r4, #14]
 8002486:	3ac3      	subs	r2, #195	@ 0xc3
 8002488:	73e2      	strb	r2, [r4, #15]
 800248a:	74e6      	strb	r6, [r4, #19]
 800248c:	2703      	movs	r7, #3
 800248e:	7527      	strb	r7, [r4, #20]
 8002490:	75a6      	strb	r6, [r4, #22]
 8002492:	75e3      	strb	r3, [r4, #23]
				.pin_conf = BMA400_INT_OPEN_DRAIN_ACTIVE_0
			}
		}
	};

	bma400_set_device_conf(dev_conf, 3, dev);
 8002494:	002a      	movs	r2, r5
 8002496:	2103      	movs	r1, #3
 8002498:	0020      	movs	r0, r4
 800249a:	f7ff fe2b 	bl	80020f4 <bma400_set_device_conf>

	struct bma400_sensor_conf sensor_conf = {
 800249e:	ac01      	add	r4, sp, #4
 80024a0:	2214      	movs	r2, #20
 80024a2:	2100      	movs	r1, #0
 80024a4:	0020      	movs	r0, r4
 80024a6:	f002 f939 	bl	800471c <memset>
 80024aa:	2308      	movs	r3, #8
 80024ac:	70a3      	strb	r3, [r4, #2]
 80024ae:	7126      	strb	r6, [r4, #4]
 80024b0:	7167      	strb	r7, [r4, #5]
			.osr = BMA400_ACCEL_OSR_SETTING_3,
			.odr = BMA400_ODR_100HZ
		}
	};

	bma400_set_sensor_conf(&sensor_conf, 1, dev);
 80024b2:	002a      	movs	r2, r5
 80024b4:	2101      	movs	r1, #1
 80024b6:	0020      	movs	r0, r4
 80024b8:	f7ff fde1 	bl	800207e <bma400_set_sensor_conf>
	set_auto_wakeup(BMA400_ENABLE, dev);	// enable auto wake up
 80024bc:	0029      	movs	r1, r5
 80024be:	2001      	movs	r0, #1
 80024c0:	f7ff fea2 	bl	8002208 <set_auto_wakeup>
}
 80024c4:	b00f      	add	sp, #60	@ 0x3c
 80024c6:	bdf0      	pop	{r4, r5, r6, r7, pc}

080024c8 <detectGateMotion>:

bool detectGateMotion(const int16_t *data)
{
 80024c8:	b5f0      	push	{r4, r5, r6, r7, lr}
 80024ca:	46ce      	mov	lr, r9
 80024cc:	4647      	mov	r7, r8
 80024ce:	b580      	push	{r7, lr}
 80024d0:	b085      	sub	sp, #20
 80024d2:	4680      	mov	r8, r0
    float sigma[4] = {0};
 80024d4:	2210      	movs	r2, #16
 80024d6:	2100      	movs	r1, #0
 80024d8:	4668      	mov	r0, sp
 80024da:	f002 f91f 	bl	800471c <memset>

    // calculate SD from 4 blocks of 8 samples each
    for (uint8_t block = 0; block < 4; block++)
 80024de:	2700      	movs	r7, #0
 80024e0:	e035      	b.n	800254e <detectGateMotion+0x86>
        const int16_t *ptr = &data[block * 8];			// pointer to start of current block

        // calculate mean of the 8 samples
        for (uint8_t i = 0; i < 8; i++)
        {
            sum += ptr[i];
 80024e2:	0063      	lsls	r3, r4, #1
 80024e4:	5f98      	ldrsh	r0, [r3, r6]
 80024e6:	f7fe ff65 	bl	80013b4 <__aeabi_i2f>
 80024ea:	1c01      	adds	r1, r0, #0
 80024ec:	1c28      	adds	r0, r5, #0
 80024ee:	f7fd ffcd 	bl	800048c <__aeabi_fadd>
 80024f2:	1c05      	adds	r5, r0, #0
        for (uint8_t i = 0; i < 8; i++)
 80024f4:	3401      	adds	r4, #1
 80024f6:	b2e4      	uxtb	r4, r4
 80024f8:	2c07      	cmp	r4, #7
 80024fa:	d9f2      	bls.n	80024e2 <detectGateMotion+0x1a>
        }
        mean = sum / 8.0f;
 80024fc:	21f8      	movs	r1, #248	@ 0xf8
 80024fe:	0589      	lsls	r1, r1, #22
 8002500:	1c28      	adds	r0, r5, #0
 8002502:	f7fe fb83 	bl	8000c0c <__aeabi_fmul>
 8002506:	4681      	mov	r9, r0

        // calculate sum of squared differences from the mean
        for (uint8_t i = 0; i < 8; i++)
 8002508:	2400      	movs	r4, #0
        float sum = 0, mean = 0, sum_diff_squared = 0;
 800250a:	2500      	movs	r5, #0
        for (uint8_t i = 0; i < 8; i++)
 800250c:	e011      	b.n	8002532 <detectGateMotion+0x6a>
        {
        	sum_diff_squared += powf(ptr[i] - mean, 2);
 800250e:	0063      	lsls	r3, r4, #1
 8002510:	5f98      	ldrsh	r0, [r3, r6]
 8002512:	f7fe ff4f 	bl	80013b4 <__aeabi_i2f>
 8002516:	4649      	mov	r1, r9
 8002518:	f7fe fcd2 	bl	8000ec0 <__aeabi_fsub>
 800251c:	2180      	movs	r1, #128	@ 0x80
 800251e:	05c9      	lsls	r1, r1, #23
 8002520:	f002 fd64 	bl	8004fec <powf>
 8002524:	1c01      	adds	r1, r0, #0
 8002526:	1c28      	adds	r0, r5, #0
 8002528:	f7fd ffb0 	bl	800048c <__aeabi_fadd>
 800252c:	1c05      	adds	r5, r0, #0
        for (uint8_t i = 0; i < 8; i++)
 800252e:	3401      	adds	r4, #1
 8002530:	b2e4      	uxtb	r4, r4
 8002532:	2c07      	cmp	r4, #7
 8002534:	d9eb      	bls.n	800250e <detectGateMotion+0x46>
        }

        sigma[block] = sqrtf(sum_diff_squared / 8.0f); // calculate standard deviation
 8002536:	21f8      	movs	r1, #248	@ 0xf8
 8002538:	0589      	lsls	r1, r1, #22
 800253a:	1c28      	adds	r0, r5, #0
 800253c:	f7fe fb66 	bl	8000c0c <__aeabi_fmul>
 8002540:	f002 fda8 	bl	8005094 <sqrtf>
 8002544:	00bb      	lsls	r3, r7, #2
 8002546:	466a      	mov	r2, sp
 8002548:	50d0      	str	r0, [r2, r3]
    for (uint8_t block = 0; block < 4; block++)
 800254a:	3701      	adds	r7, #1
 800254c:	b2ff      	uxtb	r7, r7
 800254e:	2f03      	cmp	r7, #3
 8002550:	d804      	bhi.n	800255c <detectGateMotion+0x94>
        const int16_t *ptr = &data[block * 8];			// pointer to start of current block
 8002552:	013e      	lsls	r6, r7, #4
 8002554:	4446      	add	r6, r8
        for (uint8_t i = 0; i < 8; i++)
 8002556:	2400      	movs	r4, #0
        float sum = 0, mean = 0, sum_diff_squared = 0;
 8002558:	2500      	movs	r5, #0
        for (uint8_t i = 0; i < 8; i++)
 800255a:	e7cd      	b.n	80024f8 <detectGateMotion+0x30>
    }

    // count how many times the difference between adjacent sigmas exceeds threshold (5 LSB)
    uint8_t count = 0;
    for (uint8_t i = 0; i < 3; i++)
 800255c:	2400      	movs	r4, #0
    uint8_t count = 0;
 800255e:	2500      	movs	r5, #0
 8002560:	e001      	b.n	8002566 <detectGateMotion+0x9e>
    for (uint8_t i = 0; i < 3; i++)
 8002562:	3401      	adds	r4, #1
 8002564:	b2e4      	uxtb	r4, r4
 8002566:	2c02      	cmp	r4, #2
 8002568:	d812      	bhi.n	8002590 <detectGateMotion+0xc8>
    {
        float diff = fabsf(sigma[i + 1] - sigma[i]);
 800256a:	1c63      	adds	r3, r4, #1
 800256c:	009b      	lsls	r3, r3, #2
 800256e:	466a      	mov	r2, sp
 8002570:	5898      	ldr	r0, [r3, r2]
 8002572:	00a3      	lsls	r3, r4, #2
 8002574:	5899      	ldr	r1, [r3, r2]
 8002576:	f7fe fca3 	bl	8000ec0 <__aeabi_fsub>
 800257a:	0040      	lsls	r0, r0, #1
 800257c:	0840      	lsrs	r0, r0, #1
        if (diff >= 2.0f)
 800257e:	2180      	movs	r1, #128	@ 0x80
 8002580:	05c9      	lsls	r1, r1, #23
 8002582:	f7fd ff79 	bl	8000478 <__aeabi_fcmpge>
 8002586:	2800      	cmp	r0, #0
 8002588:	d0eb      	beq.n	8002562 <detectGateMotion+0x9a>
            count++;
 800258a:	3501      	adds	r5, #1
 800258c:	b2ed      	uxtb	r5, r5
 800258e:	e7e8      	b.n	8002562 <detectGateMotion+0x9a>
    }

    return (count >= 2); // if 3 times threshold was exceeded -> motion detected
 8002590:	2001      	movs	r0, #1
 8002592:	42a8      	cmp	r0, r5
 8002594:	4180      	sbcs	r0, r0
 8002596:	4240      	negs	r0, r0
}
 8002598:	b005      	add	sp, #20
 800259a:	bcc0      	pop	{r6, r7}
 800259c:	46b9      	mov	r9, r7
 800259e:	46b0      	mov	r8, r6
 80025a0:	bdf0      	pop	{r4, r5, r6, r7, pc}
	...

080025a4 <Send16BitESP>:

void Send16BitESP(UART_HandleTypeDef *huart, uint16_t value) {
 80025a4:	b530      	push	{r4, r5, lr}
 80025a6:	b085      	sub	sp, #20
 80025a8:	0004      	movs	r4, r0
 80025aa:	000b      	movs	r3, r1
	char msg[16];
	snprintf(msg, sizeof(msg), "%u\n", value);
 80025ac:	4a11      	ldr	r2, [pc, #68]	@ (80025f4 <Send16BitESP+0x50>)
 80025ae:	2110      	movs	r1, #16
 80025b0:	4668      	mov	r0, sp
 80025b2:	f002 f86b 	bl	800468c <sniprintf>

	HAL_GPIO_WritePin(EN_IO_GPIO_Port, EN_IO_Pin, SET);
 80025b6:	25a0      	movs	r5, #160	@ 0xa0
 80025b8:	05ed      	lsls	r5, r5, #23
 80025ba:	2201      	movs	r2, #1
 80025bc:	2120      	movs	r1, #32
 80025be:	0028      	movs	r0, r5
 80025c0:	f000 fbec 	bl	8002d9c <HAL_GPIO_WritePin>
	HAL_Delay(300);
 80025c4:	2096      	movs	r0, #150	@ 0x96
 80025c6:	0040      	lsls	r0, r0, #1
 80025c8:	f000 fa96 	bl	8002af8 <HAL_Delay>
	HAL_UART_Transmit(huart, (uint8_t *)msg, strlen(msg), HAL_MAX_DELAY);
 80025cc:	4668      	mov	r0, sp
 80025ce:	f7fd fd9b 	bl	8000108 <strlen>
 80025d2:	2301      	movs	r3, #1
 80025d4:	b282      	uxth	r2, r0
 80025d6:	425b      	negs	r3, r3
 80025d8:	4669      	mov	r1, sp
 80025da:	0020      	movs	r0, r4
 80025dc:	f001 fe9f 	bl	800431e <HAL_UART_Transmit>
	HAL_Delay(10);
 80025e0:	200a      	movs	r0, #10
 80025e2:	f000 fa89 	bl	8002af8 <HAL_Delay>
	HAL_GPIO_WritePin(EN_IO_GPIO_Port, EN_IO_Pin, RESET);
 80025e6:	2200      	movs	r2, #0
 80025e8:	2120      	movs	r1, #32
 80025ea:	0028      	movs	r0, r5
 80025ec:	f000 fbd6 	bl	8002d9c <HAL_GPIO_WritePin>
}
 80025f0:	b005      	add	sp, #20
 80025f2:	bd30      	pop	{r4, r5, pc}
 80025f4:	08005a70 	.word	0x08005a70

080025f8 <HAL_TIM_PeriodElapsedCallback>:
  }
}

/* USER CODE BEGIN 4 */
void HAL_TIM_PeriodElapsedCallback(TIM_HandleTypeDef *htim)
{
 80025f8:	b500      	push	{lr}
 80025fa:	b085      	sub	sp, #20
	if (htim->Instance == TIM14)
 80025fc:	6802      	ldr	r2, [r0, #0]
 80025fe:	4b1d      	ldr	r3, [pc, #116]	@ (8002674 <HAL_TIM_PeriodElapsedCallback+0x7c>)
 8002600:	429a      	cmp	r2, r3
 8002602:	d001      	beq.n	8002608 <HAL_TIM_PeriodElapsedCallback+0x10>
			{
				y_samples[0] = sample.y;
			}
		}
	}
}
 8002604:	b005      	add	sp, #20
 8002606:	bd00      	pop	{pc}
		motion_time++;
 8002608:	4a1b      	ldr	r2, [pc, #108]	@ (8002678 <HAL_TIM_PeriodElapsedCallback+0x80>)
 800260a:	8813      	ldrh	r3, [r2, #0]
 800260c:	3301      	adds	r3, #1
 800260e:	b29b      	uxth	r3, r3
 8002610:	8013      	strh	r3, [r2, #0]
		tick_counter++;
 8002612:	4a1a      	ldr	r2, [pc, #104]	@ (800267c <HAL_TIM_PeriodElapsedCallback+0x84>)
 8002614:	8813      	ldrh	r3, [r2, #0]
 8002616:	3301      	adds	r3, #1
 8002618:	b29b      	uxth	r3, r3
 800261a:	8013      	strh	r3, [r2, #0]
		if (tick_counter >= 2000)
 800261c:	22fa      	movs	r2, #250	@ 0xfa
 800261e:	00d2      	lsls	r2, r2, #3
 8002620:	4293      	cmp	r3, r2
 8002622:	d30a      	bcc.n	800263a <HAL_TIM_PeriodElapsedCallback+0x42>
			tick_counter = 0;
 8002624:	4b15      	ldr	r3, [pc, #84]	@ (800267c <HAL_TIM_PeriodElapsedCallback+0x84>)
 8002626:	2200      	movs	r2, #0
 8002628:	801a      	strh	r2, [r3, #0]
			flag_2sec = 1;
 800262a:	4b15      	ldr	r3, [pc, #84]	@ (8002680 <HAL_TIM_PeriodElapsedCallback+0x88>)
 800262c:	3201      	adds	r2, #1
 800262e:	701a      	strb	r2, [r3, #0]
			send_2sec = motion_time;
 8002630:	4b11      	ldr	r3, [pc, #68]	@ (8002678 <HAL_TIM_PeriodElapsedCallback+0x80>)
 8002632:	881b      	ldrh	r3, [r3, #0]
 8002634:	b29b      	uxth	r3, r3
 8002636:	4a13      	ldr	r2, [pc, #76]	@ (8002684 <HAL_TIM_PeriodElapsedCallback+0x8c>)
 8002638:	8013      	strh	r3, [r2, #0]
		accel_tick++;
 800263a:	4a13      	ldr	r2, [pc, #76]	@ (8002688 <HAL_TIM_PeriodElapsedCallback+0x90>)
 800263c:	7813      	ldrb	r3, [r2, #0]
 800263e:	3301      	adds	r3, #1
 8002640:	b2db      	uxtb	r3, r3
 8002642:	7013      	strb	r3, [r2, #0]
		if (accel_tick >= 10)
 8002644:	2b09      	cmp	r3, #9
 8002646:	d9dd      	bls.n	8002604 <HAL_TIM_PeriodElapsedCallback+0xc>
			accel_tick = 0;
 8002648:	0013      	movs	r3, r2
 800264a:	2200      	movs	r2, #0
 800264c:	701a      	strb	r2, [r3, #0]
			memmove(&y_samples[1], &y_samples[0], sizeof(int16_t) * 31);
 800264e:	490f      	ldr	r1, [pc, #60]	@ (800268c <HAL_TIM_PeriodElapsedCallback+0x94>)
 8002650:	1c88      	adds	r0, r1, #2
 8002652:	323e      	adds	r2, #62	@ 0x3e
 8002654:	f002 f850 	bl	80046f8 <memmove>
			if (bma400_get_accel_data(BMA400_DATA_ONLY, &sample, &bma400) == BMA400_OK)
 8002658:	4a0d      	ldr	r2, [pc, #52]	@ (8002690 <HAL_TIM_PeriodElapsedCallback+0x98>)
 800265a:	a901      	add	r1, sp, #4
 800265c:	2000      	movs	r0, #0
 800265e:	f7ff fcf7 	bl	8002050 <bma400_get_accel_data>
 8002662:	2800      	cmp	r0, #0
 8002664:	d1ce      	bne.n	8002604 <HAL_TIM_PeriodElapsedCallback+0xc>
				y_samples[0] = sample.y;
 8002666:	ab01      	add	r3, sp, #4
 8002668:	2202      	movs	r2, #2
 800266a:	5e9a      	ldrsh	r2, [r3, r2]
 800266c:	4b07      	ldr	r3, [pc, #28]	@ (800268c <HAL_TIM_PeriodElapsedCallback+0x94>)
 800266e:	801a      	strh	r2, [r3, #0]
}
 8002670:	e7c8      	b.n	8002604 <HAL_TIM_PeriodElapsedCallback+0xc>
 8002672:	46c0      	nop			@ (mov r8, r8)
 8002674:	40002000 	.word	0x40002000
 8002678:	20000134 	.word	0x20000134
 800267c:	200000ee 	.word	0x200000ee
 8002680:	20000132 	.word	0x20000132
 8002684:	20000130 	.word	0x20000130
 8002688:	200000ec 	.word	0x200000ec
 800268c:	200000f0 	.word	0x200000f0
 8002690:	20000000 	.word	0x20000000

08002694 <Error_Handler>:
/**
  * @brief  This function is executed in case of error occurrence.
  * @retval None
  */
void Error_Handler(void)
{
 8002694:	b510      	push	{r4, lr}
  /* USER CODE BEGIN Error_Handler_Debug */
  /* User can add his own implementation to report the HAL error return state */
  HAL_GPIO_WritePin(LED2_GPIO_Port, LED2_Pin, SET);
 8002696:	2180      	movs	r1, #128	@ 0x80
 8002698:	20a0      	movs	r0, #160	@ 0xa0
 800269a:	2201      	movs	r2, #1
 800269c:	0049      	lsls	r1, r1, #1
 800269e:	05c0      	lsls	r0, r0, #23
 80026a0:	f000 fb7c 	bl	8002d9c <HAL_GPIO_WritePin>
  while (1)
 80026a4:	e7fe      	b.n	80026a4 <Error_Handler+0x10>
	...

080026a8 <SystemClock_Config>:
{
 80026a8:	b500      	push	{lr}
 80026aa:	b08d      	sub	sp, #52	@ 0x34
  RCC_OscInitTypeDef RCC_OscInitStruct = {0};
 80026ac:	221c      	movs	r2, #28
 80026ae:	2100      	movs	r1, #0
 80026b0:	a805      	add	r0, sp, #20
 80026b2:	f002 f833 	bl	800471c <memset>
  RCC_ClkInitTypeDef RCC_ClkInitStruct = {0};
 80026b6:	2214      	movs	r2, #20
 80026b8:	2100      	movs	r1, #0
 80026ba:	4668      	mov	r0, sp
 80026bc:	f002 f82e 	bl	800471c <memset>
  __HAL_FLASH_SET_LATENCY(FLASH_LATENCY_0);
 80026c0:	4a12      	ldr	r2, [pc, #72]	@ (800270c <SystemClock_Config+0x64>)
 80026c2:	6813      	ldr	r3, [r2, #0]
 80026c4:	2107      	movs	r1, #7
 80026c6:	438b      	bics	r3, r1
 80026c8:	6013      	str	r3, [r2, #0]
  RCC_OscInitStruct.OscillatorType = RCC_OSCILLATORTYPE_HSI;
 80026ca:	2302      	movs	r3, #2
 80026cc:	9305      	str	r3, [sp, #20]
  RCC_OscInitStruct.HSIState = RCC_HSI_ON;
 80026ce:	33fe      	adds	r3, #254	@ 0xfe
 80026d0:	9308      	str	r3, [sp, #32]
  RCC_OscInitStruct.HSIDiv = RCC_HSI_DIV4;
 80026d2:	2380      	movs	r3, #128	@ 0x80
 80026d4:	015b      	lsls	r3, r3, #5
 80026d6:	9309      	str	r3, [sp, #36]	@ 0x24
  RCC_OscInitStruct.HSICalibrationValue = RCC_HSICALIBRATION_DEFAULT;
 80026d8:	2340      	movs	r3, #64	@ 0x40
 80026da:	930a      	str	r3, [sp, #40]	@ 0x28
  if (HAL_RCC_OscConfig(&RCC_OscInitStruct) != HAL_OK)
 80026dc:	a805      	add	r0, sp, #20
 80026de:	f000 ffb7 	bl	8003650 <HAL_RCC_OscConfig>
 80026e2:	2800      	cmp	r0, #0
 80026e4:	d10e      	bne.n	8002704 <SystemClock_Config+0x5c>
  RCC_ClkInitStruct.ClockType = RCC_CLOCKTYPE_HCLK|RCC_CLOCKTYPE_SYSCLK
 80026e6:	2307      	movs	r3, #7
 80026e8:	9300      	str	r3, [sp, #0]
  RCC_ClkInitStruct.SYSCLKSource = RCC_SYSCLKSOURCE_HSI;
 80026ea:	2300      	movs	r3, #0
 80026ec:	9301      	str	r3, [sp, #4]
  RCC_ClkInitStruct.SYSCLKDivider = RCC_SYSCLK_DIV1;
 80026ee:	9302      	str	r3, [sp, #8]
  RCC_ClkInitStruct.AHBCLKDivider = RCC_HCLK_DIV1;
 80026f0:	9303      	str	r3, [sp, #12]
  RCC_ClkInitStruct.APB1CLKDivider = RCC_APB1_DIV1;
 80026f2:	9304      	str	r3, [sp, #16]
  if (HAL_RCC_ClockConfig(&RCC_ClkInitStruct, FLASH_LATENCY_0) != HAL_OK)
 80026f4:	2100      	movs	r1, #0
 80026f6:	4668      	mov	r0, sp
 80026f8:	f001 f938 	bl	800396c <HAL_RCC_ClockConfig>
 80026fc:	2800      	cmp	r0, #0
 80026fe:	d103      	bne.n	8002708 <SystemClock_Config+0x60>
}
 8002700:	b00d      	add	sp, #52	@ 0x34
 8002702:	bd00      	pop	{pc}
    Error_Handler();
 8002704:	f7ff ffc6 	bl	8002694 <Error_Handler>
    Error_Handler();
 8002708:	f7ff ffc4 	bl	8002694 <Error_Handler>
 800270c:	40022000 	.word	0x40022000

08002710 <main>:
{
 8002710:	b530      	push	{r4, r5, lr}
 8002712:	b085      	sub	sp, #20
  HAL_Init();
 8002714:	f000 f9d2 	bl	8002abc <HAL_Init>
  SystemClock_Config();
 8002718:	f7ff ffc6 	bl	80026a8 <SystemClock_Config>
  MX_GPIO_Init();
 800271c:	f7ff fdca 	bl	80022b4 <MX_GPIO_Init>
  MX_I2C1_Init();
 8002720:	f7ff fe18 	bl	8002354 <MX_I2C1_Init>
  MX_USART1_UART_Init();
 8002724:	f000 f8fa 	bl	800291c <MX_USART1_UART_Init>
  MX_TIM14_Init();
 8002728:	f000 f8be 	bl	80028a8 <MX_TIM14_Init>
  bma400_init(&bma400);
 800272c:	4c2a      	ldr	r4, [pc, #168]	@ (80027d8 <main+0xc8>)
 800272e:	0020      	movs	r0, r4
 8002730:	f7ff f9f8 	bl	8001b24 <bma400_init>
  configureBMA400(&bma400);
 8002734:	0020      	movs	r0, r4
 8002736:	f7ff fe8f 	bl	8002458 <configureBMA400>
  HAL_Delay(10);
 800273a:	200a      	movs	r0, #10
 800273c:	f000 f9dc 	bl	8002af8 <HAL_Delay>
  for (int i = 0; i < 32; i++)
 8002740:	2400      	movs	r4, #0
 8002742:	e003      	b.n	800274c <main+0x3c>
  	HAL_Delay(10);
 8002744:	200a      	movs	r0, #10
 8002746:	f000 f9d7 	bl	8002af8 <HAL_Delay>
  for (int i = 0; i < 32; i++)
 800274a:	3401      	adds	r4, #1
 800274c:	2c1f      	cmp	r4, #31
 800274e:	dc0f      	bgt.n	8002770 <main+0x60>
  	if (bma400_get_accel_data(BMA400_DATA_ONLY, &sample, &bma400) == BMA400_OK)
 8002750:	4a21      	ldr	r2, [pc, #132]	@ (80027d8 <main+0xc8>)
 8002752:	a901      	add	r1, sp, #4
 8002754:	2000      	movs	r0, #0
 8002756:	f7ff fc7b 	bl	8002050 <bma400_get_accel_data>
 800275a:	2800      	cmp	r0, #0
 800275c:	d1f2      	bne.n	8002744 <main+0x34>
  		y_samples[31 - i] = sample.y;
 800275e:	231f      	movs	r3, #31
 8002760:	1b1b      	subs	r3, r3, r4
 8002762:	aa01      	add	r2, sp, #4
 8002764:	2102      	movs	r1, #2
 8002766:	5e51      	ldrsh	r1, [r2, r1]
 8002768:	4a1c      	ldr	r2, [pc, #112]	@ (80027dc <main+0xcc>)
 800276a:	005b      	lsls	r3, r3, #1
 800276c:	5299      	strh	r1, [r3, r2]
 800276e:	e7e9      	b.n	8002744 <main+0x34>
	bool timer_started = false;
 8002770:	2500      	movs	r5, #0
 8002772:	e001      	b.n	8002778 <main+0x68>
			  enterStandby();
 8002774:	f7ff fe62 	bl	800243c <enterStandby>
	  motion_detected = detectGateMotion(y_samples);
 8002778:	4818      	ldr	r0, [pc, #96]	@ (80027dc <main+0xcc>)
 800277a:	f7ff fea5 	bl	80024c8 <detectGateMotion>
 800277e:	1e04      	subs	r4, r0, #0
	  if (!motion_detected)
 8002780:	d110      	bne.n	80027a4 <main+0x94>
		  HAL_TIM_Base_Stop_IT(&htim14);
 8002782:	4817      	ldr	r0, [pc, #92]	@ (80027e0 <main+0xd0>)
 8002784:	f001 faae 	bl	8003ce4 <HAL_TIM_Base_Stop_IT>
		  if (motion_time >= 1)	// gate stopped while movement
 8002788:	4b16      	ldr	r3, [pc, #88]	@ (80027e4 <main+0xd4>)
 800278a:	881b      	ldrh	r3, [r3, #0]
 800278c:	b29b      	uxth	r3, r3
 800278e:	2b00      	cmp	r3, #0
 8002790:	d0f0      	beq.n	8002774 <main+0x64>
			  Send16BitESP(&huart1, motion_time);
 8002792:	4b14      	ldr	r3, [pc, #80]	@ (80027e4 <main+0xd4>)
 8002794:	8819      	ldrh	r1, [r3, #0]
 8002796:	b289      	uxth	r1, r1
 8002798:	4813      	ldr	r0, [pc, #76]	@ (80027e8 <main+0xd8>)
 800279a:	f7ff ff03 	bl	80025a4 <Send16BitESP>
			  enterStandby();
 800279e:	f7ff fe4d 	bl	800243c <enterStandby>
 80027a2:	e7e9      	b.n	8002778 <main+0x68>
	  else if (motion_detected && flag_2sec == 1)
 80027a4:	4a11      	ldr	r2, [pc, #68]	@ (80027ec <main+0xdc>)
 80027a6:	7812      	ldrb	r2, [r2, #0]
 80027a8:	2a01      	cmp	r2, #1
 80027aa:	d00b      	beq.n	80027c4 <main+0xb4>
	  else if (motion_detected && !timer_started)
 80027ac:	2800      	cmp	r0, #0
 80027ae:	d0e3      	beq.n	8002778 <main+0x68>
 80027b0:	2d00      	cmp	r5, #0
 80027b2:	d1e1      	bne.n	8002778 <main+0x68>
		  motion_time = 0;
 80027b4:	4b0b      	ldr	r3, [pc, #44]	@ (80027e4 <main+0xd4>)
 80027b6:	2200      	movs	r2, #0
 80027b8:	801a      	strh	r2, [r3, #0]
		  HAL_TIM_Base_Start_IT(&htim14);
 80027ba:	4809      	ldr	r0, [pc, #36]	@ (80027e0 <main+0xd0>)
 80027bc:	f001 fa5e 	bl	8003c7c <HAL_TIM_Base_Start_IT>
		  timer_started = true;
 80027c0:	0025      	movs	r5, r4
 80027c2:	e7d9      	b.n	8002778 <main+0x68>
		  flag_2sec = 0;
 80027c4:	4b09      	ldr	r3, [pc, #36]	@ (80027ec <main+0xdc>)
 80027c6:	2200      	movs	r2, #0
 80027c8:	701a      	strb	r2, [r3, #0]
		  Send16BitESP(&huart1, send_2sec);
 80027ca:	4b09      	ldr	r3, [pc, #36]	@ (80027f0 <main+0xe0>)
 80027cc:	8819      	ldrh	r1, [r3, #0]
 80027ce:	b289      	uxth	r1, r1
 80027d0:	4805      	ldr	r0, [pc, #20]	@ (80027e8 <main+0xd8>)
 80027d2:	f7ff fee7 	bl	80025a4 <Send16BitESP>
 80027d6:	e7cf      	b.n	8002778 <main+0x68>
 80027d8:	20000000 	.word	0x20000000
 80027dc:	200000f0 	.word	0x200000f0
 80027e0:	2000013c 	.word	0x2000013c
 80027e4:	20000134 	.word	0x20000134
 80027e8:	20000188 	.word	0x20000188
 80027ec:	20000132 	.word	0x20000132
 80027f0:	20000130 	.word	0x20000130

080027f4 <HAL_MspInit>:
/* USER CODE END 0 */
/**
  * Initializes the Global MSP.
  */
void HAL_MspInit(void)
{
 80027f4:	b500      	push	{lr}
 80027f6:	b083      	sub	sp, #12

  /* USER CODE BEGIN MspInit 0 */

  /* USER CODE END MspInit 0 */

  __HAL_RCC_SYSCFG_CLK_ENABLE();
 80027f8:	4b0c      	ldr	r3, [pc, #48]	@ (800282c <HAL_MspInit+0x38>)
 80027fa:	6c19      	ldr	r1, [r3, #64]	@ 0x40
 80027fc:	2201      	movs	r2, #1
 80027fe:	4311      	orrs	r1, r2
 8002800:	6419      	str	r1, [r3, #64]	@ 0x40
 8002802:	6c19      	ldr	r1, [r3, #64]	@ 0x40
 8002804:	400a      	ands	r2, r1
 8002806:	9200      	str	r2, [sp, #0]
 8002808:	9a00      	ldr	r2, [sp, #0]
  __HAL_RCC_PWR_CLK_ENABLE();
 800280a:	6bda      	ldr	r2, [r3, #60]	@ 0x3c
 800280c:	2180      	movs	r1, #128	@ 0x80
 800280e:	0549      	lsls	r1, r1, #21
 8002810:	430a      	orrs	r2, r1
 8002812:	63da      	str	r2, [r3, #60]	@ 0x3c
 8002814:	6bdb      	ldr	r3, [r3, #60]	@ 0x3c
 8002816:	400b      	ands	r3, r1
 8002818:	9301      	str	r3, [sp, #4]
 800281a:	9b01      	ldr	r3, [sp, #4]

  /* System interrupt init*/

  HAL_SYSCFG_EnableRemap(SYSCFG_REMAP_PA11);
 800281c:	2008      	movs	r0, #8
 800281e:	f000 f97d 	bl	8002b1c <HAL_SYSCFG_EnableRemap>
  HAL_SYSCFG_EnableRemap(SYSCFG_REMAP_PA12);
 8002822:	2010      	movs	r0, #16
 8002824:	f000 f97a 	bl	8002b1c <HAL_SYSCFG_EnableRemap>

  /* USER CODE BEGIN MspInit 1 */

  /* USER CODE END MspInit 1 */
}
 8002828:	b003      	add	sp, #12
 800282a:	bd00      	pop	{pc}
 800282c:	40021000 	.word	0x40021000

08002830 <NMI_Handler>:
{
  /* USER CODE BEGIN NonMaskableInt_IRQn 0 */

  /* USER CODE END NonMaskableInt_IRQn 0 */
  /* USER CODE BEGIN NonMaskableInt_IRQn 1 */
   while (1)
 8002830:	e7fe      	b.n	8002830 <NMI_Handler>

08002832 <HardFault_Handler>:
void HardFault_Handler(void)
{
  /* USER CODE BEGIN HardFault_IRQn 0 */

  /* USER CODE END HardFault_IRQn 0 */
  while (1)
 8002832:	e7fe      	b.n	8002832 <HardFault_Handler>

08002834 <SVC_Handler>:

  /* USER CODE END SVC_IRQn 0 */
  /* USER CODE BEGIN SVC_IRQn 1 */

  /* USER CODE END SVC_IRQn 1 */
}
 8002834:	4770      	bx	lr

08002836 <PendSV_Handler>:

  /* USER CODE END PendSV_IRQn 0 */
  /* USER CODE BEGIN PendSV_IRQn 1 */

  /* USER CODE END PendSV_IRQn 1 */
}
 8002836:	4770      	bx	lr

08002838 <SysTick_Handler>:

/**
  * @brief This function handles System tick timer.
  */
void SysTick_Handler(void)
{
 8002838:	b510      	push	{r4, lr}
  /* USER CODE BEGIN SysTick_IRQn 0 */

  /* USER CODE END SysTick_IRQn 0 */
  HAL_IncTick();
 800283a:	f000 f94b 	bl	8002ad4 <HAL_IncTick>
  /* USER CODE BEGIN SysTick_IRQn 1 */

  /* USER CODE END SysTick_IRQn 1 */
}
 800283e:	bd10      	pop	{r4, pc}

08002840 <TIM14_IRQHandler>:

/**
  * @brief This function handles TIM14 global interrupt.
  */
void TIM14_IRQHandler(void)
{
 8002840:	b510      	push	{r4, lr}
  /* USER CODE BEGIN TIM14_IRQn 0 */

  /* USER CODE END TIM14_IRQn 0 */
  HAL_TIM_IRQHandler(&htim14);
 8002842:	4802      	ldr	r0, [pc, #8]	@ (800284c <TIM14_IRQHandler+0xc>)
 8002844:	f001 fa6e 	bl	8003d24 <HAL_TIM_IRQHandler>
  /* USER CODE BEGIN TIM14_IRQn 1 */

  /* USER CODE END TIM14_IRQn 1 */
}
 8002848:	bd10      	pop	{r4, pc}
 800284a:	46c0      	nop			@ (mov r8, r8)
 800284c:	2000013c 	.word	0x2000013c

08002850 <_sbrk>:
 *
 * @param incr Memory size
 * @return Pointer to allocated memory
 */
void *_sbrk(ptrdiff_t incr)
{
 8002850:	b510      	push	{r4, lr}
 8002852:	0003      	movs	r3, r0
  extern uint8_t _end; /* Symbol defined in the linker script */
  extern uint8_t _estack; /* Symbol defined in the linker script */
  extern uint32_t _Min_Stack_Size; /* Symbol defined in the linker script */
  const uint32_t stack_limit = (uint32_t)&_estack - (uint32_t)&_Min_Stack_Size;
 8002854:	4a0c      	ldr	r2, [pc, #48]	@ (8002888 <_sbrk+0x38>)
 8002856:	490d      	ldr	r1, [pc, #52]	@ (800288c <_sbrk+0x3c>)
 8002858:	1a52      	subs	r2, r2, r1
  const uint8_t *max_heap = (uint8_t *)stack_limit;
  uint8_t *prev_heap_end;

  /* Initialize heap end at first call */
  if (NULL == __sbrk_heap_end)
 800285a:	490d      	ldr	r1, [pc, #52]	@ (8002890 <_sbrk+0x40>)
 800285c:	6809      	ldr	r1, [r1, #0]
 800285e:	2900      	cmp	r1, #0
 8002860:	d007      	beq.n	8002872 <_sbrk+0x22>
  {
    __sbrk_heap_end = &_end;
  }

  /* Protect heap from growing into the reserved MSP stack */
  if (__sbrk_heap_end + incr > max_heap)
 8002862:	490b      	ldr	r1, [pc, #44]	@ (8002890 <_sbrk+0x40>)
 8002864:	6808      	ldr	r0, [r1, #0]
 8002866:	18c3      	adds	r3, r0, r3
 8002868:	4293      	cmp	r3, r2
 800286a:	d806      	bhi.n	800287a <_sbrk+0x2a>
    errno = ENOMEM;
    return (void *)-1;
  }

  prev_heap_end = __sbrk_heap_end;
  __sbrk_heap_end += incr;
 800286c:	4a08      	ldr	r2, [pc, #32]	@ (8002890 <_sbrk+0x40>)
 800286e:	6013      	str	r3, [r2, #0]

  return (void *)prev_heap_end;
}
 8002870:	bd10      	pop	{r4, pc}
    __sbrk_heap_end = &_end;
 8002872:	4907      	ldr	r1, [pc, #28]	@ (8002890 <_sbrk+0x40>)
 8002874:	4807      	ldr	r0, [pc, #28]	@ (8002894 <_sbrk+0x44>)
 8002876:	6008      	str	r0, [r1, #0]
 8002878:	e7f3      	b.n	8002862 <_sbrk+0x12>
    errno = ENOMEM;
 800287a:	f001 ff57 	bl	800472c <__errno>
 800287e:	230c      	movs	r3, #12
 8002880:	6003      	str	r3, [r0, #0]
    return (void *)-1;
 8002882:	2001      	movs	r0, #1
 8002884:	4240      	negs	r0, r0
 8002886:	e7f3      	b.n	8002870 <_sbrk+0x20>
 8002888:	20001800 	.word	0x20001800
 800288c:	00000400 	.word	0x00000400
 8002890:	20000138 	.word	0x20000138
 8002894:	20000368 	.word	0x20000368

08002898 <SystemInit>:
  
  /* Configure the Vector Table location add offset address ------------------*/
#ifdef VECT_TAB_SRAM
  SCB->VTOR = SRAM_BASE | VECT_TAB_OFFSET; /* Vector Table Relocation in Internal SRAM */
#else
  SCB->VTOR = FLASH_BASE | VECT_TAB_OFFSET; /* Vector Table Relocation in Internal FLASH */
 8002898:	4b02      	ldr	r3, [pc, #8]	@ (80028a4 <SystemInit+0xc>)
 800289a:	2280      	movs	r2, #128	@ 0x80
 800289c:	0512      	lsls	r2, r2, #20
 800289e:	609a      	str	r2, [r3, #8]
#endif
}
 80028a0:	4770      	bx	lr
 80028a2:	46c0      	nop			@ (mov r8, r8)
 80028a4:	e000ed00 	.word	0xe000ed00

080028a8 <MX_TIM14_Init>:

TIM_HandleTypeDef htim14;

/* TIM14 init function */
void MX_TIM14_Init(void)
{
 80028a8:	b510      	push	{r4, lr}
  /* USER CODE END TIM14_Init 0 */

  /* USER CODE BEGIN TIM14_Init 1 */

  /* USER CODE END TIM14_Init 1 */
  htim14.Instance = TIM14;
 80028aa:	4809      	ldr	r0, [pc, #36]	@ (80028d0 <MX_TIM14_Init+0x28>)
 80028ac:	4b09      	ldr	r3, [pc, #36]	@ (80028d4 <MX_TIM14_Init+0x2c>)
 80028ae:	6003      	str	r3, [r0, #0]
  htim14.Init.Prescaler = 1199;
 80028b0:	4b09      	ldr	r3, [pc, #36]	@ (80028d8 <MX_TIM14_Init+0x30>)
 80028b2:	6043      	str	r3, [r0, #4]
  htim14.Init.CounterMode = TIM_COUNTERMODE_UP;
 80028b4:	2300      	movs	r3, #0
 80028b6:	6083      	str	r3, [r0, #8]
  htim14.Init.Period = 9;
 80028b8:	2209      	movs	r2, #9
 80028ba:	60c2      	str	r2, [r0, #12]
  htim14.Init.ClockDivision = TIM_CLOCKDIVISION_DIV1;
 80028bc:	6103      	str	r3, [r0, #16]
  htim14.Init.AutoReloadPreload = TIM_AUTORELOAD_PRELOAD_DISABLE;
 80028be:	6183      	str	r3, [r0, #24]
  if (HAL_TIM_Base_Init(&htim14) != HAL_OK)
 80028c0:	f001 fb26 	bl	8003f10 <HAL_TIM_Base_Init>
 80028c4:	2800      	cmp	r0, #0
 80028c6:	d100      	bne.n	80028ca <MX_TIM14_Init+0x22>
  }
  /* USER CODE BEGIN TIM14_Init 2 */

  /* USER CODE END TIM14_Init 2 */

}
 80028c8:	bd10      	pop	{r4, pc}
    Error_Handler();
 80028ca:	f7ff fee3 	bl	8002694 <Error_Handler>
}
 80028ce:	e7fb      	b.n	80028c8 <MX_TIM14_Init+0x20>
 80028d0:	2000013c 	.word	0x2000013c
 80028d4:	40002000 	.word	0x40002000
 80028d8:	000004af 	.word	0x000004af

080028dc <HAL_TIM_Base_MspInit>:

void HAL_TIM_Base_MspInit(TIM_HandleTypeDef* tim_baseHandle)
{
 80028dc:	b500      	push	{lr}
 80028de:	b083      	sub	sp, #12

  if(tim_baseHandle->Instance==TIM14)
 80028e0:	6802      	ldr	r2, [r0, #0]
 80028e2:	4b0c      	ldr	r3, [pc, #48]	@ (8002914 <HAL_TIM_Base_MspInit+0x38>)
 80028e4:	429a      	cmp	r2, r3
 80028e6:	d001      	beq.n	80028ec <HAL_TIM_Base_MspInit+0x10>
    HAL_NVIC_EnableIRQ(TIM14_IRQn);
  /* USER CODE BEGIN TIM14_MspInit 1 */

  /* USER CODE END TIM14_MspInit 1 */
  }
}
 80028e8:	b003      	add	sp, #12
 80028ea:	bd00      	pop	{pc}
    __HAL_RCC_TIM14_CLK_ENABLE();
 80028ec:	4b0a      	ldr	r3, [pc, #40]	@ (8002918 <HAL_TIM_Base_MspInit+0x3c>)
 80028ee:	6c1a      	ldr	r2, [r3, #64]	@ 0x40
 80028f0:	2180      	movs	r1, #128	@ 0x80
 80028f2:	0209      	lsls	r1, r1, #8
 80028f4:	430a      	orrs	r2, r1
 80028f6:	641a      	str	r2, [r3, #64]	@ 0x40
 80028f8:	6c1b      	ldr	r3, [r3, #64]	@ 0x40
 80028fa:	400b      	ands	r3, r1
 80028fc:	9301      	str	r3, [sp, #4]
 80028fe:	9b01      	ldr	r3, [sp, #4]
    HAL_NVIC_SetPriority(TIM14_IRQn, 0, 0);
 8002900:	2200      	movs	r2, #0
 8002902:	2100      	movs	r1, #0
 8002904:	2013      	movs	r0, #19
 8002906:	f000 f95d 	bl	8002bc4 <HAL_NVIC_SetPriority>
    HAL_NVIC_EnableIRQ(TIM14_IRQn);
 800290a:	2013      	movs	r0, #19
 800290c:	f000 f95e 	bl	8002bcc <HAL_NVIC_EnableIRQ>
}
 8002910:	e7ea      	b.n	80028e8 <HAL_TIM_Base_MspInit+0xc>
 8002912:	46c0      	nop			@ (mov r8, r8)
 8002914:	40002000 	.word	0x40002000
 8002918:	40021000 	.word	0x40021000

0800291c <MX_USART1_UART_Init>:
UART_HandleTypeDef huart1;

/* USART1 init function */

void MX_USART1_UART_Init(void)
{
 800291c:	b510      	push	{r4, lr}
  /* USER CODE END USART1_Init 0 */

  /* USER CODE BEGIN USART1_Init 1 */

  /* USER CODE END USART1_Init 1 */
  huart1.Instance = USART1;
 800291e:	4819      	ldr	r0, [pc, #100]	@ (8002984 <MX_USART1_UART_Init+0x68>)
 8002920:	4b19      	ldr	r3, [pc, #100]	@ (8002988 <MX_USART1_UART_Init+0x6c>)
 8002922:	6003      	str	r3, [r0, #0]
  huart1.Init.BaudRate = 115200;
 8002924:	23e1      	movs	r3, #225	@ 0xe1
 8002926:	025b      	lsls	r3, r3, #9
 8002928:	6043      	str	r3, [r0, #4]
  huart1.Init.WordLength = UART_WORDLENGTH_8B;
 800292a:	2300      	movs	r3, #0
 800292c:	6083      	str	r3, [r0, #8]
  huart1.Init.StopBits = UART_STOPBITS_1;
 800292e:	60c3      	str	r3, [r0, #12]
  huart1.Init.Parity = UART_PARITY_NONE;
 8002930:	6103      	str	r3, [r0, #16]
  huart1.Init.Mode = UART_MODE_TX_RX;
 8002932:	220c      	movs	r2, #12
 8002934:	6142      	str	r2, [r0, #20]
  huart1.Init.HwFlowCtl = UART_HWCONTROL_NONE;
 8002936:	6183      	str	r3, [r0, #24]
  huart1.Init.OverSampling = UART_OVERSAMPLING_16;
 8002938:	61c3      	str	r3, [r0, #28]
  huart1.Init.OneBitSampling = UART_ONE_BIT_SAMPLE_DISABLE;
 800293a:	6203      	str	r3, [r0, #32]
  huart1.Init.ClockPrescaler = UART_PRESCALER_DIV1;
 800293c:	6243      	str	r3, [r0, #36]	@ 0x24
  huart1.AdvancedInit.AdvFeatureInit = UART_ADVFEATURE_NO_INIT;
 800293e:	6283      	str	r3, [r0, #40]	@ 0x28
  if (HAL_UART_Init(&huart1) != HAL_OK)
 8002940:	f001 fdd6 	bl	80044f0 <HAL_UART_Init>
 8002944:	2800      	cmp	r0, #0
 8002946:	d111      	bne.n	800296c <MX_USART1_UART_Init+0x50>
  {
    Error_Handler();
  }
  if (HAL_UARTEx_SetTxFifoThreshold(&huart1, UART_TXFIFO_THRESHOLD_1_8) != HAL_OK)
 8002948:	480e      	ldr	r0, [pc, #56]	@ (8002984 <MX_USART1_UART_Init+0x68>)
 800294a:	2100      	movs	r1, #0
 800294c:	f001 fe50 	bl	80045f0 <HAL_UARTEx_SetTxFifoThreshold>
 8002950:	2800      	cmp	r0, #0
 8002952:	d10e      	bne.n	8002972 <MX_USART1_UART_Init+0x56>
  {
    Error_Handler();
  }
  if (HAL_UARTEx_SetRxFifoThreshold(&huart1, UART_RXFIFO_THRESHOLD_1_8) != HAL_OK)
 8002954:	480b      	ldr	r0, [pc, #44]	@ (8002984 <MX_USART1_UART_Init+0x68>)
 8002956:	2100      	movs	r1, #0
 8002958:	f001 fe70 	bl	800463c <HAL_UARTEx_SetRxFifoThreshold>
 800295c:	2800      	cmp	r0, #0
 800295e:	d10b      	bne.n	8002978 <MX_USART1_UART_Init+0x5c>
  {
    Error_Handler();
  }
  if (HAL_UARTEx_DisableFifoMode(&huart1) != HAL_OK)
 8002960:	4808      	ldr	r0, [pc, #32]	@ (8002984 <MX_USART1_UART_Init+0x68>)
 8002962:	f001 fe25 	bl	80045b0 <HAL_UARTEx_DisableFifoMode>
 8002966:	2800      	cmp	r0, #0
 8002968:	d109      	bne.n	800297e <MX_USART1_UART_Init+0x62>
  }
  /* USER CODE BEGIN USART1_Init 2 */

  /* USER CODE END USART1_Init 2 */

}
 800296a:	bd10      	pop	{r4, pc}
    Error_Handler();
 800296c:	f7ff fe92 	bl	8002694 <Error_Handler>
 8002970:	e7ea      	b.n	8002948 <MX_USART1_UART_Init+0x2c>
    Error_Handler();
 8002972:	f7ff fe8f 	bl	8002694 <Error_Handler>
 8002976:	e7ed      	b.n	8002954 <MX_USART1_UART_Init+0x38>
    Error_Handler();
 8002978:	f7ff fe8c 	bl	8002694 <Error_Handler>
 800297c:	e7f0      	b.n	8002960 <MX_USART1_UART_Init+0x44>
    Error_Handler();
 800297e:	f7ff fe89 	bl	8002694 <Error_Handler>
}
 8002982:	e7f2      	b.n	800296a <MX_USART1_UART_Init+0x4e>
 8002984:	20000188 	.word	0x20000188
 8002988:	40013800 	.word	0x40013800

0800298c <HAL_UART_MspInit>:

void HAL_UART_MspInit(UART_HandleTypeDef* uartHandle)
{
 800298c:	b510      	push	{r4, lr}
 800298e:	b08e      	sub	sp, #56	@ 0x38
 8002990:	0004      	movs	r4, r0

  GPIO_InitTypeDef GPIO_InitStruct = {0};
 8002992:	2214      	movs	r2, #20
 8002994:	2100      	movs	r1, #0
 8002996:	a809      	add	r0, sp, #36	@ 0x24
 8002998:	f001 fec0 	bl	800471c <memset>
  RCC_PeriphCLKInitTypeDef PeriphClkInit = {0};
 800299c:	221c      	movs	r2, #28
 800299e:	2100      	movs	r1, #0
 80029a0:	a802      	add	r0, sp, #8
 80029a2:	f001 febb 	bl	800471c <memset>
  if(uartHandle->Instance==USART1)
 80029a6:	6822      	ldr	r2, [r4, #0]
 80029a8:	4b17      	ldr	r3, [pc, #92]	@ (8002a08 <HAL_UART_MspInit+0x7c>)
 80029aa:	429a      	cmp	r2, r3
 80029ac:	d001      	beq.n	80029b2 <HAL_UART_MspInit+0x26>

  /* USER CODE BEGIN USART1_MspInit 1 */

  /* USER CODE END USART1_MspInit 1 */
  }
}
 80029ae:	b00e      	add	sp, #56	@ 0x38
 80029b0:	bd10      	pop	{r4, pc}
    PeriphClkInit.PeriphClockSelection = RCC_PERIPHCLK_USART1;
 80029b2:	2301      	movs	r3, #1
 80029b4:	9302      	str	r3, [sp, #8]
    if (HAL_RCCEx_PeriphCLKConfig(&PeriphClkInit) != HAL_OK)
 80029b6:	a802      	add	r0, sp, #8
 80029b8:	f001 f8c6 	bl	8003b48 <HAL_RCCEx_PeriphCLKConfig>
 80029bc:	2800      	cmp	r0, #0
 80029be:	d120      	bne.n	8002a02 <HAL_UART_MspInit+0x76>
    __HAL_RCC_USART1_CLK_ENABLE();
 80029c0:	4b12      	ldr	r3, [pc, #72]	@ (8002a0c <HAL_UART_MspInit+0x80>)
 80029c2:	6c1a      	ldr	r2, [r3, #64]	@ 0x40
 80029c4:	2180      	movs	r1, #128	@ 0x80
 80029c6:	01c9      	lsls	r1, r1, #7
 80029c8:	430a      	orrs	r2, r1
 80029ca:	641a      	str	r2, [r3, #64]	@ 0x40
 80029cc:	6c1a      	ldr	r2, [r3, #64]	@ 0x40
 80029ce:	400a      	ands	r2, r1
 80029d0:	9200      	str	r2, [sp, #0]
 80029d2:	9a00      	ldr	r2, [sp, #0]
    __HAL_RCC_GPIOA_CLK_ENABLE();
 80029d4:	6b59      	ldr	r1, [r3, #52]	@ 0x34
 80029d6:	2201      	movs	r2, #1
 80029d8:	4311      	orrs	r1, r2
 80029da:	6359      	str	r1, [r3, #52]	@ 0x34
 80029dc:	6b5b      	ldr	r3, [r3, #52]	@ 0x34
 80029de:	4013      	ands	r3, r2
 80029e0:	9301      	str	r3, [sp, #4]
 80029e2:	9b01      	ldr	r3, [sp, #4]
    GPIO_InitStruct.Pin = GPIO_PIN_9|GPIO_PIN_10;
 80029e4:	23c0      	movs	r3, #192	@ 0xc0
 80029e6:	00db      	lsls	r3, r3, #3
 80029e8:	9309      	str	r3, [sp, #36]	@ 0x24
    GPIO_InitStruct.Mode = GPIO_MODE_AF_PP;
 80029ea:	2302      	movs	r3, #2
 80029ec:	930a      	str	r3, [sp, #40]	@ 0x28
    GPIO_InitStruct.Pull = GPIO_NOPULL;
 80029ee:	2300      	movs	r3, #0
 80029f0:	930b      	str	r3, [sp, #44]	@ 0x2c
    GPIO_InitStruct.Speed = GPIO_SPEED_FREQ_LOW;
 80029f2:	930c      	str	r3, [sp, #48]	@ 0x30
    GPIO_InitStruct.Alternate = GPIO_AF1_USART1;
 80029f4:	920d      	str	r2, [sp, #52]	@ 0x34
    HAL_GPIO_Init(GPIOA, &GPIO_InitStruct);
 80029f6:	20a0      	movs	r0, #160	@ 0xa0
 80029f8:	a909      	add	r1, sp, #36	@ 0x24
 80029fa:	05c0      	lsls	r0, r0, #23
 80029fc:	f000 f8f6 	bl	8002bec <HAL_GPIO_Init>
}
 8002a00:	e7d5      	b.n	80029ae <HAL_UART_MspInit+0x22>
      Error_Handler();
 8002a02:	f7ff fe47 	bl	8002694 <Error_Handler>
 8002a06:	e7db      	b.n	80029c0 <HAL_UART_MspInit+0x34>
 8002a08:	40013800 	.word	0x40013800
 8002a0c:	40021000 	.word	0x40021000

08002a10 <Reset_Handler>:

  .section .text.Reset_Handler
  .weak Reset_Handler
  .type Reset_Handler, %function
Reset_Handler:
  ldr   r0, =_estack
 8002a10:	480d      	ldr	r0, [pc, #52]	@ (8002a48 <LoopForever+0x2>)
  mov   sp, r0          /* set stack pointer */
 8002a12:	4685      	mov	sp, r0
/* Call the clock system initialization function.*/
  bl  SystemInit
 8002a14:	f7ff ff40 	bl	8002898 <SystemInit>

/* Copy the data segment initializers from flash to SRAM */
  movs r1, #0
 8002a18:	2100      	movs	r1, #0
  b LoopCopyDataInit
 8002a1a:	e003      	b.n	8002a24 <LoopCopyDataInit>

08002a1c <CopyDataInit>:

CopyDataInit:
  ldr r3, =_sidata
 8002a1c:	4b0b      	ldr	r3, [pc, #44]	@ (8002a4c <LoopForever+0x6>)
  ldr r3, [r3, r1]
 8002a1e:	585b      	ldr	r3, [r3, r1]
  str r3, [r0, r1]
 8002a20:	5043      	str	r3, [r0, r1]
  adds r1, r1, #4
 8002a22:	3104      	adds	r1, #4

08002a24 <LoopCopyDataInit>:

LoopCopyDataInit:
  ldr r0, =_sdata
 8002a24:	480a      	ldr	r0, [pc, #40]	@ (8002a50 <LoopForever+0xa>)
  ldr r3, =_edata
 8002a26:	4b0b      	ldr	r3, [pc, #44]	@ (8002a54 <LoopForever+0xe>)
  adds r2, r0, r1
 8002a28:	1842      	adds	r2, r0, r1
  cmp r2, r3
 8002a2a:	429a      	cmp	r2, r3
  bcc CopyDataInit
 8002a2c:	d3f6      	bcc.n	8002a1c <CopyDataInit>
  ldr r2, =_sbss
 8002a2e:	4a0a      	ldr	r2, [pc, #40]	@ (8002a58 <LoopForever+0x12>)
  b LoopFillZerobss
 8002a30:	e002      	b.n	8002a38 <LoopFillZerobss>

08002a32 <FillZerobss>:
/* Zero fill the bss segment. */
FillZerobss:
  movs r3, #0
 8002a32:	2300      	movs	r3, #0
  str  r3, [r2]
 8002a34:	6013      	str	r3, [r2, #0]
  adds r2, r2, #4
 8002a36:	3204      	adds	r2, #4

08002a38 <LoopFillZerobss>:


LoopFillZerobss:
  ldr r3, = _ebss
 8002a38:	4b08      	ldr	r3, [pc, #32]	@ (8002a5c <LoopForever+0x16>)
  cmp r2, r3
 8002a3a:	429a      	cmp	r2, r3
  bcc FillZerobss
 8002a3c:	d3f9      	bcc.n	8002a32 <FillZerobss>


/* Call static constructors */
  bl __libc_init_array
 8002a3e:	f001 fe7b 	bl	8004738 <__libc_init_array>
/* Call the application's entry point.*/
  bl main
 8002a42:	f7ff fe65 	bl	8002710 <main>

08002a46 <LoopForever>:

LoopForever:
    b LoopForever
 8002a46:	e7fe      	b.n	8002a46 <LoopForever>
  ldr   r0, =_estack
 8002a48:	20001800 	.word	0x20001800
  ldr r3, =_sidata
 8002a4c:	08005b58 	.word	0x08005b58
  ldr r0, =_sdata
 8002a50:	20000000 	.word	0x20000000
  ldr r3, =_edata
 8002a54:	2000007c 	.word	0x2000007c
  ldr r2, =_sbss
 8002a58:	2000007c 	.word	0x2000007c
  ldr r3, = _ebss
 8002a5c:	20000368 	.word	0x20000368

08002a60 <ADC1_IRQHandler>:
 * @retval : None
*/
    .section .text.Default_Handler,"ax",%progbits
Default_Handler:
Infinite_Loop:
  b Infinite_Loop
 8002a60:	e7fe      	b.n	8002a60 <ADC1_IRQHandler>
	...

08002a64 <HAL_InitTick>:
  *       implementation  in user file.
  * @param TickPriority Tick interrupt priority.
  * @retval HAL status
  */
__weak HAL_StatusTypeDef HAL_InitTick(uint32_t TickPriority)
{
 8002a64:	b510      	push	{r4, lr}
 8002a66:	0004      	movs	r4, r0
  HAL_StatusTypeDef  status = HAL_OK;

  if ((uint32_t)uwTickFreq != 0UL)
 8002a68:	4b11      	ldr	r3, [pc, #68]	@ (8002ab0 <HAL_InitTick+0x4c>)
 8002a6a:	7819      	ldrb	r1, [r3, #0]
 8002a6c:	2900      	cmp	r1, #0
 8002a6e:	d101      	bne.n	8002a74 <HAL_InitTick+0x10>
      status = HAL_ERROR;
    }
  }
  else
  {
    status = HAL_ERROR;
 8002a70:	2001      	movs	r0, #1
  }

  /* Return function status */
  return status;
}
 8002a72:	bd10      	pop	{r4, pc}
    if (HAL_SYSTICK_Config(SystemCoreClock / (1000UL / (uint32_t)uwTickFreq)) == 0U)
 8002a74:	20fa      	movs	r0, #250	@ 0xfa
 8002a76:	0080      	lsls	r0, r0, #2
 8002a78:	f7fd fb58 	bl	800012c <__udivsi3>
 8002a7c:	0001      	movs	r1, r0
 8002a7e:	4b0d      	ldr	r3, [pc, #52]	@ (8002ab4 <HAL_InitTick+0x50>)
 8002a80:	6818      	ldr	r0, [r3, #0]
 8002a82:	f7fd fb53 	bl	800012c <__udivsi3>
 8002a86:	f000 f8ad 	bl	8002be4 <HAL_SYSTICK_Config>
 8002a8a:	2800      	cmp	r0, #0
 8002a8c:	d10d      	bne.n	8002aaa <HAL_InitTick+0x46>
      if (TickPriority < (1UL << __NVIC_PRIO_BITS))
 8002a8e:	2c03      	cmp	r4, #3
 8002a90:	d901      	bls.n	8002a96 <HAL_InitTick+0x32>
        status = HAL_ERROR;
 8002a92:	2001      	movs	r0, #1
 8002a94:	e7ed      	b.n	8002a72 <HAL_InitTick+0xe>
        HAL_NVIC_SetPriority(SysTick_IRQn, TickPriority, 0U);
 8002a96:	3001      	adds	r0, #1
 8002a98:	2200      	movs	r2, #0
 8002a9a:	0021      	movs	r1, r4
 8002a9c:	4240      	negs	r0, r0
 8002a9e:	f000 f891 	bl	8002bc4 <HAL_NVIC_SetPriority>
        uwTickPrio = TickPriority;
 8002aa2:	4b05      	ldr	r3, [pc, #20]	@ (8002ab8 <HAL_InitTick+0x54>)
 8002aa4:	601c      	str	r4, [r3, #0]
  HAL_StatusTypeDef  status = HAL_OK;
 8002aa6:	2000      	movs	r0, #0
 8002aa8:	e7e3      	b.n	8002a72 <HAL_InitTick+0xe>
      status = HAL_ERROR;
 8002aaa:	2001      	movs	r0, #1
 8002aac:	e7e1      	b.n	8002a72 <HAL_InitTick+0xe>
 8002aae:	46c0      	nop			@ (mov r8, r8)
 8002ab0:	20000024 	.word	0x20000024
 8002ab4:	20000020 	.word	0x20000020
 8002ab8:	20000028 	.word	0x20000028

08002abc <HAL_Init>:
{
 8002abc:	b510      	push	{r4, lr}
  if (HAL_InitTick(TICK_INT_PRIORITY) != HAL_OK)
 8002abe:	2003      	movs	r0, #3
 8002ac0:	f7ff ffd0 	bl	8002a64 <HAL_InitTick>
 8002ac4:	1e04      	subs	r4, r0, #0
 8002ac6:	d002      	beq.n	8002ace <HAL_Init+0x12>
    status = HAL_ERROR;
 8002ac8:	2401      	movs	r4, #1
}
 8002aca:	0020      	movs	r0, r4
 8002acc:	bd10      	pop	{r4, pc}
    HAL_MspInit();
 8002ace:	f7ff fe91 	bl	80027f4 <HAL_MspInit>
 8002ad2:	e7fa      	b.n	8002aca <HAL_Init+0xe>

08002ad4 <HAL_IncTick>:
  *      implementations in user file.
  * @retval None
  */
__weak void HAL_IncTick(void)
{
  uwTick += (uint32_t)uwTickFreq;
 8002ad4:	4b03      	ldr	r3, [pc, #12]	@ (8002ae4 <HAL_IncTick+0x10>)
 8002ad6:	781b      	ldrb	r3, [r3, #0]
 8002ad8:	4a03      	ldr	r2, [pc, #12]	@ (8002ae8 <HAL_IncTick+0x14>)
 8002ada:	6811      	ldr	r1, [r2, #0]
 8002adc:	185b      	adds	r3, r3, r1
 8002ade:	6013      	str	r3, [r2, #0]
}
 8002ae0:	4770      	bx	lr
 8002ae2:	46c0      	nop			@ (mov r8, r8)
 8002ae4:	20000024 	.word	0x20000024
 8002ae8:	2000021c 	.word	0x2000021c

08002aec <HAL_GetTick>:
  *       implementations in user file.
  * @retval tick value
  */
__weak uint32_t HAL_GetTick(void)
{
  return uwTick;
 8002aec:	4b01      	ldr	r3, [pc, #4]	@ (8002af4 <HAL_GetTick+0x8>)
 8002aee:	6818      	ldr	r0, [r3, #0]
}
 8002af0:	4770      	bx	lr
 8002af2:	46c0      	nop			@ (mov r8, r8)
 8002af4:	2000021c 	.word	0x2000021c

08002af8 <HAL_Delay>:
  *       implementations in user file.
  * @param Delay  specifies the delay time length, in milliseconds.
  * @retval None
  */
__weak void HAL_Delay(uint32_t Delay)
{
 8002af8:	b570      	push	{r4, r5, r6, lr}
 8002afa:	0004      	movs	r4, r0
  uint32_t tickstart = HAL_GetTick();
 8002afc:	f7ff fff6 	bl	8002aec <HAL_GetTick>
 8002b00:	0005      	movs	r5, r0
  uint32_t wait = Delay;

  /* Add a freq to guarantee minimum wait */
  if (wait < HAL_MAX_DELAY)
 8002b02:	1c63      	adds	r3, r4, #1
 8002b04:	d002      	beq.n	8002b0c <HAL_Delay+0x14>
  {
    wait += (uint32_t)(uwTickFreq);
 8002b06:	4b04      	ldr	r3, [pc, #16]	@ (8002b18 <HAL_Delay+0x20>)
 8002b08:	781b      	ldrb	r3, [r3, #0]
 8002b0a:	18e4      	adds	r4, r4, r3
  }

  while ((HAL_GetTick() - tickstart) < wait)
 8002b0c:	f7ff ffee 	bl	8002aec <HAL_GetTick>
 8002b10:	1b40      	subs	r0, r0, r5
 8002b12:	42a0      	cmp	r0, r4
 8002b14:	d3fa      	bcc.n	8002b0c <HAL_Delay+0x14>
  {
  }
}
 8002b16:	bd70      	pop	{r4, r5, r6, pc}
 8002b18:	20000024 	.word	0x20000024

08002b1c <HAL_SYSCFG_EnableRemap>:
  */
void HAL_SYSCFG_EnableRemap(uint32_t PinRemap)
{
  /* Check the parameter */
  assert_param(IS_HAL_REMAP_PIN(PinRemap));
  SET_BIT(SYSCFG->CFGR1, PinRemap);
 8002b1c:	4a02      	ldr	r2, [pc, #8]	@ (8002b28 <HAL_SYSCFG_EnableRemap+0xc>)
 8002b1e:	6813      	ldr	r3, [r2, #0]
 8002b20:	4303      	orrs	r3, r0
 8002b22:	6013      	str	r3, [r2, #0]
}
 8002b24:	4770      	bx	lr
 8002b26:	46c0      	nop			@ (mov r8, r8)
 8002b28:	40010000 	.word	0x40010000

08002b2c <__NVIC_SetPriority>:
  \param [in]      IRQn  Interrupt number.
  \param [in]  priority  Priority to set.
  \note    The priority cannot be set for every processor exception.
 */
__STATIC_INLINE void __NVIC_SetPriority(IRQn_Type IRQn, uint32_t priority)
{
 8002b2c:	b570      	push	{r4, r5, r6, lr}
  if ((int32_t)(IRQn) >= 0)
 8002b2e:	2800      	cmp	r0, #0
 8002b30:	db11      	blt.n	8002b56 <__NVIC_SetPriority+0x2a>
  {
    NVIC->IP[_IP_IDX(IRQn)]  = ((uint32_t)(NVIC->IP[_IP_IDX(IRQn)]  & ~(0xFFUL << _BIT_SHIFT(IRQn))) |
 8002b32:	0883      	lsrs	r3, r0, #2
 8002b34:	4d13      	ldr	r5, [pc, #76]	@ (8002b84 <__NVIC_SetPriority+0x58>)
 8002b36:	33c0      	adds	r3, #192	@ 0xc0
 8002b38:	009b      	lsls	r3, r3, #2
 8002b3a:	595c      	ldr	r4, [r3, r5]
 8002b3c:	2203      	movs	r2, #3
 8002b3e:	4010      	ands	r0, r2
 8002b40:	00c0      	lsls	r0, r0, #3
 8002b42:	32fc      	adds	r2, #252	@ 0xfc
 8002b44:	0016      	movs	r6, r2
 8002b46:	4086      	lsls	r6, r0
 8002b48:	43b4      	bics	r4, r6
       (((priority << (8U - __NVIC_PRIO_BITS)) & (uint32_t)0xFFUL) << _BIT_SHIFT(IRQn)));
 8002b4a:	0189      	lsls	r1, r1, #6
 8002b4c:	400a      	ands	r2, r1
 8002b4e:	4082      	lsls	r2, r0
    NVIC->IP[_IP_IDX(IRQn)]  = ((uint32_t)(NVIC->IP[_IP_IDX(IRQn)]  & ~(0xFFUL << _BIT_SHIFT(IRQn))) |
 8002b50:	4322      	orrs	r2, r4
 8002b52:	515a      	str	r2, [r3, r5]
  else
  {
    SCB->SHP[_SHP_IDX(IRQn)] = ((uint32_t)(SCB->SHP[_SHP_IDX(IRQn)] & ~(0xFFUL << _BIT_SHIFT(IRQn))) |
       (((priority << (8U - __NVIC_PRIO_BITS)) & (uint32_t)0xFFUL) << _BIT_SHIFT(IRQn)));
  }
}
 8002b54:	bd70      	pop	{r4, r5, r6, pc}
    SCB->SHP[_SHP_IDX(IRQn)] = ((uint32_t)(SCB->SHP[_SHP_IDX(IRQn)] & ~(0xFFUL << _BIT_SHIFT(IRQn))) |
 8002b56:	230f      	movs	r3, #15
 8002b58:	4003      	ands	r3, r0
 8002b5a:	3b08      	subs	r3, #8
 8002b5c:	089b      	lsrs	r3, r3, #2
 8002b5e:	3306      	adds	r3, #6
 8002b60:	009b      	lsls	r3, r3, #2
 8002b62:	4a09      	ldr	r2, [pc, #36]	@ (8002b88 <__NVIC_SetPriority+0x5c>)
 8002b64:	4694      	mov	ip, r2
 8002b66:	4463      	add	r3, ip
 8002b68:	685c      	ldr	r4, [r3, #4]
 8002b6a:	2203      	movs	r2, #3
 8002b6c:	4010      	ands	r0, r2
 8002b6e:	00c0      	lsls	r0, r0, #3
 8002b70:	32fc      	adds	r2, #252	@ 0xfc
 8002b72:	0015      	movs	r5, r2
 8002b74:	4085      	lsls	r5, r0
 8002b76:	43ac      	bics	r4, r5
       (((priority << (8U - __NVIC_PRIO_BITS)) & (uint32_t)0xFFUL) << _BIT_SHIFT(IRQn)));
 8002b78:	0189      	lsls	r1, r1, #6
 8002b7a:	400a      	ands	r2, r1
 8002b7c:	4082      	lsls	r2, r0
    SCB->SHP[_SHP_IDX(IRQn)] = ((uint32_t)(SCB->SHP[_SHP_IDX(IRQn)] & ~(0xFFUL << _BIT_SHIFT(IRQn))) |
 8002b7e:	4322      	orrs	r2, r4
 8002b80:	605a      	str	r2, [r3, #4]
}
 8002b82:	e7e7      	b.n	8002b54 <__NVIC_SetPriority+0x28>
 8002b84:	e000e100 	.word	0xe000e100
 8002b88:	e000ed00 	.word	0xe000ed00

08002b8c <SysTick_Config>:
           function <b>SysTick_Config</b> is not included. In this case, the file <b><i>device</i>.h</b>
           must contain a vendor-specific implementation of this function.
 */
__STATIC_INLINE uint32_t SysTick_Config(uint32_t ticks)
{
  if ((ticks - 1UL) > SysTick_LOAD_RELOAD_Msk)
 8002b8c:	3801      	subs	r0, #1
 8002b8e:	2380      	movs	r3, #128	@ 0x80
 8002b90:	045b      	lsls	r3, r3, #17
 8002b92:	4298      	cmp	r0, r3
 8002b94:	d20f      	bcs.n	8002bb6 <SysTick_Config+0x2a>
  {
    return (1UL);                                                   /* Reload value impossible */
  }

  SysTick->LOAD  = (uint32_t)(ticks - 1UL);                         /* set reload register */
 8002b96:	4a09      	ldr	r2, [pc, #36]	@ (8002bbc <SysTick_Config+0x30>)
 8002b98:	6050      	str	r0, [r2, #4]
    SCB->SHP[_SHP_IDX(IRQn)] = ((uint32_t)(SCB->SHP[_SHP_IDX(IRQn)] & ~(0xFFUL << _BIT_SHIFT(IRQn))) |
 8002b9a:	4809      	ldr	r0, [pc, #36]	@ (8002bc0 <SysTick_Config+0x34>)
 8002b9c:	6a03      	ldr	r3, [r0, #32]
 8002b9e:	021b      	lsls	r3, r3, #8
 8002ba0:	0a1b      	lsrs	r3, r3, #8
 8002ba2:	21c0      	movs	r1, #192	@ 0xc0
 8002ba4:	0609      	lsls	r1, r1, #24
 8002ba6:	430b      	orrs	r3, r1
 8002ba8:	6203      	str	r3, [r0, #32]
  NVIC_SetPriority (SysTick_IRQn, (1UL << __NVIC_PRIO_BITS) - 1UL); /* set Priority for Systick Interrupt */
  SysTick->VAL   = 0UL;                                             /* Load the SysTick Counter Value */
 8002baa:	2300      	movs	r3, #0
 8002bac:	6093      	str	r3, [r2, #8]
  SysTick->CTRL  = SysTick_CTRL_CLKSOURCE_Msk |
 8002bae:	3307      	adds	r3, #7
 8002bb0:	6013      	str	r3, [r2, #0]
                   SysTick_CTRL_TICKINT_Msk   |
                   SysTick_CTRL_ENABLE_Msk;                         /* Enable SysTick IRQ and SysTick Timer */
  return (0UL);                                                     /* Function successful */
 8002bb2:	2000      	movs	r0, #0
}
 8002bb4:	4770      	bx	lr
    return (1UL);                                                   /* Reload value impossible */
 8002bb6:	2001      	movs	r0, #1
 8002bb8:	e7fc      	b.n	8002bb4 <SysTick_Config+0x28>
 8002bba:	46c0      	nop			@ (mov r8, r8)
 8002bbc:	e000e010 	.word	0xe000e010
 8002bc0:	e000ed00 	.word	0xe000ed00

08002bc4 <HAL_NVIC_SetPriority>:
  *         with stm32c0xx devices, this parameter is a dummy value and it is ignored, because
  *         no subpriority supported in Cortex M0+ based products.
  * @retval None
  */
void HAL_NVIC_SetPriority(IRQn_Type IRQn, uint32_t PreemptPriority, uint32_t SubPriority)
{
 8002bc4:	b510      	push	{r4, lr}
  /* Prevent unused argument(s) compilation warning */
  UNUSED(SubPriority);
  /* Check the parameters */
  assert_param(IS_NVIC_PREEMPTION_PRIORITY(PreemptPriority));
  NVIC_SetPriority(IRQn, PreemptPriority);
 8002bc6:	f7ff ffb1 	bl	8002b2c <__NVIC_SetPriority>
}
 8002bca:	bd10      	pop	{r4, pc}

08002bcc <HAL_NVIC_EnableIRQ>:
  if ((int32_t)(IRQn) >= 0)
 8002bcc:	2800      	cmp	r0, #0
 8002bce:	db05      	blt.n	8002bdc <HAL_NVIC_EnableIRQ+0x10>
    NVIC->ISER[0U] = (uint32_t)(1UL << (((uint32_t)IRQn) & 0x1FUL));
 8002bd0:	221f      	movs	r2, #31
 8002bd2:	4002      	ands	r2, r0
 8002bd4:	2301      	movs	r3, #1
 8002bd6:	4093      	lsls	r3, r2
 8002bd8:	4a01      	ldr	r2, [pc, #4]	@ (8002be0 <HAL_NVIC_EnableIRQ+0x14>)
 8002bda:	6013      	str	r3, [r2, #0]
  /* Check the parameters */
  assert_param(IS_NVIC_DEVICE_IRQ(IRQn));

  /* Enable interrupt */
  NVIC_EnableIRQ(IRQn);
}
 8002bdc:	4770      	bx	lr
 8002bde:	46c0      	nop			@ (mov r8, r8)
 8002be0:	e000e100 	.word	0xe000e100

08002be4 <HAL_SYSTICK_Config>:
  * @param  TicksNumb Specifies the ticks Number of ticks between two interrupts.
  * @retval status:  - 0  Function succeeded.
  *                  - 1  Function failed.
  */
uint32_t HAL_SYSTICK_Config(uint32_t TicksNumb)
{
 8002be4:	b510      	push	{r4, lr}
  return SysTick_Config(TicksNumb);
 8002be6:	f7ff ffd1 	bl	8002b8c <SysTick_Config>
}
 8002bea:	bd10      	pop	{r4, pc}

08002bec <HAL_GPIO_Init>:
  * @param  pGPIO_Init pointer to a GPIO_InitTypeDef structure that contains
  *         the configuration information for the specified GPIO peripheral.
  * @retval None
  */
void HAL_GPIO_Init(GPIO_TypeDef  *GPIOx, const GPIO_InitTypeDef *pGPIO_Init)
{
 8002bec:	b5f0      	push	{r4, r5, r6, r7, lr}
 8002bee:	46d6      	mov	lr, sl
 8002bf0:	464f      	mov	r7, r9
 8002bf2:	4646      	mov	r6, r8
 8002bf4:	b5c0      	push	{r6, r7, lr}
  uint32_t tmp;
  uint32_t iocurrent;
  uint32_t position = 0U;
 8002bf6:	2300      	movs	r3, #0
  assert_param(IS_GPIO_ALL_INSTANCE(GPIOx));
  assert_param(IS_GPIO_PIN(pGPIO_Init->Pin));
  assert_param(IS_GPIO_MODE(pGPIO_Init->Mode));

  /* Configure the port pins */
  while (((pGPIO_Init->Pin) >> position) != 0U)
 8002bf8:	e03b      	b.n	8002c72 <HAL_GPIO_Init+0x86>
      /* Configure the External Interrupt or event for the current IO */
      if ((pGPIO_Init->Mode & EXTI_MODE) == EXTI_MODE)
      {
        tmp = EXTI->EXTICR[position >> 2U];
        tmp &= ~((0x0FUL) << ((position & 0x03U) * EXTI_EXTICR1_EXTI1_Pos));
        tmp |= (GPIO_GET_INDEX(GPIOx) << ((position & 0x03U) * EXTI_EXTICR1_EXTI1_Pos));
 8002bfa:	2505      	movs	r5, #5
 8002bfc:	e000      	b.n	8002c00 <HAL_GPIO_Init+0x14>
 8002bfe:	2500      	movs	r5, #0
 8002c00:	40a5      	lsls	r5, r4
 8002c02:	002c      	movs	r4, r5
 8002c04:	433c      	orrs	r4, r7
        EXTI->EXTICR[position >> 2U] = tmp;
 8002c06:	4d61      	ldr	r5, [pc, #388]	@ (8002d8c <HAL_GPIO_Init+0x1a0>)
 8002c08:	3218      	adds	r2, #24
 8002c0a:	0092      	lsls	r2, r2, #2
 8002c0c:	5154      	str	r4, [r2, r5]

        /* Clear EXTI line configuration */
        tmp = EXTI->IMR1;
 8002c0e:	2280      	movs	r2, #128	@ 0x80
 8002c10:	58af      	ldr	r7, [r5, r2]
        tmp &= ~((uint32_t)iocurrent);
 8002c12:	464a      	mov	r2, r9
 8002c14:	43d2      	mvns	r2, r2
 8002c16:	003d      	movs	r5, r7
 8002c18:	464c      	mov	r4, r9
 8002c1a:	43a5      	bics	r5, r4
        if ((pGPIO_Init->Mode & GPIO_MODE_IT) == GPIO_MODE_IT)
 8002c1c:	684c      	ldr	r4, [r1, #4]
 8002c1e:	03e4      	lsls	r4, r4, #15
 8002c20:	d502      	bpl.n	8002c28 <HAL_GPIO_Init+0x3c>
        {
          tmp |= iocurrent;
 8002c22:	003d      	movs	r5, r7
 8002c24:	464c      	mov	r4, r9
 8002c26:	4325      	orrs	r5, r4
        }
        EXTI->IMR1 = tmp;
 8002c28:	4c58      	ldr	r4, [pc, #352]	@ (8002d8c <HAL_GPIO_Init+0x1a0>)
 8002c2a:	2780      	movs	r7, #128	@ 0x80
 8002c2c:	51e5      	str	r5, [r4, r7]

        tmp = EXTI->EMR1;
 8002c2e:	2584      	movs	r5, #132	@ 0x84
 8002c30:	5967      	ldr	r7, [r4, r5]
        tmp &= ~((uint32_t)iocurrent);
 8002c32:	003d      	movs	r5, r7
 8002c34:	4015      	ands	r5, r2
        if ((pGPIO_Init->Mode & GPIO_MODE_EVT) == GPIO_MODE_EVT)
 8002c36:	684c      	ldr	r4, [r1, #4]
 8002c38:	03a4      	lsls	r4, r4, #14
 8002c3a:	d502      	bpl.n	8002c42 <HAL_GPIO_Init+0x56>
        {
          tmp |= iocurrent;
 8002c3c:	003d      	movs	r5, r7
 8002c3e:	464c      	mov	r4, r9
 8002c40:	4325      	orrs	r5, r4
        }
        EXTI->EMR1 = tmp;
 8002c42:	4c52      	ldr	r4, [pc, #328]	@ (8002d8c <HAL_GPIO_Init+0x1a0>)
 8002c44:	2784      	movs	r7, #132	@ 0x84
 8002c46:	51e5      	str	r5, [r4, r7]

        /* Clear Rising Falling edge configuration */
        tmp = EXTI->RTSR1;
 8002c48:	6827      	ldr	r7, [r4, #0]
        tmp &= ~((uint32_t)iocurrent);
 8002c4a:	003d      	movs	r5, r7
 8002c4c:	4015      	ands	r5, r2
        if ((pGPIO_Init->Mode & RISING_EDGE) == RISING_EDGE)
 8002c4e:	684c      	ldr	r4, [r1, #4]
 8002c50:	02e4      	lsls	r4, r4, #11
 8002c52:	d502      	bpl.n	8002c5a <HAL_GPIO_Init+0x6e>
        {
          tmp |= iocurrent;
 8002c54:	003d      	movs	r5, r7
 8002c56:	464c      	mov	r4, r9
 8002c58:	4325      	orrs	r5, r4
        }
        EXTI->RTSR1 = tmp;
 8002c5a:	4c4c      	ldr	r4, [pc, #304]	@ (8002d8c <HAL_GPIO_Init+0x1a0>)
 8002c5c:	6025      	str	r5, [r4, #0]

        tmp = EXTI->FTSR1;
 8002c5e:	6865      	ldr	r5, [r4, #4]
        tmp &= ~((uint32_t)iocurrent);
 8002c60:	402a      	ands	r2, r5
        if ((pGPIO_Init->Mode & FALLING_EDGE) == FALLING_EDGE)
 8002c62:	684c      	ldr	r4, [r1, #4]
 8002c64:	02a4      	lsls	r4, r4, #10
 8002c66:	d501      	bpl.n	8002c6c <HAL_GPIO_Init+0x80>
        {
          tmp |= iocurrent;
 8002c68:	464a      	mov	r2, r9
 8002c6a:	432a      	orrs	r2, r5
        }
        EXTI->FTSR1 = tmp;
 8002c6c:	4c47      	ldr	r4, [pc, #284]	@ (8002d8c <HAL_GPIO_Init+0x1a0>)
 8002c6e:	6062      	str	r2, [r4, #4]
      }
    }

    position++;
 8002c70:	3301      	adds	r3, #1
  while (((pGPIO_Init->Pin) >> position) != 0U)
 8002c72:	680c      	ldr	r4, [r1, #0]
 8002c74:	0022      	movs	r2, r4
 8002c76:	40da      	lsrs	r2, r3
 8002c78:	d100      	bne.n	8002c7c <HAL_GPIO_Init+0x90>
 8002c7a:	e081      	b.n	8002d80 <HAL_GPIO_Init+0x194>
    iocurrent = (pGPIO_Init->Pin) & (1UL << position);
 8002c7c:	2201      	movs	r2, #1
 8002c7e:	409a      	lsls	r2, r3
 8002c80:	0026      	movs	r6, r4
 8002c82:	4016      	ands	r6, r2
 8002c84:	46b1      	mov	r9, r6
    if (iocurrent != 0U)
 8002c86:	4214      	tst	r4, r2
 8002c88:	d0f2      	beq.n	8002c70 <HAL_GPIO_Init+0x84>
      if ((pGPIO_Init->Mode == GPIO_MODE_AF_PP) || (pGPIO_Init->Mode == GPIO_MODE_AF_OD))
 8002c8a:	684c      	ldr	r4, [r1, #4]
 8002c8c:	2c02      	cmp	r4, #2
 8002c8e:	d001      	beq.n	8002c94 <HAL_GPIO_Init+0xa8>
 8002c90:	2c12      	cmp	r4, #18
 8002c92:	d118      	bne.n	8002cc6 <HAL_GPIO_Init+0xda>
        tmp = GPIOx->AFR[position >> 3U];
 8002c94:	08dd      	lsrs	r5, r3, #3
 8002c96:	3508      	adds	r5, #8
 8002c98:	00ad      	lsls	r5, r5, #2
 8002c9a:	582c      	ldr	r4, [r5, r0]
 8002c9c:	46a4      	mov	ip, r4
        tmp &= ~(0xFUL << ((position & 0x07U) * GPIO_AFRL_AFSEL1_Pos)) ;
 8002c9e:	2707      	movs	r7, #7
 8002ca0:	401f      	ands	r7, r3
 8002ca2:	00bf      	lsls	r7, r7, #2
 8002ca4:	240f      	movs	r4, #15
 8002ca6:	46a2      	mov	sl, r4
 8002ca8:	0026      	movs	r6, r4
 8002caa:	40be      	lsls	r6, r7
 8002cac:	46b0      	mov	r8, r6
 8002cae:	4666      	mov	r6, ip
 8002cb0:	4644      	mov	r4, r8
 8002cb2:	43a6      	bics	r6, r4
 8002cb4:	46b4      	mov	ip, r6
        tmp |= ((pGPIO_Init->Alternate & 0x0FUL) << ((position & 0x07U) * GPIO_AFRL_AFSEL1_Pos));
 8002cb6:	690c      	ldr	r4, [r1, #16]
 8002cb8:	4656      	mov	r6, sl
 8002cba:	4026      	ands	r6, r4
 8002cbc:	0034      	movs	r4, r6
 8002cbe:	40bc      	lsls	r4, r7
 8002cc0:	4666      	mov	r6, ip
 8002cc2:	4334      	orrs	r4, r6
        GPIOx->AFR[position >> 3U] = tmp;
 8002cc4:	502c      	str	r4, [r5, r0]
      tmp = GPIOx->MODER;
 8002cc6:	6804      	ldr	r4, [r0, #0]
 8002cc8:	46a4      	mov	ip, r4
      tmp &= ~(GPIO_MODER_MODE0 << (position * GPIO_MODER_MODE1_Pos));
 8002cca:	005d      	lsls	r5, r3, #1
 8002ccc:	2403      	movs	r4, #3
 8002cce:	46a2      	mov	sl, r4
 8002cd0:	0027      	movs	r7, r4
 8002cd2:	40af      	lsls	r7, r5
 8002cd4:	46b8      	mov	r8, r7
 8002cd6:	43ff      	mvns	r7, r7
 8002cd8:	4666      	mov	r6, ip
 8002cda:	4644      	mov	r4, r8
 8002cdc:	43a6      	bics	r6, r4
 8002cde:	46b4      	mov	ip, r6
      tmp |= ((pGPIO_Init->Mode & GPIO_MODE) << (position * GPIO_MODER_MODE1_Pos));
 8002ce0:	684c      	ldr	r4, [r1, #4]
 8002ce2:	4656      	mov	r6, sl
 8002ce4:	4026      	ands	r6, r4
 8002ce6:	0034      	movs	r4, r6
 8002ce8:	40ac      	lsls	r4, r5
 8002cea:	4666      	mov	r6, ip
 8002cec:	4334      	orrs	r4, r6
      GPIOx->MODER = tmp;
 8002cee:	6004      	str	r4, [r0, #0]
      if ((pGPIO_Init->Mode == GPIO_MODE_OUTPUT_PP) || (pGPIO_Init->Mode == GPIO_MODE_AF_PP) ||
 8002cf0:	684c      	ldr	r4, [r1, #4]
 8002cf2:	1e66      	subs	r6, r4, #1
 8002cf4:	2e01      	cmp	r6, #1
 8002cf6:	d903      	bls.n	8002d00 <HAL_GPIO_Init+0x114>
 8002cf8:	2c11      	cmp	r4, #17
 8002cfa:	d001      	beq.n	8002d00 <HAL_GPIO_Init+0x114>
          (pGPIO_Init->Mode == GPIO_MODE_OUTPUT_OD) || (pGPIO_Init->Mode == GPIO_MODE_AF_OD))
 8002cfc:	2c12      	cmp	r4, #18
 8002cfe:	d112      	bne.n	8002d26 <HAL_GPIO_Init+0x13a>
        tmp = GPIOx->OSPEEDR;
 8002d00:	6884      	ldr	r4, [r0, #8]
        tmp &= ~(GPIO_OSPEEDR_OSPEED0 << (position * GPIO_OSPEEDR_OSPEED1_Pos));
 8002d02:	403c      	ands	r4, r7
 8002d04:	46a4      	mov	ip, r4
        tmp |= (pGPIO_Init->Speed << (position * GPIO_OSPEEDR_OSPEED1_Pos));
 8002d06:	68cc      	ldr	r4, [r1, #12]
 8002d08:	40ac      	lsls	r4, r5
 8002d0a:	4666      	mov	r6, ip
 8002d0c:	4334      	orrs	r4, r6
        GPIOx->OSPEEDR = tmp;
 8002d0e:	6084      	str	r4, [r0, #8]
        tmp = GPIOx->OTYPER;
 8002d10:	6844      	ldr	r4, [r0, #4]
        tmp &= ~(GPIO_OTYPER_OT0 << position) ;
 8002d12:	4394      	bics	r4, r2
        tmp |= (((pGPIO_Init->Mode & GPIO_OUTPUT_TYPE) >> 4U) << position);
 8002d14:	684a      	ldr	r2, [r1, #4]
 8002d16:	0912      	lsrs	r2, r2, #4
 8002d18:	4694      	mov	ip, r2
 8002d1a:	2201      	movs	r2, #1
 8002d1c:	4666      	mov	r6, ip
 8002d1e:	4032      	ands	r2, r6
 8002d20:	409a      	lsls	r2, r3
 8002d22:	4322      	orrs	r2, r4
        GPIOx->OTYPER = tmp;
 8002d24:	6042      	str	r2, [r0, #4]
      if (pGPIO_Init->Mode != GPIO_MODE_ANALOG)
 8002d26:	684a      	ldr	r2, [r1, #4]
 8002d28:	2a03      	cmp	r2, #3
 8002d2a:	d005      	beq.n	8002d38 <HAL_GPIO_Init+0x14c>
        tmp = GPIOx->PUPDR;
 8002d2c:	68c4      	ldr	r4, [r0, #12]
        tmp &= ~(GPIO_PUPDR_PUPD0 << (position * GPIO_PUPDR_PUPD1_Pos));
 8002d2e:	403c      	ands	r4, r7
        tmp |= ((pGPIO_Init->Pull) << (position * GPIO_PUPDR_PUPD1_Pos));
 8002d30:	688a      	ldr	r2, [r1, #8]
 8002d32:	40aa      	lsls	r2, r5
 8002d34:	4322      	orrs	r2, r4
        GPIOx->PUPDR = tmp;
 8002d36:	60c2      	str	r2, [r0, #12]
      if ((pGPIO_Init->Mode & EXTI_MODE) == EXTI_MODE)
 8002d38:	684a      	ldr	r2, [r1, #4]
 8002d3a:	00d2      	lsls	r2, r2, #3
 8002d3c:	d598      	bpl.n	8002c70 <HAL_GPIO_Init+0x84>
        tmp = EXTI->EXTICR[position >> 2U];
 8002d3e:	089a      	lsrs	r2, r3, #2
 8002d40:	0014      	movs	r4, r2
 8002d42:	3418      	adds	r4, #24
 8002d44:	00a4      	lsls	r4, r4, #2
 8002d46:	4d11      	ldr	r5, [pc, #68]	@ (8002d8c <HAL_GPIO_Init+0x1a0>)
 8002d48:	5967      	ldr	r7, [r4, r5]
        tmp &= ~((0x0FUL) << ((position & 0x03U) * EXTI_EXTICR1_EXTI1_Pos));
 8002d4a:	2403      	movs	r4, #3
 8002d4c:	401c      	ands	r4, r3
 8002d4e:	00e4      	lsls	r4, r4, #3
 8002d50:	250f      	movs	r5, #15
 8002d52:	40a5      	lsls	r5, r4
 8002d54:	43af      	bics	r7, r5
        tmp |= (GPIO_GET_INDEX(GPIOx) << ((position & 0x03U) * EXTI_EXTICR1_EXTI1_Pos));
 8002d56:	25a0      	movs	r5, #160	@ 0xa0
 8002d58:	05ed      	lsls	r5, r5, #23
 8002d5a:	42a8      	cmp	r0, r5
 8002d5c:	d100      	bne.n	8002d60 <HAL_GPIO_Init+0x174>
 8002d5e:	e74e      	b.n	8002bfe <HAL_GPIO_Init+0x12>
 8002d60:	4d0b      	ldr	r5, [pc, #44]	@ (8002d90 <HAL_GPIO_Init+0x1a4>)
 8002d62:	42a8      	cmp	r0, r5
 8002d64:	d008      	beq.n	8002d78 <HAL_GPIO_Init+0x18c>
 8002d66:	4d0b      	ldr	r5, [pc, #44]	@ (8002d94 <HAL_GPIO_Init+0x1a8>)
 8002d68:	42a8      	cmp	r0, r5
 8002d6a:	d007      	beq.n	8002d7c <HAL_GPIO_Init+0x190>
 8002d6c:	4d0a      	ldr	r5, [pc, #40]	@ (8002d98 <HAL_GPIO_Init+0x1ac>)
 8002d6e:	42a8      	cmp	r0, r5
 8002d70:	d100      	bne.n	8002d74 <HAL_GPIO_Init+0x188>
 8002d72:	e742      	b.n	8002bfa <HAL_GPIO_Init+0xe>
 8002d74:	2506      	movs	r5, #6
 8002d76:	e743      	b.n	8002c00 <HAL_GPIO_Init+0x14>
 8002d78:	2501      	movs	r5, #1
 8002d7a:	e741      	b.n	8002c00 <HAL_GPIO_Init+0x14>
 8002d7c:	2502      	movs	r5, #2
 8002d7e:	e73f      	b.n	8002c00 <HAL_GPIO_Init+0x14>
  }
}
 8002d80:	bce0      	pop	{r5, r6, r7}
 8002d82:	46ba      	mov	sl, r7
 8002d84:	46b1      	mov	r9, r6
 8002d86:	46a8      	mov	r8, r5
 8002d88:	bdf0      	pop	{r4, r5, r6, r7, pc}
 8002d8a:	46c0      	nop			@ (mov r8, r8)
 8002d8c:	40021800 	.word	0x40021800
 8002d90:	50000400 	.word	0x50000400
 8002d94:	50000800 	.word	0x50000800
 8002d98:	50001400 	.word	0x50001400

08002d9c <HAL_GPIO_WritePin>:
{
  /* Check the parameters */
  assert_param(IS_GPIO_PIN(GPIO_Pin));
  assert_param(IS_GPIO_PIN_ACTION(PinState));

  if (PinState != GPIO_PIN_RESET)
 8002d9c:	2a00      	cmp	r2, #0
 8002d9e:	d001      	beq.n	8002da4 <HAL_GPIO_WritePin+0x8>
  {
    GPIOx->BSRR = (uint32_t)GPIO_Pin;
 8002da0:	6181      	str	r1, [r0, #24]
  }
  else
  {
    GPIOx->BRR = (uint32_t)GPIO_Pin;
  }
}
 8002da2:	4770      	bx	lr
    GPIOx->BRR = (uint32_t)GPIO_Pin;
 8002da4:	6281      	str	r1, [r0, #40]	@ 0x28
}
 8002da6:	e7fc      	b.n	8002da2 <HAL_GPIO_WritePin+0x6>

08002da8 <I2C_Flush_TXDR>:
  */
static void I2C_Flush_TXDR(I2C_HandleTypeDef *hi2c)
{
  /* If a pending TXIS flag is set */
  /* Write a dummy data in TXDR to clear it */
  if (__HAL_I2C_GET_FLAG(hi2c, I2C_FLAG_TXIS) != RESET)
 8002da8:	6802      	ldr	r2, [r0, #0]
 8002daa:	6993      	ldr	r3, [r2, #24]
 8002dac:	079b      	lsls	r3, r3, #30
 8002dae:	d501      	bpl.n	8002db4 <I2C_Flush_TXDR+0xc>
  {
    hi2c->Instance->TXDR = 0x00U;
 8002db0:	2300      	movs	r3, #0
 8002db2:	6293      	str	r3, [r2, #40]	@ 0x28
  }

  /* Flush TX register if not empty */
  if (__HAL_I2C_GET_FLAG(hi2c, I2C_FLAG_TXE) == RESET)
 8002db4:	6803      	ldr	r3, [r0, #0]
 8002db6:	699a      	ldr	r2, [r3, #24]
 8002db8:	07d2      	lsls	r2, r2, #31
 8002dba:	d403      	bmi.n	8002dc4 <I2C_Flush_TXDR+0x1c>
  {
    __HAL_I2C_CLEAR_FLAG(hi2c, I2C_FLAG_TXE);
 8002dbc:	699a      	ldr	r2, [r3, #24]
 8002dbe:	2101      	movs	r1, #1
 8002dc0:	430a      	orrs	r2, r1
 8002dc2:	619a      	str	r2, [r3, #24]
  }
}
 8002dc4:	4770      	bx	lr
	...

08002dc8 <I2C_TransferConfig>:
  *     @arg @ref I2C_GENERATE_START_WRITE Generate Restart for write request.
  * @retval None
  */
static void I2C_TransferConfig(I2C_HandleTypeDef *hi2c, uint16_t DevAddress, uint8_t Size, uint32_t Mode,
                               uint32_t Request)
{
 8002dc8:	b510      	push	{r4, lr}
  assert_param(IS_I2C_ALL_INSTANCE(hi2c->Instance));
  assert_param(IS_TRANSFER_MODE(Mode));
  assert_param(IS_TRANSFER_REQUEST(Request));

  /* Declaration of tmp to prevent undefined behavior of volatile usage */
  tmp = ((uint32_t)(((uint32_t)DevAddress & I2C_CR2_SADD) | \
 8002dca:	0589      	lsls	r1, r1, #22
 8002dcc:	0d89      	lsrs	r1, r1, #22
                    (((uint32_t)Size << I2C_CR2_NBYTES_Pos) & I2C_CR2_NBYTES) | \
 8002dce:	0412      	lsls	r2, r2, #16
  tmp = ((uint32_t)(((uint32_t)DevAddress & I2C_CR2_SADD) | \
 8002dd0:	4311      	orrs	r1, r2
                    (((uint32_t)Size << I2C_CR2_NBYTES_Pos) & I2C_CR2_NBYTES) | \
 8002dd2:	4319      	orrs	r1, r3
  tmp = ((uint32_t)(((uint32_t)DevAddress & I2C_CR2_SADD) | \
 8002dd4:	9b02      	ldr	r3, [sp, #8]
 8002dd6:	4319      	orrs	r1, r3
 8002dd8:	0049      	lsls	r1, r1, #1
 8002dda:	0849      	lsrs	r1, r1, #1
                    (uint32_t)Mode | (uint32_t)Request) & (~0x80000000U));

  /* update CR2 register */
  MODIFY_REG(hi2c->Instance->CR2, \
 8002ddc:	6804      	ldr	r4, [r0, #0]
 8002dde:	6862      	ldr	r2, [r4, #4]
 8002de0:	0d5b      	lsrs	r3, r3, #21
 8002de2:	2080      	movs	r0, #128	@ 0x80
 8002de4:	00c0      	lsls	r0, r0, #3
 8002de6:	4003      	ands	r3, r0
 8002de8:	4803      	ldr	r0, [pc, #12]	@ (8002df8 <I2C_TransferConfig+0x30>)
 8002dea:	4303      	orrs	r3, r0
 8002dec:	439a      	bics	r2, r3
 8002dee:	0013      	movs	r3, r2
 8002df0:	430b      	orrs	r3, r1
 8002df2:	6063      	str	r3, [r4, #4]
             ((I2C_CR2_SADD | I2C_CR2_NBYTES | I2C_CR2_RELOAD | I2C_CR2_AUTOEND | \
               (I2C_CR2_RD_WRN & (uint32_t)(Request >> (31U - I2C_CR2_RD_WRN_Pos))) | \
               I2C_CR2_START | I2C_CR2_STOP)), tmp);
}
 8002df4:	bd10      	pop	{r4, pc}
 8002df6:	46c0      	nop			@ (mov r8, r8)
 8002df8:	03ff63ff 	.word	0x03ff63ff

08002dfc <I2C_IsErrorOccurred>:
{
 8002dfc:	b5f0      	push	{r4, r5, r6, r7, lr}
 8002dfe:	46c6      	mov	lr, r8
 8002e00:	b500      	push	{lr}
 8002e02:	0004      	movs	r4, r0
 8002e04:	000d      	movs	r5, r1
 8002e06:	0017      	movs	r7, r2
  uint32_t itflag   = hi2c->Instance->ISR;
 8002e08:	6801      	ldr	r1, [r0, #0]
 8002e0a:	698b      	ldr	r3, [r1, #24]
  if (HAL_IS_BIT_SET(itflag, I2C_FLAG_AF))
 8002e0c:	2210      	movs	r2, #16
 8002e0e:	0016      	movs	r6, r2
 8002e10:	401e      	ands	r6, r3
 8002e12:	421a      	tst	r2, r3
 8002e14:	d100      	bne.n	8002e18 <I2C_IsErrorOccurred+0x1c>
 8002e16:	e075      	b.n	8002f04 <I2C_IsErrorOccurred+0x108>
    __HAL_I2C_CLEAR_FLAG(hi2c, I2C_FLAG_AF);
 8002e18:	2310      	movs	r3, #16
 8002e1a:	61cb      	str	r3, [r1, #28]
  uint32_t error_code = 0;
 8002e1c:	2300      	movs	r3, #0
 8002e1e:	4698      	mov	r8, r3
  HAL_StatusTypeDef status = HAL_OK;
 8002e20:	2600      	movs	r6, #0
    while ((__HAL_I2C_GET_FLAG(hi2c, I2C_FLAG_STOPF) == RESET) && (status == HAL_OK))
 8002e22:	6820      	ldr	r0, [r4, #0]
 8002e24:	6983      	ldr	r3, [r0, #24]
 8002e26:	069b      	lsls	r3, r3, #26
 8002e28:	d431      	bmi.n	8002e8e <I2C_IsErrorOccurred+0x92>
 8002e2a:	2e00      	cmp	r6, #0
 8002e2c:	d12f      	bne.n	8002e8e <I2C_IsErrorOccurred+0x92>
      if (Timeout != HAL_MAX_DELAY)
 8002e2e:	1c6b      	adds	r3, r5, #1
 8002e30:	d0f7      	beq.n	8002e22 <I2C_IsErrorOccurred+0x26>
        if (((HAL_GetTick() - tickstart) > Timeout) || (Timeout == 0U))
 8002e32:	f7ff fe5b 	bl	8002aec <HAL_GetTick>
 8002e36:	1bc0      	subs	r0, r0, r7
 8002e38:	42a8      	cmp	r0, r5
 8002e3a:	d801      	bhi.n	8002e40 <I2C_IsErrorOccurred+0x44>
 8002e3c:	2d00      	cmp	r5, #0
 8002e3e:	d1f0      	bne.n	8002e22 <I2C_IsErrorOccurred+0x26>
          tmp1 = (uint32_t)(hi2c->Instance->CR2 & I2C_CR2_STOP);
 8002e40:	6821      	ldr	r1, [r4, #0]
 8002e42:	684b      	ldr	r3, [r1, #4]
 8002e44:	2280      	movs	r2, #128	@ 0x80
 8002e46:	01d2      	lsls	r2, r2, #7
 8002e48:	4013      	ands	r3, r2
          tmp2 = hi2c->Mode;
 8002e4a:	2242      	movs	r2, #66	@ 0x42
 8002e4c:	5ca2      	ldrb	r2, [r4, r2]
 8002e4e:	b2d2      	uxtb	r2, r2
          if ((__HAL_I2C_GET_FLAG(hi2c, I2C_FLAG_BUSY) != RESET) && \
 8002e50:	6988      	ldr	r0, [r1, #24]
 8002e52:	0400      	lsls	r0, r0, #16
 8002e54:	d503      	bpl.n	8002e5e <I2C_IsErrorOccurred+0x62>
 8002e56:	2b00      	cmp	r3, #0
 8002e58:	d101      	bne.n	8002e5e <I2C_IsErrorOccurred+0x62>
              (tmp1 != I2C_CR2_STOP) && \
 8002e5a:	2a20      	cmp	r2, #32
 8002e5c:	d10e      	bne.n	8002e7c <I2C_IsErrorOccurred+0x80>
          while (__HAL_I2C_GET_FLAG(hi2c, I2C_FLAG_STOPF) == RESET)
 8002e5e:	6823      	ldr	r3, [r4, #0]
 8002e60:	699b      	ldr	r3, [r3, #24]
 8002e62:	069b      	lsls	r3, r3, #26
 8002e64:	d4dd      	bmi.n	8002e22 <I2C_IsErrorOccurred+0x26>
            if ((HAL_GetTick() - tickstart) > I2C_TIMEOUT_STOPF)
 8002e66:	f7ff fe41 	bl	8002aec <HAL_GetTick>
 8002e6a:	1bc0      	subs	r0, r0, r7
 8002e6c:	2819      	cmp	r0, #25
 8002e6e:	d9f6      	bls.n	8002e5e <I2C_IsErrorOccurred+0x62>
              error_code |= HAL_I2C_ERROR_TIMEOUT;
 8002e70:	2320      	movs	r3, #32
 8002e72:	4642      	mov	r2, r8
 8002e74:	431a      	orrs	r2, r3
 8002e76:	4690      	mov	r8, r2
              status = HAL_ERROR;
 8002e78:	2601      	movs	r6, #1
              break;
 8002e7a:	e7d2      	b.n	8002e22 <I2C_IsErrorOccurred+0x26>
            hi2c->Instance->CR2 |= I2C_CR2_STOP;
 8002e7c:	684a      	ldr	r2, [r1, #4]
 8002e7e:	2380      	movs	r3, #128	@ 0x80
 8002e80:	01db      	lsls	r3, r3, #7
 8002e82:	4313      	orrs	r3, r2
 8002e84:	604b      	str	r3, [r1, #4]
            tickstart = HAL_GetTick();
 8002e86:	f7ff fe31 	bl	8002aec <HAL_GetTick>
 8002e8a:	0007      	movs	r7, r0
 8002e8c:	e7e7      	b.n	8002e5e <I2C_IsErrorOccurred+0x62>
    if (status == HAL_OK)
 8002e8e:	2e00      	cmp	r6, #0
 8002e90:	d101      	bne.n	8002e96 <I2C_IsErrorOccurred+0x9a>
      __HAL_I2C_CLEAR_FLAG(hi2c, I2C_FLAG_STOPF);
 8002e92:	2320      	movs	r3, #32
 8002e94:	61c3      	str	r3, [r0, #28]
    error_code |= HAL_I2C_ERROR_AF;
 8002e96:	2604      	movs	r6, #4
 8002e98:	4643      	mov	r3, r8
 8002e9a:	4333      	orrs	r3, r6
 8002e9c:	001e      	movs	r6, r3
    status = HAL_ERROR;
 8002e9e:	2501      	movs	r5, #1
  itflag = hi2c->Instance->ISR;
 8002ea0:	6822      	ldr	r2, [r4, #0]
 8002ea2:	6993      	ldr	r3, [r2, #24]
  if (HAL_IS_BIT_SET(itflag, I2C_FLAG_BERR))
 8002ea4:	05d9      	lsls	r1, r3, #23
 8002ea6:	d504      	bpl.n	8002eb2 <I2C_IsErrorOccurred+0xb6>
    error_code |= HAL_I2C_ERROR_BERR;
 8002ea8:	2101      	movs	r1, #1
 8002eaa:	430e      	orrs	r6, r1
    __HAL_I2C_CLEAR_FLAG(hi2c, I2C_FLAG_BERR);
 8002eac:	31ff      	adds	r1, #255	@ 0xff
 8002eae:	61d1      	str	r1, [r2, #28]
    status = HAL_ERROR;
 8002eb0:	2501      	movs	r5, #1
  if (HAL_IS_BIT_SET(itflag, I2C_FLAG_OVR))
 8002eb2:	055a      	lsls	r2, r3, #21
 8002eb4:	d506      	bpl.n	8002ec4 <I2C_IsErrorOccurred+0xc8>
    error_code |= HAL_I2C_ERROR_OVR;
 8002eb6:	2208      	movs	r2, #8
 8002eb8:	4316      	orrs	r6, r2
    __HAL_I2C_CLEAR_FLAG(hi2c, I2C_FLAG_OVR);
 8002eba:	6822      	ldr	r2, [r4, #0]
 8002ebc:	2180      	movs	r1, #128	@ 0x80
 8002ebe:	00c9      	lsls	r1, r1, #3
 8002ec0:	61d1      	str	r1, [r2, #28]
    status = HAL_ERROR;
 8002ec2:	2501      	movs	r5, #1
  if (HAL_IS_BIT_SET(itflag, I2C_FLAG_ARLO))
 8002ec4:	059b      	lsls	r3, r3, #22
 8002ec6:	d51f      	bpl.n	8002f08 <I2C_IsErrorOccurred+0x10c>
    error_code |= HAL_I2C_ERROR_ARLO;
 8002ec8:	2302      	movs	r3, #2
 8002eca:	431e      	orrs	r6, r3
    __HAL_I2C_CLEAR_FLAG(hi2c, I2C_FLAG_ARLO);
 8002ecc:	6823      	ldr	r3, [r4, #0]
 8002ece:	2280      	movs	r2, #128	@ 0x80
 8002ed0:	0092      	lsls	r2, r2, #2
 8002ed2:	61da      	str	r2, [r3, #28]
    status = HAL_ERROR;
 8002ed4:	2501      	movs	r5, #1
    I2C_Flush_TXDR(hi2c);
 8002ed6:	0020      	movs	r0, r4
 8002ed8:	f7ff ff66 	bl	8002da8 <I2C_Flush_TXDR>
    I2C_RESET_CR2(hi2c);
 8002edc:	6822      	ldr	r2, [r4, #0]
 8002ede:	6853      	ldr	r3, [r2, #4]
 8002ee0:	490b      	ldr	r1, [pc, #44]	@ (8002f10 <I2C_IsErrorOccurred+0x114>)
 8002ee2:	400b      	ands	r3, r1
 8002ee4:	6053      	str	r3, [r2, #4]
    hi2c->ErrorCode |= error_code;
 8002ee6:	6c63      	ldr	r3, [r4, #68]	@ 0x44
 8002ee8:	4333      	orrs	r3, r6
 8002eea:	6463      	str	r3, [r4, #68]	@ 0x44
    hi2c->State = HAL_I2C_STATE_READY;
 8002eec:	2341      	movs	r3, #65	@ 0x41
 8002eee:	2220      	movs	r2, #32
 8002ef0:	54e2      	strb	r2, [r4, r3]
    hi2c->Mode = HAL_I2C_MODE_NONE;
 8002ef2:	2300      	movs	r3, #0
 8002ef4:	3222      	adds	r2, #34	@ 0x22
 8002ef6:	54a3      	strb	r3, [r4, r2]
    __HAL_UNLOCK(hi2c);
 8002ef8:	3a02      	subs	r2, #2
 8002efa:	54a3      	strb	r3, [r4, r2]
}
 8002efc:	0028      	movs	r0, r5
 8002efe:	bc80      	pop	{r7}
 8002f00:	46b8      	mov	r8, r7
 8002f02:	bdf0      	pop	{r4, r5, r6, r7, pc}
  HAL_StatusTypeDef status = HAL_OK;
 8002f04:	2500      	movs	r5, #0
 8002f06:	e7cb      	b.n	8002ea0 <I2C_IsErrorOccurred+0xa4>
  if (status != HAL_OK)
 8002f08:	2d00      	cmp	r5, #0
 8002f0a:	d0f7      	beq.n	8002efc <I2C_IsErrorOccurred+0x100>
 8002f0c:	e7e3      	b.n	8002ed6 <I2C_IsErrorOccurred+0xda>
 8002f0e:	46c0      	nop			@ (mov r8, r8)
 8002f10:	fe00e800 	.word	0xfe00e800

08002f14 <I2C_WaitOnTXISFlagUntilTimeout>:
{
 8002f14:	b570      	push	{r4, r5, r6, lr}
 8002f16:	0004      	movs	r4, r0
 8002f18:	000d      	movs	r5, r1
 8002f1a:	0016      	movs	r6, r2
  while (__HAL_I2C_GET_FLAG(hi2c, I2C_FLAG_TXIS) == RESET)
 8002f1c:	6823      	ldr	r3, [r4, #0]
 8002f1e:	699b      	ldr	r3, [r3, #24]
 8002f20:	079b      	lsls	r3, r3, #30
 8002f22:	d420      	bmi.n	8002f66 <I2C_WaitOnTXISFlagUntilTimeout+0x52>
    if (I2C_IsErrorOccurred(hi2c, Timeout, Tickstart) != HAL_OK)
 8002f24:	0032      	movs	r2, r6
 8002f26:	0029      	movs	r1, r5
 8002f28:	0020      	movs	r0, r4
 8002f2a:	f7ff ff67 	bl	8002dfc <I2C_IsErrorOccurred>
 8002f2e:	2800      	cmp	r0, #0
 8002f30:	d11b      	bne.n	8002f6a <I2C_WaitOnTXISFlagUntilTimeout+0x56>
    if (Timeout != HAL_MAX_DELAY)
 8002f32:	1c6b      	adds	r3, r5, #1
 8002f34:	d0f2      	beq.n	8002f1c <I2C_WaitOnTXISFlagUntilTimeout+0x8>
      if (((HAL_GetTick() - Tickstart) > Timeout) || (Timeout == 0U))
 8002f36:	f7ff fdd9 	bl	8002aec <HAL_GetTick>
 8002f3a:	1b80      	subs	r0, r0, r6
 8002f3c:	42a8      	cmp	r0, r5
 8002f3e:	d801      	bhi.n	8002f44 <I2C_WaitOnTXISFlagUntilTimeout+0x30>
 8002f40:	2d00      	cmp	r5, #0
 8002f42:	d1eb      	bne.n	8002f1c <I2C_WaitOnTXISFlagUntilTimeout+0x8>
        if (__HAL_I2C_GET_FLAG(hi2c, I2C_FLAG_TXIS) == RESET)
 8002f44:	6823      	ldr	r3, [r4, #0]
 8002f46:	699b      	ldr	r3, [r3, #24]
 8002f48:	079b      	lsls	r3, r3, #30
 8002f4a:	d4e7      	bmi.n	8002f1c <I2C_WaitOnTXISFlagUntilTimeout+0x8>
          hi2c->ErrorCode |= HAL_I2C_ERROR_TIMEOUT;
 8002f4c:	6c63      	ldr	r3, [r4, #68]	@ 0x44
 8002f4e:	2220      	movs	r2, #32
 8002f50:	4313      	orrs	r3, r2
 8002f52:	6463      	str	r3, [r4, #68]	@ 0x44
          hi2c->State = HAL_I2C_STATE_READY;
 8002f54:	2341      	movs	r3, #65	@ 0x41
 8002f56:	54e2      	strb	r2, [r4, r3]
          hi2c->Mode = HAL_I2C_MODE_NONE;
 8002f58:	2300      	movs	r3, #0
 8002f5a:	3222      	adds	r2, #34	@ 0x22
 8002f5c:	54a3      	strb	r3, [r4, r2]
          __HAL_UNLOCK(hi2c);
 8002f5e:	3a02      	subs	r2, #2
 8002f60:	54a3      	strb	r3, [r4, r2]
          return HAL_ERROR;
 8002f62:	2001      	movs	r0, #1
 8002f64:	e000      	b.n	8002f68 <I2C_WaitOnTXISFlagUntilTimeout+0x54>
  return HAL_OK;
 8002f66:	2000      	movs	r0, #0
}
 8002f68:	bd70      	pop	{r4, r5, r6, pc}
      return HAL_ERROR;
 8002f6a:	2001      	movs	r0, #1
 8002f6c:	e7fc      	b.n	8002f68 <I2C_WaitOnTXISFlagUntilTimeout+0x54>

08002f6e <I2C_WaitOnFlagUntilTimeout>:
{
 8002f6e:	b5f0      	push	{r4, r5, r6, r7, lr}
 8002f70:	46d6      	mov	lr, sl
 8002f72:	464f      	mov	r7, r9
 8002f74:	b580      	push	{r7, lr}
 8002f76:	b083      	sub	sp, #12
 8002f78:	0007      	movs	r7, r0
 8002f7a:	000d      	movs	r5, r1
 8002f7c:	0016      	movs	r6, r2
 8002f7e:	4699      	mov	r9, r3
 8002f80:	9b0a      	ldr	r3, [sp, #40]	@ 0x28
 8002f82:	469a      	mov	sl, r3
  while (__HAL_I2C_GET_FLAG(hi2c, Flag) == Status)
 8002f84:	683b      	ldr	r3, [r7, #0]
 8002f86:	699c      	ldr	r4, [r3, #24]
 8002f88:	402c      	ands	r4, r5
 8002f8a:	1b64      	subs	r4, r4, r5
 8002f8c:	4263      	negs	r3, r4
 8002f8e:	415c      	adcs	r4, r3
 8002f90:	9601      	str	r6, [sp, #4]
 8002f92:	42b4      	cmp	r4, r6
 8002f94:	d128      	bne.n	8002fe8 <I2C_WaitOnFlagUntilTimeout+0x7a>
    if (I2C_IsErrorOccurred(hi2c, Timeout, Tickstart) != HAL_OK)
 8002f96:	4652      	mov	r2, sl
 8002f98:	4649      	mov	r1, r9
 8002f9a:	0038      	movs	r0, r7
 8002f9c:	f7ff ff2e 	bl	8002dfc <I2C_IsErrorOccurred>
 8002fa0:	2800      	cmp	r0, #0
 8002fa2:	d127      	bne.n	8002ff4 <I2C_WaitOnFlagUntilTimeout+0x86>
    if (Timeout != HAL_MAX_DELAY)
 8002fa4:	464b      	mov	r3, r9
 8002fa6:	3301      	adds	r3, #1
 8002fa8:	d0ec      	beq.n	8002f84 <I2C_WaitOnFlagUntilTimeout+0x16>
      if (((HAL_GetTick() - Tickstart) > Timeout) || (Timeout == 0U))
 8002faa:	f7ff fd9f 	bl	8002aec <HAL_GetTick>
 8002fae:	4653      	mov	r3, sl
 8002fb0:	1ac0      	subs	r0, r0, r3
 8002fb2:	4548      	cmp	r0, r9
 8002fb4:	d802      	bhi.n	8002fbc <I2C_WaitOnFlagUntilTimeout+0x4e>
 8002fb6:	464b      	mov	r3, r9
 8002fb8:	2b00      	cmp	r3, #0
 8002fba:	d1e3      	bne.n	8002f84 <I2C_WaitOnFlagUntilTimeout+0x16>
        if (__HAL_I2C_GET_FLAG(hi2c, Flag) == Status)
 8002fbc:	683b      	ldr	r3, [r7, #0]
 8002fbe:	699b      	ldr	r3, [r3, #24]
 8002fc0:	402b      	ands	r3, r5
 8002fc2:	1b5b      	subs	r3, r3, r5
 8002fc4:	425a      	negs	r2, r3
 8002fc6:	4153      	adcs	r3, r2
 8002fc8:	9a01      	ldr	r2, [sp, #4]
 8002fca:	4293      	cmp	r3, r2
 8002fcc:	d1da      	bne.n	8002f84 <I2C_WaitOnFlagUntilTimeout+0x16>
          hi2c->ErrorCode |= HAL_I2C_ERROR_TIMEOUT;
 8002fce:	6c7b      	ldr	r3, [r7, #68]	@ 0x44
 8002fd0:	2220      	movs	r2, #32
 8002fd2:	4313      	orrs	r3, r2
 8002fd4:	647b      	str	r3, [r7, #68]	@ 0x44
          hi2c->State = HAL_I2C_STATE_READY;
 8002fd6:	2341      	movs	r3, #65	@ 0x41
 8002fd8:	54fa      	strb	r2, [r7, r3]
          hi2c->Mode = HAL_I2C_MODE_NONE;
 8002fda:	2300      	movs	r3, #0
 8002fdc:	3222      	adds	r2, #34	@ 0x22
 8002fde:	54bb      	strb	r3, [r7, r2]
          __HAL_UNLOCK(hi2c);
 8002fe0:	3a02      	subs	r2, #2
 8002fe2:	54bb      	strb	r3, [r7, r2]
          return HAL_ERROR;
 8002fe4:	2001      	movs	r0, #1
 8002fe6:	e000      	b.n	8002fea <I2C_WaitOnFlagUntilTimeout+0x7c>
  return HAL_OK;
 8002fe8:	2000      	movs	r0, #0
}
 8002fea:	b003      	add	sp, #12
 8002fec:	bcc0      	pop	{r6, r7}
 8002fee:	46ba      	mov	sl, r7
 8002ff0:	46b1      	mov	r9, r6
 8002ff2:	bdf0      	pop	{r4, r5, r6, r7, pc}
      return HAL_ERROR;
 8002ff4:	2001      	movs	r0, #1
 8002ff6:	e7f8      	b.n	8002fea <I2C_WaitOnFlagUntilTimeout+0x7c>

08002ff8 <I2C_RequestMemoryWrite>:
{
 8002ff8:	b570      	push	{r4, r5, r6, lr}
 8002ffa:	b082      	sub	sp, #8
 8002ffc:	0004      	movs	r4, r0
 8002ffe:	0015      	movs	r5, r2
 8003000:	001e      	movs	r6, r3
  I2C_TransferConfig(hi2c, DevAddress, (uint8_t)MemAddSize, I2C_RELOAD_MODE, I2C_GENERATE_START_WRITE);
 8003002:	2380      	movs	r3, #128	@ 0x80
 8003004:	b2f2      	uxtb	r2, r6
 8003006:	4819      	ldr	r0, [pc, #100]	@ (800306c <I2C_RequestMemoryWrite+0x74>)
 8003008:	9000      	str	r0, [sp, #0]
 800300a:	045b      	lsls	r3, r3, #17
 800300c:	0020      	movs	r0, r4
 800300e:	f7ff fedb 	bl	8002dc8 <I2C_TransferConfig>
  if (I2C_WaitOnTXISFlagUntilTimeout(hi2c, Timeout, Tickstart) != HAL_OK)
 8003012:	9a07      	ldr	r2, [sp, #28]
 8003014:	9906      	ldr	r1, [sp, #24]
 8003016:	0020      	movs	r0, r4
 8003018:	f7ff ff7c 	bl	8002f14 <I2C_WaitOnTXISFlagUntilTimeout>
 800301c:	2800      	cmp	r0, #0
 800301e:	d11e      	bne.n	800305e <I2C_RequestMemoryWrite+0x66>
  if (MemAddSize == I2C_MEMADD_SIZE_8BIT)
 8003020:	2e01      	cmp	r6, #1
 8003022:	d10e      	bne.n	8003042 <I2C_RequestMemoryWrite+0x4a>
    hi2c->Instance->TXDR = I2C_MEM_ADD_LSB(MemAddress);
 8003024:	6823      	ldr	r3, [r4, #0]
 8003026:	b2ed      	uxtb	r5, r5
 8003028:	629d      	str	r5, [r3, #40]	@ 0x28
  if (I2C_WaitOnFlagUntilTimeout(hi2c, I2C_FLAG_TCR, RESET, Timeout, Tickstart) != HAL_OK)
 800302a:	9b07      	ldr	r3, [sp, #28]
 800302c:	9300      	str	r3, [sp, #0]
 800302e:	9b06      	ldr	r3, [sp, #24]
 8003030:	2200      	movs	r2, #0
 8003032:	2180      	movs	r1, #128	@ 0x80
 8003034:	0020      	movs	r0, r4
 8003036:	f7ff ff9a 	bl	8002f6e <I2C_WaitOnFlagUntilTimeout>
 800303a:	2800      	cmp	r0, #0
 800303c:	d113      	bne.n	8003066 <I2C_RequestMemoryWrite+0x6e>
}
 800303e:	b002      	add	sp, #8
 8003040:	bd70      	pop	{r4, r5, r6, pc}
    hi2c->Instance->TXDR = I2C_MEM_ADD_MSB(MemAddress);
 8003042:	6823      	ldr	r3, [r4, #0]
 8003044:	0a2a      	lsrs	r2, r5, #8
 8003046:	629a      	str	r2, [r3, #40]	@ 0x28
    if (I2C_WaitOnTXISFlagUntilTimeout(hi2c, Timeout, Tickstart) != HAL_OK)
 8003048:	9a07      	ldr	r2, [sp, #28]
 800304a:	9906      	ldr	r1, [sp, #24]
 800304c:	0020      	movs	r0, r4
 800304e:	f7ff ff61 	bl	8002f14 <I2C_WaitOnTXISFlagUntilTimeout>
 8003052:	2800      	cmp	r0, #0
 8003054:	d105      	bne.n	8003062 <I2C_RequestMemoryWrite+0x6a>
    hi2c->Instance->TXDR = I2C_MEM_ADD_LSB(MemAddress);
 8003056:	6823      	ldr	r3, [r4, #0]
 8003058:	b2ed      	uxtb	r5, r5
 800305a:	629d      	str	r5, [r3, #40]	@ 0x28
 800305c:	e7e5      	b.n	800302a <I2C_RequestMemoryWrite+0x32>
    return HAL_ERROR;
 800305e:	2001      	movs	r0, #1
 8003060:	e7ed      	b.n	800303e <I2C_RequestMemoryWrite+0x46>
      return HAL_ERROR;
 8003062:	2001      	movs	r0, #1
 8003064:	e7eb      	b.n	800303e <I2C_RequestMemoryWrite+0x46>
    return HAL_ERROR;
 8003066:	2001      	movs	r0, #1
 8003068:	e7e9      	b.n	800303e <I2C_RequestMemoryWrite+0x46>
 800306a:	46c0      	nop			@ (mov r8, r8)
 800306c:	80002000 	.word	0x80002000

08003070 <I2C_RequestMemoryRead>:
{
 8003070:	b570      	push	{r4, r5, r6, lr}
 8003072:	b082      	sub	sp, #8
 8003074:	0004      	movs	r4, r0
 8003076:	0015      	movs	r5, r2
 8003078:	001e      	movs	r6, r3
  I2C_TransferConfig(hi2c, DevAddress, (uint8_t)MemAddSize, I2C_SOFTEND_MODE, I2C_GENERATE_START_WRITE);
 800307a:	b2da      	uxtb	r2, r3
 800307c:	4b18      	ldr	r3, [pc, #96]	@ (80030e0 <I2C_RequestMemoryRead+0x70>)
 800307e:	9300      	str	r3, [sp, #0]
 8003080:	2300      	movs	r3, #0
 8003082:	f7ff fea1 	bl	8002dc8 <I2C_TransferConfig>
  if (I2C_WaitOnTXISFlagUntilTimeout(hi2c, Timeout, Tickstart) != HAL_OK)
 8003086:	9a07      	ldr	r2, [sp, #28]
 8003088:	9906      	ldr	r1, [sp, #24]
 800308a:	0020      	movs	r0, r4
 800308c:	f7ff ff42 	bl	8002f14 <I2C_WaitOnTXISFlagUntilTimeout>
 8003090:	2800      	cmp	r0, #0
 8003092:	d11e      	bne.n	80030d2 <I2C_RequestMemoryRead+0x62>
  if (MemAddSize == I2C_MEMADD_SIZE_8BIT)
 8003094:	2e01      	cmp	r6, #1
 8003096:	d10e      	bne.n	80030b6 <I2C_RequestMemoryRead+0x46>
    hi2c->Instance->TXDR = I2C_MEM_ADD_LSB(MemAddress);
 8003098:	6823      	ldr	r3, [r4, #0]
 800309a:	b2ed      	uxtb	r5, r5
 800309c:	629d      	str	r5, [r3, #40]	@ 0x28
  if (I2C_WaitOnFlagUntilTimeout(hi2c, I2C_FLAG_TC, RESET, Timeout, Tickstart) != HAL_OK)
 800309e:	9b07      	ldr	r3, [sp, #28]
 80030a0:	9300      	str	r3, [sp, #0]
 80030a2:	9b06      	ldr	r3, [sp, #24]
 80030a4:	2200      	movs	r2, #0
 80030a6:	2140      	movs	r1, #64	@ 0x40
 80030a8:	0020      	movs	r0, r4
 80030aa:	f7ff ff60 	bl	8002f6e <I2C_WaitOnFlagUntilTimeout>
 80030ae:	2800      	cmp	r0, #0
 80030b0:	d113      	bne.n	80030da <I2C_RequestMemoryRead+0x6a>
}
 80030b2:	b002      	add	sp, #8
 80030b4:	bd70      	pop	{r4, r5, r6, pc}
    hi2c->Instance->TXDR = I2C_MEM_ADD_MSB(MemAddress);
 80030b6:	6823      	ldr	r3, [r4, #0]
 80030b8:	0a2a      	lsrs	r2, r5, #8
 80030ba:	629a      	str	r2, [r3, #40]	@ 0x28
    if (I2C_WaitOnTXISFlagUntilTimeout(hi2c, Timeout, Tickstart) != HAL_OK)
 80030bc:	9a07      	ldr	r2, [sp, #28]
 80030be:	9906      	ldr	r1, [sp, #24]
 80030c0:	0020      	movs	r0, r4
 80030c2:	f7ff ff27 	bl	8002f14 <I2C_WaitOnTXISFlagUntilTimeout>
 80030c6:	2800      	cmp	r0, #0
 80030c8:	d105      	bne.n	80030d6 <I2C_RequestMemoryRead+0x66>
    hi2c->Instance->TXDR = I2C_MEM_ADD_LSB(MemAddress);
 80030ca:	6823      	ldr	r3, [r4, #0]
 80030cc:	b2ed      	uxtb	r5, r5
 80030ce:	629d      	str	r5, [r3, #40]	@ 0x28
 80030d0:	e7e5      	b.n	800309e <I2C_RequestMemoryRead+0x2e>
    return HAL_ERROR;
 80030d2:	2001      	movs	r0, #1
 80030d4:	e7ed      	b.n	80030b2 <I2C_RequestMemoryRead+0x42>
      return HAL_ERROR;
 80030d6:	2001      	movs	r0, #1
 80030d8:	e7eb      	b.n	80030b2 <I2C_RequestMemoryRead+0x42>
    return HAL_ERROR;
 80030da:	2001      	movs	r0, #1
 80030dc:	e7e9      	b.n	80030b2 <I2C_RequestMemoryRead+0x42>
 80030de:	46c0      	nop			@ (mov r8, r8)
 80030e0:	80002000 	.word	0x80002000

080030e4 <I2C_WaitOnSTOPFlagUntilTimeout>:
{
 80030e4:	b570      	push	{r4, r5, r6, lr}
 80030e6:	0004      	movs	r4, r0
 80030e8:	000d      	movs	r5, r1
 80030ea:	0016      	movs	r6, r2
  while (__HAL_I2C_GET_FLAG(hi2c, I2C_FLAG_STOPF) == RESET)
 80030ec:	e003      	b.n	80030f6 <I2C_WaitOnSTOPFlagUntilTimeout+0x12>
      if (__HAL_I2C_GET_FLAG(hi2c, I2C_FLAG_STOPF) == RESET)
 80030ee:	6823      	ldr	r3, [r4, #0]
 80030f0:	699b      	ldr	r3, [r3, #24]
 80030f2:	069b      	lsls	r3, r3, #26
 80030f4:	d512      	bpl.n	800311c <I2C_WaitOnSTOPFlagUntilTimeout+0x38>
  while (__HAL_I2C_GET_FLAG(hi2c, I2C_FLAG_STOPF) == RESET)
 80030f6:	6823      	ldr	r3, [r4, #0]
 80030f8:	699b      	ldr	r3, [r3, #24]
 80030fa:	069b      	lsls	r3, r3, #26
 80030fc:	d41b      	bmi.n	8003136 <I2C_WaitOnSTOPFlagUntilTimeout+0x52>
    if (I2C_IsErrorOccurred(hi2c, Timeout, Tickstart) != HAL_OK)
 80030fe:	0032      	movs	r2, r6
 8003100:	0029      	movs	r1, r5
 8003102:	0020      	movs	r0, r4
 8003104:	f7ff fe7a 	bl	8002dfc <I2C_IsErrorOccurred>
 8003108:	2800      	cmp	r0, #0
 800310a:	d116      	bne.n	800313a <I2C_WaitOnSTOPFlagUntilTimeout+0x56>
    if (((HAL_GetTick() - Tickstart) > Timeout) || (Timeout == 0U))
 800310c:	f7ff fcee 	bl	8002aec <HAL_GetTick>
 8003110:	1b80      	subs	r0, r0, r6
 8003112:	42a8      	cmp	r0, r5
 8003114:	d8eb      	bhi.n	80030ee <I2C_WaitOnSTOPFlagUntilTimeout+0xa>
 8003116:	2d00      	cmp	r5, #0
 8003118:	d1ed      	bne.n	80030f6 <I2C_WaitOnSTOPFlagUntilTimeout+0x12>
 800311a:	e7e8      	b.n	80030ee <I2C_WaitOnSTOPFlagUntilTimeout+0xa>
        hi2c->ErrorCode |= HAL_I2C_ERROR_TIMEOUT;
 800311c:	6c63      	ldr	r3, [r4, #68]	@ 0x44
 800311e:	2220      	movs	r2, #32
 8003120:	4313      	orrs	r3, r2
 8003122:	6463      	str	r3, [r4, #68]	@ 0x44
        hi2c->State = HAL_I2C_STATE_READY;
 8003124:	2341      	movs	r3, #65	@ 0x41
 8003126:	54e2      	strb	r2, [r4, r3]
        hi2c->Mode = HAL_I2C_MODE_NONE;
 8003128:	2300      	movs	r3, #0
 800312a:	3222      	adds	r2, #34	@ 0x22
 800312c:	54a3      	strb	r3, [r4, r2]
        __HAL_UNLOCK(hi2c);
 800312e:	3a02      	subs	r2, #2
 8003130:	54a3      	strb	r3, [r4, r2]
        return HAL_ERROR;
 8003132:	2001      	movs	r0, #1
 8003134:	e000      	b.n	8003138 <I2C_WaitOnSTOPFlagUntilTimeout+0x54>
  return HAL_OK;
 8003136:	2000      	movs	r0, #0
}
 8003138:	bd70      	pop	{r4, r5, r6, pc}
      return HAL_ERROR;
 800313a:	2001      	movs	r0, #1
 800313c:	e7fc      	b.n	8003138 <I2C_WaitOnSTOPFlagUntilTimeout+0x54>
	...

08003140 <HAL_I2C_Init>:
{
 8003140:	b510      	push	{r4, lr}
 8003142:	1e04      	subs	r4, r0, #0
  if (hi2c == NULL)
 8003144:	d060      	beq.n	8003208 <HAL_I2C_Init+0xc8>
  if (hi2c->State == HAL_I2C_STATE_RESET)
 8003146:	2341      	movs	r3, #65	@ 0x41
 8003148:	5cc3      	ldrb	r3, [r0, r3]
 800314a:	2b00      	cmp	r3, #0
 800314c:	d048      	beq.n	80031e0 <HAL_I2C_Init+0xa0>
  hi2c->State = HAL_I2C_STATE_BUSY;
 800314e:	2341      	movs	r3, #65	@ 0x41
 8003150:	2224      	movs	r2, #36	@ 0x24
 8003152:	54e2      	strb	r2, [r4, r3]
  __HAL_I2C_DISABLE(hi2c);
 8003154:	6822      	ldr	r2, [r4, #0]
 8003156:	6813      	ldr	r3, [r2, #0]
 8003158:	2101      	movs	r1, #1
 800315a:	438b      	bics	r3, r1
 800315c:	6013      	str	r3, [r2, #0]
  hi2c->Instance->TIMINGR = hi2c->Init.Timing & TIMING_CLEAR_MASK;
 800315e:	6863      	ldr	r3, [r4, #4]
 8003160:	6822      	ldr	r2, [r4, #0]
 8003162:	492a      	ldr	r1, [pc, #168]	@ (800320c <HAL_I2C_Init+0xcc>)
 8003164:	400b      	ands	r3, r1
 8003166:	6113      	str	r3, [r2, #16]
  hi2c->Instance->OAR1 &= ~I2C_OAR1_OA1EN;
 8003168:	6822      	ldr	r2, [r4, #0]
 800316a:	6893      	ldr	r3, [r2, #8]
 800316c:	4928      	ldr	r1, [pc, #160]	@ (8003210 <HAL_I2C_Init+0xd0>)
 800316e:	400b      	ands	r3, r1
 8003170:	6093      	str	r3, [r2, #8]
  if (hi2c->Init.AddressingMode == I2C_ADDRESSINGMODE_7BIT)
 8003172:	68e3      	ldr	r3, [r4, #12]
 8003174:	2b01      	cmp	r3, #1
 8003176:	d039      	beq.n	80031ec <HAL_I2C_Init+0xac>
    hi2c->Instance->OAR1 = (I2C_OAR1_OA1EN | I2C_OAR1_OA1MODE | hi2c->Init.OwnAddress1);
 8003178:	68a1      	ldr	r1, [r4, #8]
 800317a:	6822      	ldr	r2, [r4, #0]
 800317c:	2384      	movs	r3, #132	@ 0x84
 800317e:	021b      	lsls	r3, r3, #8
 8003180:	430b      	orrs	r3, r1
 8003182:	6093      	str	r3, [r2, #8]
  if (hi2c->Init.AddressingMode == I2C_ADDRESSINGMODE_10BIT)
 8003184:	68e3      	ldr	r3, [r4, #12]
 8003186:	2b02      	cmp	r3, #2
 8003188:	d037      	beq.n	80031fa <HAL_I2C_Init+0xba>
    CLEAR_BIT(hi2c->Instance->CR2, I2C_CR2_ADD10);
 800318a:	6822      	ldr	r2, [r4, #0]
 800318c:	6853      	ldr	r3, [r2, #4]
 800318e:	4921      	ldr	r1, [pc, #132]	@ (8003214 <HAL_I2C_Init+0xd4>)
 8003190:	400b      	ands	r3, r1
 8003192:	6053      	str	r3, [r2, #4]
  hi2c->Instance->CR2 |= (I2C_CR2_AUTOEND | I2C_CR2_NACK);
 8003194:	6822      	ldr	r2, [r4, #0]
 8003196:	6851      	ldr	r1, [r2, #4]
 8003198:	4b1f      	ldr	r3, [pc, #124]	@ (8003218 <HAL_I2C_Init+0xd8>)
 800319a:	430b      	orrs	r3, r1
 800319c:	6053      	str	r3, [r2, #4]
  hi2c->Instance->OAR2 &= ~I2C_DUALADDRESS_ENABLE;
 800319e:	6822      	ldr	r2, [r4, #0]
 80031a0:	68d3      	ldr	r3, [r2, #12]
 80031a2:	491b      	ldr	r1, [pc, #108]	@ (8003210 <HAL_I2C_Init+0xd0>)
 80031a4:	400b      	ands	r3, r1
 80031a6:	60d3      	str	r3, [r2, #12]
  hi2c->Instance->OAR2 = (hi2c->Init.DualAddressMode | hi2c->Init.OwnAddress2 | \
 80031a8:	6923      	ldr	r3, [r4, #16]
 80031aa:	6962      	ldr	r2, [r4, #20]
 80031ac:	4313      	orrs	r3, r2
                          (hi2c->Init.OwnAddress2Masks << 8));
 80031ae:	69a2      	ldr	r2, [r4, #24]
 80031b0:	0212      	lsls	r2, r2, #8
  hi2c->Instance->OAR2 = (hi2c->Init.DualAddressMode | hi2c->Init.OwnAddress2 | \
 80031b2:	6821      	ldr	r1, [r4, #0]
 80031b4:	4313      	orrs	r3, r2
 80031b6:	60cb      	str	r3, [r1, #12]
  hi2c->Instance->CR1 = (hi2c->Init.GeneralCallMode | hi2c->Init.NoStretchMode);
 80031b8:	69e3      	ldr	r3, [r4, #28]
 80031ba:	6a21      	ldr	r1, [r4, #32]
 80031bc:	6822      	ldr	r2, [r4, #0]
 80031be:	430b      	orrs	r3, r1
 80031c0:	6013      	str	r3, [r2, #0]
  __HAL_I2C_ENABLE(hi2c);
 80031c2:	6822      	ldr	r2, [r4, #0]
 80031c4:	6813      	ldr	r3, [r2, #0]
 80031c6:	2101      	movs	r1, #1
 80031c8:	430b      	orrs	r3, r1
 80031ca:	6013      	str	r3, [r2, #0]
  hi2c->ErrorCode = HAL_I2C_ERROR_NONE;
 80031cc:	2300      	movs	r3, #0
 80031ce:	6463      	str	r3, [r4, #68]	@ 0x44
  hi2c->State = HAL_I2C_STATE_READY;
 80031d0:	2241      	movs	r2, #65	@ 0x41
 80031d2:	311f      	adds	r1, #31
 80031d4:	54a1      	strb	r1, [r4, r2]
  hi2c->PreviousState = I2C_STATE_NONE;
 80031d6:	6323      	str	r3, [r4, #48]	@ 0x30
  hi2c->Mode = HAL_I2C_MODE_NONE;
 80031d8:	3201      	adds	r2, #1
 80031da:	54a3      	strb	r3, [r4, r2]
  return HAL_OK;
 80031dc:	2000      	movs	r0, #0
}
 80031de:	bd10      	pop	{r4, pc}
    hi2c->Lock = HAL_UNLOCKED;
 80031e0:	3340      	adds	r3, #64	@ 0x40
 80031e2:	2200      	movs	r2, #0
 80031e4:	54c2      	strb	r2, [r0, r3]
    HAL_I2C_MspInit(hi2c);
 80031e6:	f7ff f8e5 	bl	80023b4 <HAL_I2C_MspInit>
 80031ea:	e7b0      	b.n	800314e <HAL_I2C_Init+0xe>
    hi2c->Instance->OAR1 = (I2C_OAR1_OA1EN | hi2c->Init.OwnAddress1);
 80031ec:	68a1      	ldr	r1, [r4, #8]
 80031ee:	6822      	ldr	r2, [r4, #0]
 80031f0:	2380      	movs	r3, #128	@ 0x80
 80031f2:	021b      	lsls	r3, r3, #8
 80031f4:	430b      	orrs	r3, r1
 80031f6:	6093      	str	r3, [r2, #8]
 80031f8:	e7c4      	b.n	8003184 <HAL_I2C_Init+0x44>
    SET_BIT(hi2c->Instance->CR2, I2C_CR2_ADD10);
 80031fa:	6822      	ldr	r2, [r4, #0]
 80031fc:	6851      	ldr	r1, [r2, #4]
 80031fe:	2380      	movs	r3, #128	@ 0x80
 8003200:	011b      	lsls	r3, r3, #4
 8003202:	430b      	orrs	r3, r1
 8003204:	6053      	str	r3, [r2, #4]
 8003206:	e7c5      	b.n	8003194 <HAL_I2C_Init+0x54>
    return HAL_ERROR;
 8003208:	2001      	movs	r0, #1
 800320a:	e7e8      	b.n	80031de <HAL_I2C_Init+0x9e>
 800320c:	f0ffffff 	.word	0xf0ffffff
 8003210:	ffff7fff 	.word	0xffff7fff
 8003214:	fffff7ff 	.word	0xfffff7ff
 8003218:	02008000 	.word	0x02008000

0800321c <HAL_I2C_Mem_Write>:
{
 800321c:	b5f0      	push	{r4, r5, r6, r7, lr}
 800321e:	b087      	sub	sp, #28
 8003220:	0004      	movs	r4, r0
 8003222:	9103      	str	r1, [sp, #12]
 8003224:	9204      	str	r2, [sp, #16]
 8003226:	9305      	str	r3, [sp, #20]
 8003228:	ab0c      	add	r3, sp, #48	@ 0x30
 800322a:	cb20      	ldmia	r3!, {r5}
 800322c:	881f      	ldrh	r7, [r3, #0]
  if (hi2c->State == HAL_I2C_STATE_READY)
 800322e:	2341      	movs	r3, #65	@ 0x41
 8003230:	5cc3      	ldrb	r3, [r0, r3]
 8003232:	2b20      	cmp	r3, #32
 8003234:	d000      	beq.n	8003238 <HAL_I2C_Mem_Write+0x1c>
 8003236:	e0b3      	b.n	80033a0 <HAL_I2C_Mem_Write+0x184>
    if ((pData == NULL) || (Size == 0U))
 8003238:	2d00      	cmp	r5, #0
 800323a:	d018      	beq.n	800326e <HAL_I2C_Mem_Write+0x52>
 800323c:	2f00      	cmp	r7, #0
 800323e:	d016      	beq.n	800326e <HAL_I2C_Mem_Write+0x52>
    __HAL_LOCK(hi2c);
 8003240:	2340      	movs	r3, #64	@ 0x40
 8003242:	5cc3      	ldrb	r3, [r0, r3]
 8003244:	2b01      	cmp	r3, #1
 8003246:	d100      	bne.n	800324a <HAL_I2C_Mem_Write+0x2e>
 8003248:	e0ad      	b.n	80033a6 <HAL_I2C_Mem_Write+0x18a>
 800324a:	2340      	movs	r3, #64	@ 0x40
 800324c:	2201      	movs	r2, #1
 800324e:	54c2      	strb	r2, [r0, r3]
    tickstart = HAL_GetTick();
 8003250:	f7ff fc4c 	bl	8002aec <HAL_GetTick>
 8003254:	0006      	movs	r6, r0
    if (I2C_WaitOnFlagUntilTimeout(hi2c, I2C_FLAG_BUSY, SET, I2C_TIMEOUT_BUSY, tickstart) != HAL_OK)
 8003256:	2180      	movs	r1, #128	@ 0x80
 8003258:	9000      	str	r0, [sp, #0]
 800325a:	2319      	movs	r3, #25
 800325c:	2201      	movs	r2, #1
 800325e:	0209      	lsls	r1, r1, #8
 8003260:	0020      	movs	r0, r4
 8003262:	f7ff fe84 	bl	8002f6e <I2C_WaitOnFlagUntilTimeout>
 8003266:	2800      	cmp	r0, #0
 8003268:	d006      	beq.n	8003278 <HAL_I2C_Mem_Write+0x5c>
      return HAL_ERROR;
 800326a:	2001      	movs	r0, #1
 800326c:	e099      	b.n	80033a2 <HAL_I2C_Mem_Write+0x186>
      hi2c->ErrorCode = HAL_I2C_ERROR_INVALID_PARAM;
 800326e:	2380      	movs	r3, #128	@ 0x80
 8003270:	009b      	lsls	r3, r3, #2
 8003272:	6463      	str	r3, [r4, #68]	@ 0x44
      return  HAL_ERROR;
 8003274:	2001      	movs	r0, #1
 8003276:	e094      	b.n	80033a2 <HAL_I2C_Mem_Write+0x186>
    hi2c->State     = HAL_I2C_STATE_BUSY_TX;
 8003278:	2341      	movs	r3, #65	@ 0x41
 800327a:	2221      	movs	r2, #33	@ 0x21
 800327c:	54e2      	strb	r2, [r4, r3]
    hi2c->Mode      = HAL_I2C_MODE_MEM;
 800327e:	3301      	adds	r3, #1
 8003280:	321f      	adds	r2, #31
 8003282:	54e2      	strb	r2, [r4, r3]
    hi2c->ErrorCode = HAL_I2C_ERROR_NONE;
 8003284:	2300      	movs	r3, #0
 8003286:	6463      	str	r3, [r4, #68]	@ 0x44
    hi2c->pBuffPtr  = pData;
 8003288:	6265      	str	r5, [r4, #36]	@ 0x24
    hi2c->XferCount = Size;
 800328a:	8567      	strh	r7, [r4, #42]	@ 0x2a
    hi2c->XferISR   = NULL;
 800328c:	6363      	str	r3, [r4, #52]	@ 0x34
    if (I2C_RequestMemoryWrite(hi2c, DevAddress, MemAddress, MemAddSize, Timeout, tickstart) != HAL_OK)
 800328e:	9601      	str	r6, [sp, #4]
 8003290:	9b0e      	ldr	r3, [sp, #56]	@ 0x38
 8003292:	9300      	str	r3, [sp, #0]
 8003294:	9b05      	ldr	r3, [sp, #20]
 8003296:	9a04      	ldr	r2, [sp, #16]
 8003298:	9903      	ldr	r1, [sp, #12]
 800329a:	0020      	movs	r0, r4
 800329c:	f7ff feac 	bl	8002ff8 <I2C_RequestMemoryWrite>
 80032a0:	2800      	cmp	r0, #0
 80032a2:	d10f      	bne.n	80032c4 <HAL_I2C_Mem_Write+0xa8>
    if (hi2c->XferCount > MAX_NBYTE_SIZE)
 80032a4:	8d63      	ldrh	r3, [r4, #42]	@ 0x2a
 80032a6:	b29b      	uxth	r3, r3
 80032a8:	2bff      	cmp	r3, #255	@ 0xff
 80032aa:	d910      	bls.n	80032ce <HAL_I2C_Mem_Write+0xb2>
      hi2c->XferSize = MAX_NBYTE_SIZE;
 80032ac:	23ff      	movs	r3, #255	@ 0xff
 80032ae:	8523      	strh	r3, [r4, #40]	@ 0x28
      I2C_TransferConfig(hi2c, DevAddress, (uint8_t)hi2c->XferSize, I2C_RELOAD_MODE, I2C_NO_STARTSTOP);
 80032b0:	3b7f      	subs	r3, #127	@ 0x7f
 80032b2:	2200      	movs	r2, #0
 80032b4:	9200      	str	r2, [sp, #0]
 80032b6:	045b      	lsls	r3, r3, #17
 80032b8:	32ff      	adds	r2, #255	@ 0xff
 80032ba:	9903      	ldr	r1, [sp, #12]
 80032bc:	0020      	movs	r0, r4
 80032be:	f7ff fd83 	bl	8002dc8 <I2C_TransferConfig>
 80032c2:	e021      	b.n	8003308 <HAL_I2C_Mem_Write+0xec>
      __HAL_UNLOCK(hi2c);
 80032c4:	2340      	movs	r3, #64	@ 0x40
 80032c6:	2200      	movs	r2, #0
 80032c8:	54e2      	strb	r2, [r4, r3]
      return HAL_ERROR;
 80032ca:	2001      	movs	r0, #1
 80032cc:	e069      	b.n	80033a2 <HAL_I2C_Mem_Write+0x186>
      hi2c->XferSize = hi2c->XferCount;
 80032ce:	8d62      	ldrh	r2, [r4, #42]	@ 0x2a
 80032d0:	b292      	uxth	r2, r2
 80032d2:	8522      	strh	r2, [r4, #40]	@ 0x28
      I2C_TransferConfig(hi2c, DevAddress, (uint8_t)hi2c->XferSize, I2C_AUTOEND_MODE, I2C_NO_STARTSTOP);
 80032d4:	2380      	movs	r3, #128	@ 0x80
 80032d6:	b2d2      	uxtb	r2, r2
 80032d8:	2100      	movs	r1, #0
 80032da:	9100      	str	r1, [sp, #0]
 80032dc:	049b      	lsls	r3, r3, #18
 80032de:	9903      	ldr	r1, [sp, #12]
 80032e0:	0020      	movs	r0, r4
 80032e2:	f7ff fd71 	bl	8002dc8 <I2C_TransferConfig>
 80032e6:	e00f      	b.n	8003308 <HAL_I2C_Mem_Write+0xec>
          hi2c->XferSize = hi2c->XferCount;
 80032e8:	8d62      	ldrh	r2, [r4, #42]	@ 0x2a
 80032ea:	b292      	uxth	r2, r2
 80032ec:	8522      	strh	r2, [r4, #40]	@ 0x28
          I2C_TransferConfig(hi2c, DevAddress, (uint8_t)hi2c->XferSize, I2C_AUTOEND_MODE,
 80032ee:	2380      	movs	r3, #128	@ 0x80
 80032f0:	b2d2      	uxtb	r2, r2
 80032f2:	2100      	movs	r1, #0
 80032f4:	9100      	str	r1, [sp, #0]
 80032f6:	049b      	lsls	r3, r3, #18
 80032f8:	9903      	ldr	r1, [sp, #12]
 80032fa:	0020      	movs	r0, r4
 80032fc:	f7ff fd64 	bl	8002dc8 <I2C_TransferConfig>
    } while (hi2c->XferCount > 0U);
 8003300:	8d63      	ldrh	r3, [r4, #42]	@ 0x2a
 8003302:	b29b      	uxth	r3, r3
 8003304:	2b00      	cmp	r3, #0
 8003306:	d034      	beq.n	8003372 <HAL_I2C_Mem_Write+0x156>
      if (I2C_WaitOnTXISFlagUntilTimeout(hi2c, Timeout, tickstart) != HAL_OK)
 8003308:	0032      	movs	r2, r6
 800330a:	990e      	ldr	r1, [sp, #56]	@ 0x38
 800330c:	0020      	movs	r0, r4
 800330e:	f7ff fe01 	bl	8002f14 <I2C_WaitOnTXISFlagUntilTimeout>
 8003312:	2800      	cmp	r0, #0
 8003314:	d149      	bne.n	80033aa <HAL_I2C_Mem_Write+0x18e>
      hi2c->Instance->TXDR = *hi2c->pBuffPtr;
 8003316:	6a62      	ldr	r2, [r4, #36]	@ 0x24
 8003318:	6823      	ldr	r3, [r4, #0]
 800331a:	7812      	ldrb	r2, [r2, #0]
 800331c:	629a      	str	r2, [r3, #40]	@ 0x28
      hi2c->pBuffPtr++;
 800331e:	6a63      	ldr	r3, [r4, #36]	@ 0x24
 8003320:	3301      	adds	r3, #1
 8003322:	6263      	str	r3, [r4, #36]	@ 0x24
      hi2c->XferCount--;
 8003324:	8d63      	ldrh	r3, [r4, #42]	@ 0x2a
 8003326:	3b01      	subs	r3, #1
 8003328:	b29b      	uxth	r3, r3
 800332a:	8563      	strh	r3, [r4, #42]	@ 0x2a
      hi2c->XferSize--;
 800332c:	8d23      	ldrh	r3, [r4, #40]	@ 0x28
 800332e:	3b01      	subs	r3, #1
 8003330:	b29b      	uxth	r3, r3
 8003332:	8523      	strh	r3, [r4, #40]	@ 0x28
      if ((hi2c->XferCount != 0U) && (hi2c->XferSize == 0U))
 8003334:	8d62      	ldrh	r2, [r4, #42]	@ 0x2a
 8003336:	b292      	uxth	r2, r2
 8003338:	2a00      	cmp	r2, #0
 800333a:	d0e1      	beq.n	8003300 <HAL_I2C_Mem_Write+0xe4>
 800333c:	2b00      	cmp	r3, #0
 800333e:	d1df      	bne.n	8003300 <HAL_I2C_Mem_Write+0xe4>
        if (I2C_WaitOnFlagUntilTimeout(hi2c, I2C_FLAG_TCR, RESET, Timeout, tickstart) != HAL_OK)
 8003340:	9600      	str	r6, [sp, #0]
 8003342:	9b0e      	ldr	r3, [sp, #56]	@ 0x38
 8003344:	2200      	movs	r2, #0
 8003346:	2180      	movs	r1, #128	@ 0x80
 8003348:	0020      	movs	r0, r4
 800334a:	f7ff fe10 	bl	8002f6e <I2C_WaitOnFlagUntilTimeout>
 800334e:	2800      	cmp	r0, #0
 8003350:	d12d      	bne.n	80033ae <HAL_I2C_Mem_Write+0x192>
        if (hi2c->XferCount > MAX_NBYTE_SIZE)
 8003352:	8d63      	ldrh	r3, [r4, #42]	@ 0x2a
 8003354:	b29b      	uxth	r3, r3
 8003356:	2bff      	cmp	r3, #255	@ 0xff
 8003358:	d9c6      	bls.n	80032e8 <HAL_I2C_Mem_Write+0xcc>
          hi2c->XferSize = MAX_NBYTE_SIZE;
 800335a:	23ff      	movs	r3, #255	@ 0xff
 800335c:	8523      	strh	r3, [r4, #40]	@ 0x28
          I2C_TransferConfig(hi2c, DevAddress, (uint8_t)hi2c->XferSize, I2C_RELOAD_MODE,
 800335e:	3b7f      	subs	r3, #127	@ 0x7f
 8003360:	2200      	movs	r2, #0
 8003362:	9200      	str	r2, [sp, #0]
 8003364:	045b      	lsls	r3, r3, #17
 8003366:	32ff      	adds	r2, #255	@ 0xff
 8003368:	9903      	ldr	r1, [sp, #12]
 800336a:	0020      	movs	r0, r4
 800336c:	f7ff fd2c 	bl	8002dc8 <I2C_TransferConfig>
 8003370:	e7c6      	b.n	8003300 <HAL_I2C_Mem_Write+0xe4>
    if (I2C_WaitOnSTOPFlagUntilTimeout(hi2c, Timeout, tickstart) != HAL_OK)
 8003372:	0032      	movs	r2, r6
 8003374:	990e      	ldr	r1, [sp, #56]	@ 0x38
 8003376:	0020      	movs	r0, r4
 8003378:	f7ff feb4 	bl	80030e4 <I2C_WaitOnSTOPFlagUntilTimeout>
 800337c:	2800      	cmp	r0, #0
 800337e:	d118      	bne.n	80033b2 <HAL_I2C_Mem_Write+0x196>
    __HAL_I2C_CLEAR_FLAG(hi2c, I2C_FLAG_STOPF);
 8003380:	6823      	ldr	r3, [r4, #0]
 8003382:	2220      	movs	r2, #32
 8003384:	61da      	str	r2, [r3, #28]
    I2C_RESET_CR2(hi2c);
 8003386:	6821      	ldr	r1, [r4, #0]
 8003388:	684b      	ldr	r3, [r1, #4]
 800338a:	4d0b      	ldr	r5, [pc, #44]	@ (80033b8 <HAL_I2C_Mem_Write+0x19c>)
 800338c:	402b      	ands	r3, r5
 800338e:	604b      	str	r3, [r1, #4]
    hi2c->State = HAL_I2C_STATE_READY;
 8003390:	2341      	movs	r3, #65	@ 0x41
 8003392:	54e2      	strb	r2, [r4, r3]
    hi2c->Mode  = HAL_I2C_MODE_NONE;
 8003394:	2300      	movs	r3, #0
 8003396:	3222      	adds	r2, #34	@ 0x22
 8003398:	54a3      	strb	r3, [r4, r2]
    __HAL_UNLOCK(hi2c);
 800339a:	3a02      	subs	r2, #2
 800339c:	54a3      	strb	r3, [r4, r2]
    return HAL_OK;
 800339e:	e000      	b.n	80033a2 <HAL_I2C_Mem_Write+0x186>
    return HAL_BUSY;
 80033a0:	2002      	movs	r0, #2
}
 80033a2:	b007      	add	sp, #28
 80033a4:	bdf0      	pop	{r4, r5, r6, r7, pc}
    __HAL_LOCK(hi2c);
 80033a6:	2002      	movs	r0, #2
 80033a8:	e7fb      	b.n	80033a2 <HAL_I2C_Mem_Write+0x186>
        return HAL_ERROR;
 80033aa:	2001      	movs	r0, #1
 80033ac:	e7f9      	b.n	80033a2 <HAL_I2C_Mem_Write+0x186>
          return HAL_ERROR;
 80033ae:	2001      	movs	r0, #1
 80033b0:	e7f7      	b.n	80033a2 <HAL_I2C_Mem_Write+0x186>
      return HAL_ERROR;
 80033b2:	2001      	movs	r0, #1
 80033b4:	e7f5      	b.n	80033a2 <HAL_I2C_Mem_Write+0x186>
 80033b6:	46c0      	nop			@ (mov r8, r8)
 80033b8:	fe00e800 	.word	0xfe00e800

080033bc <HAL_I2C_Mem_Read>:
{
 80033bc:	b5f0      	push	{r4, r5, r6, r7, lr}
 80033be:	b087      	sub	sp, #28
 80033c0:	0004      	movs	r4, r0
 80033c2:	9103      	str	r1, [sp, #12]
 80033c4:	9204      	str	r2, [sp, #16]
 80033c6:	9305      	str	r3, [sp, #20]
 80033c8:	ab0c      	add	r3, sp, #48	@ 0x30
 80033ca:	cb20      	ldmia	r3!, {r5}
 80033cc:	881f      	ldrh	r7, [r3, #0]
  if (hi2c->State == HAL_I2C_STATE_READY)
 80033ce:	2341      	movs	r3, #65	@ 0x41
 80033d0:	5cc3      	ldrb	r3, [r0, r3]
 80033d2:	2b20      	cmp	r3, #32
 80033d4:	d000      	beq.n	80033d8 <HAL_I2C_Mem_Read+0x1c>
 80033d6:	e0b5      	b.n	8003544 <HAL_I2C_Mem_Read+0x188>
    if ((pData == NULL) || (Size == 0U))
 80033d8:	2d00      	cmp	r5, #0
 80033da:	d018      	beq.n	800340e <HAL_I2C_Mem_Read+0x52>
 80033dc:	2f00      	cmp	r7, #0
 80033de:	d016      	beq.n	800340e <HAL_I2C_Mem_Read+0x52>
    __HAL_LOCK(hi2c);
 80033e0:	2340      	movs	r3, #64	@ 0x40
 80033e2:	5cc3      	ldrb	r3, [r0, r3]
 80033e4:	2b01      	cmp	r3, #1
 80033e6:	d100      	bne.n	80033ea <HAL_I2C_Mem_Read+0x2e>
 80033e8:	e0af      	b.n	800354a <HAL_I2C_Mem_Read+0x18e>
 80033ea:	2340      	movs	r3, #64	@ 0x40
 80033ec:	2201      	movs	r2, #1
 80033ee:	54c2      	strb	r2, [r0, r3]
    tickstart = HAL_GetTick();
 80033f0:	f7ff fb7c 	bl	8002aec <HAL_GetTick>
 80033f4:	0006      	movs	r6, r0
    if (I2C_WaitOnFlagUntilTimeout(hi2c, I2C_FLAG_BUSY, SET, I2C_TIMEOUT_BUSY, tickstart) != HAL_OK)
 80033f6:	2180      	movs	r1, #128	@ 0x80
 80033f8:	9000      	str	r0, [sp, #0]
 80033fa:	2319      	movs	r3, #25
 80033fc:	2201      	movs	r2, #1
 80033fe:	0209      	lsls	r1, r1, #8
 8003400:	0020      	movs	r0, r4
 8003402:	f7ff fdb4 	bl	8002f6e <I2C_WaitOnFlagUntilTimeout>
 8003406:	2800      	cmp	r0, #0
 8003408:	d006      	beq.n	8003418 <HAL_I2C_Mem_Read+0x5c>
      return HAL_ERROR;
 800340a:	2001      	movs	r0, #1
 800340c:	e09b      	b.n	8003546 <HAL_I2C_Mem_Read+0x18a>
      hi2c->ErrorCode = HAL_I2C_ERROR_INVALID_PARAM;
 800340e:	2380      	movs	r3, #128	@ 0x80
 8003410:	009b      	lsls	r3, r3, #2
 8003412:	6463      	str	r3, [r4, #68]	@ 0x44
      return  HAL_ERROR;
 8003414:	2001      	movs	r0, #1
 8003416:	e096      	b.n	8003546 <HAL_I2C_Mem_Read+0x18a>
    hi2c->State     = HAL_I2C_STATE_BUSY_RX;
 8003418:	2341      	movs	r3, #65	@ 0x41
 800341a:	2222      	movs	r2, #34	@ 0x22
 800341c:	54e2      	strb	r2, [r4, r3]
    hi2c->Mode      = HAL_I2C_MODE_MEM;
 800341e:	3301      	adds	r3, #1
 8003420:	321e      	adds	r2, #30
 8003422:	54e2      	strb	r2, [r4, r3]
    hi2c->ErrorCode = HAL_I2C_ERROR_NONE;
 8003424:	2300      	movs	r3, #0
 8003426:	6463      	str	r3, [r4, #68]	@ 0x44
    hi2c->pBuffPtr  = pData;
 8003428:	6265      	str	r5, [r4, #36]	@ 0x24
    hi2c->XferCount = Size;
 800342a:	8567      	strh	r7, [r4, #42]	@ 0x2a
    hi2c->XferISR   = NULL;
 800342c:	6363      	str	r3, [r4, #52]	@ 0x34
    if (I2C_RequestMemoryRead(hi2c, DevAddress, MemAddress, MemAddSize, Timeout, tickstart) != HAL_OK)
 800342e:	9601      	str	r6, [sp, #4]
 8003430:	9b0e      	ldr	r3, [sp, #56]	@ 0x38
 8003432:	9300      	str	r3, [sp, #0]
 8003434:	9b05      	ldr	r3, [sp, #20]
 8003436:	9a04      	ldr	r2, [sp, #16]
 8003438:	9903      	ldr	r1, [sp, #12]
 800343a:	0020      	movs	r0, r4
 800343c:	f7ff fe18 	bl	8003070 <I2C_RequestMemoryRead>
 8003440:	2800      	cmp	r0, #0
 8003442:	d10f      	bne.n	8003464 <HAL_I2C_Mem_Read+0xa8>
    if (hi2c->XferCount > MAX_NBYTE_SIZE)
 8003444:	8d63      	ldrh	r3, [r4, #42]	@ 0x2a
 8003446:	b29b      	uxth	r3, r3
 8003448:	2bff      	cmp	r3, #255	@ 0xff
 800344a:	d910      	bls.n	800346e <HAL_I2C_Mem_Read+0xb2>
      hi2c->XferSize = MAX_NBYTE_SIZE;
 800344c:	23ff      	movs	r3, #255	@ 0xff
 800344e:	8523      	strh	r3, [r4, #40]	@ 0x28
      I2C_TransferConfig(hi2c, DevAddress, (uint8_t)hi2c->XferSize, I2C_RELOAD_MODE,
 8003450:	3b7f      	subs	r3, #127	@ 0x7f
 8003452:	4a42      	ldr	r2, [pc, #264]	@ (800355c <HAL_I2C_Mem_Read+0x1a0>)
 8003454:	9200      	str	r2, [sp, #0]
 8003456:	045b      	lsls	r3, r3, #17
 8003458:	22ff      	movs	r2, #255	@ 0xff
 800345a:	9903      	ldr	r1, [sp, #12]
 800345c:	0020      	movs	r0, r4
 800345e:	f7ff fcb3 	bl	8002dc8 <I2C_TransferConfig>
 8003462:	e021      	b.n	80034a8 <HAL_I2C_Mem_Read+0xec>
      __HAL_UNLOCK(hi2c);
 8003464:	2340      	movs	r3, #64	@ 0x40
 8003466:	2200      	movs	r2, #0
 8003468:	54e2      	strb	r2, [r4, r3]
      return HAL_ERROR;
 800346a:	2001      	movs	r0, #1
 800346c:	e06b      	b.n	8003546 <HAL_I2C_Mem_Read+0x18a>
      hi2c->XferSize = hi2c->XferCount;
 800346e:	8d62      	ldrh	r2, [r4, #42]	@ 0x2a
 8003470:	b292      	uxth	r2, r2
 8003472:	8522      	strh	r2, [r4, #40]	@ 0x28
      I2C_TransferConfig(hi2c, DevAddress, (uint8_t)hi2c->XferSize, I2C_AUTOEND_MODE,
 8003474:	2380      	movs	r3, #128	@ 0x80
 8003476:	b2d2      	uxtb	r2, r2
 8003478:	4938      	ldr	r1, [pc, #224]	@ (800355c <HAL_I2C_Mem_Read+0x1a0>)
 800347a:	9100      	str	r1, [sp, #0]
 800347c:	049b      	lsls	r3, r3, #18
 800347e:	9903      	ldr	r1, [sp, #12]
 8003480:	0020      	movs	r0, r4
 8003482:	f7ff fca1 	bl	8002dc8 <I2C_TransferConfig>
 8003486:	e00f      	b.n	80034a8 <HAL_I2C_Mem_Read+0xec>
          hi2c->XferSize = hi2c->XferCount;
 8003488:	8d62      	ldrh	r2, [r4, #42]	@ 0x2a
 800348a:	b292      	uxth	r2, r2
 800348c:	8522      	strh	r2, [r4, #40]	@ 0x28
          I2C_TransferConfig(hi2c, DevAddress, (uint8_t)hi2c->XferSize, I2C_AUTOEND_MODE,
 800348e:	2380      	movs	r3, #128	@ 0x80
 8003490:	b2d2      	uxtb	r2, r2
 8003492:	2100      	movs	r1, #0
 8003494:	9100      	str	r1, [sp, #0]
 8003496:	049b      	lsls	r3, r3, #18
 8003498:	9903      	ldr	r1, [sp, #12]
 800349a:	0020      	movs	r0, r4
 800349c:	f7ff fc94 	bl	8002dc8 <I2C_TransferConfig>
    } while (hi2c->XferCount > 0U);
 80034a0:	8d63      	ldrh	r3, [r4, #42]	@ 0x2a
 80034a2:	b29b      	uxth	r3, r3
 80034a4:	2b00      	cmp	r3, #0
 80034a6:	d036      	beq.n	8003516 <HAL_I2C_Mem_Read+0x15a>
      if (I2C_WaitOnFlagUntilTimeout(hi2c, I2C_FLAG_RXNE, RESET, Timeout, tickstart) != HAL_OK)
 80034a8:	9600      	str	r6, [sp, #0]
 80034aa:	9b0e      	ldr	r3, [sp, #56]	@ 0x38
 80034ac:	2200      	movs	r2, #0
 80034ae:	2104      	movs	r1, #4
 80034b0:	0020      	movs	r0, r4
 80034b2:	f7ff fd5c 	bl	8002f6e <I2C_WaitOnFlagUntilTimeout>
 80034b6:	2800      	cmp	r0, #0
 80034b8:	d149      	bne.n	800354e <HAL_I2C_Mem_Read+0x192>
      *hi2c->pBuffPtr = (uint8_t)hi2c->Instance->RXDR;
 80034ba:	6823      	ldr	r3, [r4, #0]
 80034bc:	6a5a      	ldr	r2, [r3, #36]	@ 0x24
 80034be:	6a63      	ldr	r3, [r4, #36]	@ 0x24
 80034c0:	701a      	strb	r2, [r3, #0]
      hi2c->pBuffPtr++;
 80034c2:	6a63      	ldr	r3, [r4, #36]	@ 0x24
 80034c4:	3301      	adds	r3, #1
 80034c6:	6263      	str	r3, [r4, #36]	@ 0x24
      hi2c->XferSize--;
 80034c8:	8d23      	ldrh	r3, [r4, #40]	@ 0x28
 80034ca:	3b01      	subs	r3, #1
 80034cc:	b29b      	uxth	r3, r3
 80034ce:	8523      	strh	r3, [r4, #40]	@ 0x28
      hi2c->XferCount--;
 80034d0:	8d62      	ldrh	r2, [r4, #42]	@ 0x2a
 80034d2:	3a01      	subs	r2, #1
 80034d4:	b292      	uxth	r2, r2
 80034d6:	8562      	strh	r2, [r4, #42]	@ 0x2a
      if ((hi2c->XferCount != 0U) && (hi2c->XferSize == 0U))
 80034d8:	8d62      	ldrh	r2, [r4, #42]	@ 0x2a
 80034da:	b292      	uxth	r2, r2
 80034dc:	2a00      	cmp	r2, #0
 80034de:	d0df      	beq.n	80034a0 <HAL_I2C_Mem_Read+0xe4>
 80034e0:	2b00      	cmp	r3, #0
 80034e2:	d1dd      	bne.n	80034a0 <HAL_I2C_Mem_Read+0xe4>
        if (I2C_WaitOnFlagUntilTimeout(hi2c, I2C_FLAG_TCR, RESET, Timeout, tickstart) != HAL_OK)
 80034e4:	9600      	str	r6, [sp, #0]
 80034e6:	9b0e      	ldr	r3, [sp, #56]	@ 0x38
 80034e8:	2200      	movs	r2, #0
 80034ea:	2180      	movs	r1, #128	@ 0x80
 80034ec:	0020      	movs	r0, r4
 80034ee:	f7ff fd3e 	bl	8002f6e <I2C_WaitOnFlagUntilTimeout>
 80034f2:	2800      	cmp	r0, #0
 80034f4:	d12d      	bne.n	8003552 <HAL_I2C_Mem_Read+0x196>
        if (hi2c->XferCount > MAX_NBYTE_SIZE)
 80034f6:	8d63      	ldrh	r3, [r4, #42]	@ 0x2a
 80034f8:	b29b      	uxth	r3, r3
 80034fa:	2bff      	cmp	r3, #255	@ 0xff
 80034fc:	d9c4      	bls.n	8003488 <HAL_I2C_Mem_Read+0xcc>
          hi2c->XferSize = MAX_NBYTE_SIZE;
 80034fe:	23ff      	movs	r3, #255	@ 0xff
 8003500:	8523      	strh	r3, [r4, #40]	@ 0x28
          I2C_TransferConfig(hi2c, DevAddress, (uint8_t) hi2c->XferSize, I2C_RELOAD_MODE,
 8003502:	3b7f      	subs	r3, #127	@ 0x7f
 8003504:	2200      	movs	r2, #0
 8003506:	9200      	str	r2, [sp, #0]
 8003508:	045b      	lsls	r3, r3, #17
 800350a:	32ff      	adds	r2, #255	@ 0xff
 800350c:	9903      	ldr	r1, [sp, #12]
 800350e:	0020      	movs	r0, r4
 8003510:	f7ff fc5a 	bl	8002dc8 <I2C_TransferConfig>
 8003514:	e7c4      	b.n	80034a0 <HAL_I2C_Mem_Read+0xe4>
    if (I2C_WaitOnSTOPFlagUntilTimeout(hi2c, Timeout, tickstart) != HAL_OK)
 8003516:	0032      	movs	r2, r6
 8003518:	990e      	ldr	r1, [sp, #56]	@ 0x38
 800351a:	0020      	movs	r0, r4
 800351c:	f7ff fde2 	bl	80030e4 <I2C_WaitOnSTOPFlagUntilTimeout>
 8003520:	2800      	cmp	r0, #0
 8003522:	d118      	bne.n	8003556 <HAL_I2C_Mem_Read+0x19a>
    __HAL_I2C_CLEAR_FLAG(hi2c, I2C_FLAG_STOPF);
 8003524:	6823      	ldr	r3, [r4, #0]
 8003526:	2220      	movs	r2, #32
 8003528:	61da      	str	r2, [r3, #28]
    I2C_RESET_CR2(hi2c);
 800352a:	6821      	ldr	r1, [r4, #0]
 800352c:	684b      	ldr	r3, [r1, #4]
 800352e:	4d0c      	ldr	r5, [pc, #48]	@ (8003560 <HAL_I2C_Mem_Read+0x1a4>)
 8003530:	402b      	ands	r3, r5
 8003532:	604b      	str	r3, [r1, #4]
    hi2c->State = HAL_I2C_STATE_READY;
 8003534:	2341      	movs	r3, #65	@ 0x41
 8003536:	54e2      	strb	r2, [r4, r3]
    hi2c->Mode  = HAL_I2C_MODE_NONE;
 8003538:	2300      	movs	r3, #0
 800353a:	3222      	adds	r2, #34	@ 0x22
 800353c:	54a3      	strb	r3, [r4, r2]
    __HAL_UNLOCK(hi2c);
 800353e:	3a02      	subs	r2, #2
 8003540:	54a3      	strb	r3, [r4, r2]
    return HAL_OK;
 8003542:	e000      	b.n	8003546 <HAL_I2C_Mem_Read+0x18a>
    return HAL_BUSY;
 8003544:	2002      	movs	r0, #2
}
 8003546:	b007      	add	sp, #28
 8003548:	bdf0      	pop	{r4, r5, r6, r7, pc}
    __HAL_LOCK(hi2c);
 800354a:	2002      	movs	r0, #2
 800354c:	e7fb      	b.n	8003546 <HAL_I2C_Mem_Read+0x18a>
        return HAL_ERROR;
 800354e:	2001      	movs	r0, #1
 8003550:	e7f9      	b.n	8003546 <HAL_I2C_Mem_Read+0x18a>
          return HAL_ERROR;
 8003552:	2001      	movs	r0, #1
 8003554:	e7f7      	b.n	8003546 <HAL_I2C_Mem_Read+0x18a>
      return HAL_ERROR;
 8003556:	2001      	movs	r0, #1
 8003558:	e7f5      	b.n	8003546 <HAL_I2C_Mem_Read+0x18a>
 800355a:	46c0      	nop			@ (mov r8, r8)
 800355c:	80002400 	.word	0x80002400
 8003560:	fe00e800 	.word	0xfe00e800

08003564 <HAL_I2CEx_ConfigAnalogFilter>:
  *                the configuration information for the specified I2Cx peripheral.
  * @param  AnalogFilter New state of the Analog filter.
  * @retval HAL status
  */
HAL_StatusTypeDef HAL_I2CEx_ConfigAnalogFilter(I2C_HandleTypeDef *hi2c, uint32_t AnalogFilter)
{
 8003564:	b5f0      	push	{r4, r5, r6, r7, lr}
  /* Check the parameters */
  assert_param(IS_I2C_ALL_INSTANCE(hi2c->Instance));
  assert_param(IS_I2C_ANALOG_FILTER(AnalogFilter));

  if (hi2c->State == HAL_I2C_STATE_READY)
 8003566:	2341      	movs	r3, #65	@ 0x41
 8003568:	5cc3      	ldrb	r3, [r0, r3]
 800356a:	2b20      	cmp	r3, #32
 800356c:	d120      	bne.n	80035b0 <HAL_I2CEx_ConfigAnalogFilter+0x4c>
  {
    /* Process Locked */
    __HAL_LOCK(hi2c);
 800356e:	3320      	adds	r3, #32
 8003570:	5cc3      	ldrb	r3, [r0, r3]
 8003572:	2b01      	cmp	r3, #1
 8003574:	d01e      	beq.n	80035b4 <HAL_I2CEx_ConfigAnalogFilter+0x50>
 8003576:	2440      	movs	r4, #64	@ 0x40
 8003578:	2201      	movs	r2, #1
 800357a:	5502      	strb	r2, [r0, r4]

    hi2c->State = HAL_I2C_STATE_BUSY;
 800357c:	2541      	movs	r5, #65	@ 0x41
 800357e:	2324      	movs	r3, #36	@ 0x24
 8003580:	5543      	strb	r3, [r0, r5]

    /* Disable the selected I2C peripheral */
    __HAL_I2C_DISABLE(hi2c);
 8003582:	6806      	ldr	r6, [r0, #0]
 8003584:	6833      	ldr	r3, [r6, #0]
 8003586:	4393      	bics	r3, r2
 8003588:	6033      	str	r3, [r6, #0]

    /* Reset I2Cx ANOFF bit */
    hi2c->Instance->CR1 &= ~(I2C_CR1_ANFOFF);
 800358a:	6806      	ldr	r6, [r0, #0]
 800358c:	6833      	ldr	r3, [r6, #0]
 800358e:	4f0a      	ldr	r7, [pc, #40]	@ (80035b8 <HAL_I2CEx_ConfigAnalogFilter+0x54>)
 8003590:	403b      	ands	r3, r7
 8003592:	6033      	str	r3, [r6, #0]

    /* Set analog filter bit*/
    hi2c->Instance->CR1 |= AnalogFilter;
 8003594:	6806      	ldr	r6, [r0, #0]
 8003596:	6833      	ldr	r3, [r6, #0]
 8003598:	430b      	orrs	r3, r1
 800359a:	6033      	str	r3, [r6, #0]

    __HAL_I2C_ENABLE(hi2c);
 800359c:	6801      	ldr	r1, [r0, #0]
 800359e:	680b      	ldr	r3, [r1, #0]
 80035a0:	4313      	orrs	r3, r2
 80035a2:	600b      	str	r3, [r1, #0]

    hi2c->State = HAL_I2C_STATE_READY;
 80035a4:	2320      	movs	r3, #32
 80035a6:	5543      	strb	r3, [r0, r5]

    /* Process Unlocked */
    __HAL_UNLOCK(hi2c);
 80035a8:	2300      	movs	r3, #0
 80035aa:	5503      	strb	r3, [r0, r4]

    return HAL_OK;
 80035ac:	2000      	movs	r0, #0
  }
  else
  {
    return HAL_BUSY;
  }
}
 80035ae:	bdf0      	pop	{r4, r5, r6, r7, pc}
    return HAL_BUSY;
 80035b0:	2002      	movs	r0, #2
 80035b2:	e7fc      	b.n	80035ae <HAL_I2CEx_ConfigAnalogFilter+0x4a>
    __HAL_LOCK(hi2c);
 80035b4:	2002      	movs	r0, #2
 80035b6:	e7fa      	b.n	80035ae <HAL_I2CEx_ConfigAnalogFilter+0x4a>
 80035b8:	ffffefff 	.word	0xffffefff

080035bc <HAL_I2CEx_ConfigDigitalFilter>:
  *                the configuration information for the specified I2Cx peripheral.
  * @param  DigitalFilter Coefficient of digital noise filter between Min_Data=0x00 and Max_Data=0x0F.
  * @retval HAL status
  */
HAL_StatusTypeDef HAL_I2CEx_ConfigDigitalFilter(I2C_HandleTypeDef *hi2c, uint32_t DigitalFilter)
{
 80035bc:	b5f0      	push	{r4, r5, r6, r7, lr}

  /* Check the parameters */
  assert_param(IS_I2C_ALL_INSTANCE(hi2c->Instance));
  assert_param(IS_I2C_DIGITAL_FILTER(DigitalFilter));

  if (hi2c->State == HAL_I2C_STATE_READY)
 80035be:	2341      	movs	r3, #65	@ 0x41
 80035c0:	5cc3      	ldrb	r3, [r0, r3]
 80035c2:	2b20      	cmp	r3, #32
 80035c4:	d11e      	bne.n	8003604 <HAL_I2CEx_ConfigDigitalFilter+0x48>
  {
    /* Process Locked */
    __HAL_LOCK(hi2c);
 80035c6:	3320      	adds	r3, #32
 80035c8:	5cc3      	ldrb	r3, [r0, r3]
 80035ca:	2b01      	cmp	r3, #1
 80035cc:	d01c      	beq.n	8003608 <HAL_I2CEx_ConfigDigitalFilter+0x4c>
 80035ce:	2440      	movs	r4, #64	@ 0x40
 80035d0:	2201      	movs	r2, #1
 80035d2:	5502      	strb	r2, [r0, r4]

    hi2c->State = HAL_I2C_STATE_BUSY;
 80035d4:	2541      	movs	r5, #65	@ 0x41
 80035d6:	2324      	movs	r3, #36	@ 0x24
 80035d8:	5543      	strb	r3, [r0, r5]

    /* Disable the selected I2C peripheral */
    __HAL_I2C_DISABLE(hi2c);
 80035da:	6806      	ldr	r6, [r0, #0]
 80035dc:	6833      	ldr	r3, [r6, #0]
 80035de:	4393      	bics	r3, r2
 80035e0:	6033      	str	r3, [r6, #0]

    /* Get the old register value */
    tmpreg = hi2c->Instance->CR1;
 80035e2:	6806      	ldr	r6, [r0, #0]
 80035e4:	6833      	ldr	r3, [r6, #0]

    /* Reset I2Cx DNF bits [11:8] */
    tmpreg &= ~(I2C_CR1_DNF);
 80035e6:	4f09      	ldr	r7, [pc, #36]	@ (800360c <HAL_I2CEx_ConfigDigitalFilter+0x50>)
 80035e8:	403b      	ands	r3, r7

    /* Set I2Cx DNF coefficient */
    tmpreg |= DigitalFilter << 8U;
 80035ea:	0209      	lsls	r1, r1, #8
 80035ec:	4319      	orrs	r1, r3

    /* Store the new register value */
    hi2c->Instance->CR1 = tmpreg;
 80035ee:	6031      	str	r1, [r6, #0]

    __HAL_I2C_ENABLE(hi2c);
 80035f0:	6801      	ldr	r1, [r0, #0]
 80035f2:	680b      	ldr	r3, [r1, #0]
 80035f4:	4313      	orrs	r3, r2
 80035f6:	600b      	str	r3, [r1, #0]

    hi2c->State = HAL_I2C_STATE_READY;
 80035f8:	2320      	movs	r3, #32
 80035fa:	5543      	strb	r3, [r0, r5]

    /* Process Unlocked */
    __HAL_UNLOCK(hi2c);
 80035fc:	2300      	movs	r3, #0
 80035fe:	5503      	strb	r3, [r0, r4]

    return HAL_OK;
 8003600:	2000      	movs	r0, #0
  }
  else
  {
    return HAL_BUSY;
  }
}
 8003602:	bdf0      	pop	{r4, r5, r6, r7, pc}
    return HAL_BUSY;
 8003604:	2002      	movs	r0, #2
 8003606:	e7fc      	b.n	8003602 <HAL_I2CEx_ConfigDigitalFilter+0x46>
    __HAL_LOCK(hi2c);
 8003608:	2002      	movs	r0, #2
 800360a:	e7fa      	b.n	8003602 <HAL_I2CEx_ConfigDigitalFilter+0x46>
 800360c:	fffff0ff 	.word	0xfffff0ff

08003610 <HAL_PWR_EnableWakeUpPin>:
{
  assert_param(IS_PWR_WAKEUP_PIN(WakeUpPinPolarity));

  /* Specifies the Wake-Up pin polarity for the event detection
    (rising or falling edge) */
  MODIFY_REG(PWR->CR4, (PWR_CR4_WP & WakeUpPinPolarity), (WakeUpPinPolarity >> PWR_WUP_POLARITY_SHIFT));
 8003610:	4905      	ldr	r1, [pc, #20]	@ (8003628 <HAL_PWR_EnableWakeUpPin+0x18>)
 8003612:	68ca      	ldr	r2, [r1, #12]
 8003614:	232f      	movs	r3, #47	@ 0x2f
 8003616:	4003      	ands	r3, r0
 8003618:	439a      	bics	r2, r3
 800361a:	0a00      	lsrs	r0, r0, #8
 800361c:	4302      	orrs	r2, r0
 800361e:	60ca      	str	r2, [r1, #12]

  /* Enable wake-up pin */
  SET_BIT(PWR->CR3, (PWR_CR3_EWUP & WakeUpPinPolarity));
 8003620:	688a      	ldr	r2, [r1, #8]
 8003622:	4313      	orrs	r3, r2
 8003624:	608b      	str	r3, [r1, #8]
}
 8003626:	4770      	bx	lr
 8003628:	40007000 	.word	0x40007000

0800362c <HAL_PWR_EnterSTANDBYMode>:
  * @retval None
  */
void HAL_PWR_EnterSTANDBYMode(void)
{
  /* Set Stand-by mode */
  MODIFY_REG(PWR->CR1, PWR_CR1_LPMS, PWR_LOWPOWERMODE_STANDBY);
 800362c:	4a06      	ldr	r2, [pc, #24]	@ (8003648 <HAL_PWR_EnterSTANDBYMode+0x1c>)
 800362e:	6813      	ldr	r3, [r2, #0]
 8003630:	2107      	movs	r1, #7
 8003632:	438b      	bics	r3, r1
 8003634:	3904      	subs	r1, #4
 8003636:	430b      	orrs	r3, r1
 8003638:	6013      	str	r3, [r2, #0]

  /* Set SLEEPDEEP bit of Cortex System Control Register */
  SET_BIT(SCB->SCR, ((uint32_t)SCB_SCR_SLEEPDEEP_Msk));
 800363a:	4a04      	ldr	r2, [pc, #16]	@ (800364c <HAL_PWR_EnterSTANDBYMode+0x20>)
 800363c:	6913      	ldr	r3, [r2, #16]
 800363e:	3101      	adds	r1, #1
 8003640:	430b      	orrs	r3, r1
 8003642:	6113      	str	r3, [r2, #16]

  /* Request Wait For Interrupt */
  __WFI();
 8003644:	bf30      	wfi
}
 8003646:	4770      	bx	lr
 8003648:	40007000 	.word	0x40007000
 800364c:	e000ed00 	.word	0xe000ed00

08003650 <HAL_RCC_OscConfig>:
            must adjust the number of CPU wait states in their application (SystemClock_Config() API)
            before calling the HAL_RCC_OscConfig() API to update the HSI48 clock division factor.
  * @retval HAL status
  */
HAL_StatusTypeDef HAL_RCC_OscConfig(const RCC_OscInitTypeDef  *RCC_OscInitStruct)
{
 8003650:	b570      	push	{r4, r5, r6, lr}
 8003652:	1e04      	subs	r4, r0, #0
  uint32_t tickstart;
  uint32_t temp_sysclksrc;

  /* Check Null pointer */
  if (RCC_OscInitStruct == NULL)
 8003654:	d100      	bne.n	8003658 <HAL_RCC_OscConfig+0x8>
 8003656:	e139      	b.n	80038cc <HAL_RCC_OscConfig+0x27c>

  /* Check the parameters */
  assert_param(IS_RCC_OSCILLATORTYPE(RCC_OscInitStruct->OscillatorType));

  /*------------------------------- HSE Configuration ------------------------*/
  if (((RCC_OscInitStruct->OscillatorType) & RCC_OSCILLATORTYPE_HSE) == RCC_OSCILLATORTYPE_HSE)
 8003658:	6803      	ldr	r3, [r0, #0]
 800365a:	07db      	lsls	r3, r3, #31
 800365c:	d52c      	bpl.n	80036b8 <HAL_RCC_OscConfig+0x68>
  {
    /* Check the parameters */
    assert_param(IS_RCC_HSE(RCC_OscInitStruct->HSEState));

    temp_sysclksrc = __HAL_RCC_GET_SYSCLK_SOURCE();
 800365e:	4ba1      	ldr	r3, [pc, #644]	@ (80038e4 <HAL_RCC_OscConfig+0x294>)
 8003660:	689a      	ldr	r2, [r3, #8]
 8003662:	2338      	movs	r3, #56	@ 0x38
 8003664:	4013      	ands	r3, r2

    /* When the HSE is used as system clock in these cases it is not allowed to be disabled */
    if (temp_sysclksrc == RCC_CFGR_SWS_HSE)
 8003666:	2b08      	cmp	r3, #8
 8003668:	d022      	beq.n	80036b0 <HAL_RCC_OscConfig+0x60>
      }
    }
    else
    {
      /* Set the new HSE configuration ---------------------------------------*/
      __HAL_RCC_HSE_CONFIG(RCC_OscInitStruct->HSEState);
 800366a:	6843      	ldr	r3, [r0, #4]
 800366c:	2280      	movs	r2, #128	@ 0x80
 800366e:	0252      	lsls	r2, r2, #9
 8003670:	4293      	cmp	r3, r2
 8003672:	d02e      	beq.n	80036d2 <HAL_RCC_OscConfig+0x82>
 8003674:	22a0      	movs	r2, #160	@ 0xa0
 8003676:	02d2      	lsls	r2, r2, #11
 8003678:	4293      	cmp	r3, r2
 800367a:	d031      	beq.n	80036e0 <HAL_RCC_OscConfig+0x90>
 800367c:	4b99      	ldr	r3, [pc, #612]	@ (80038e4 <HAL_RCC_OscConfig+0x294>)
 800367e:	681a      	ldr	r2, [r3, #0]
 8003680:	4999      	ldr	r1, [pc, #612]	@ (80038e8 <HAL_RCC_OscConfig+0x298>)
 8003682:	400a      	ands	r2, r1
 8003684:	601a      	str	r2, [r3, #0]
 8003686:	681a      	ldr	r2, [r3, #0]
 8003688:	4998      	ldr	r1, [pc, #608]	@ (80038ec <HAL_RCC_OscConfig+0x29c>)
 800368a:	400a      	ands	r2, r1
 800368c:	601a      	str	r2, [r3, #0]

      /* Check the HSE State */
      if (RCC_OscInitStruct->HSEState != RCC_HSE_OFF)
 800368e:	6863      	ldr	r3, [r4, #4]
 8003690:	2b00      	cmp	r3, #0
 8003692:	d031      	beq.n	80036f8 <HAL_RCC_OscConfig+0xa8>
      {
        /* Get Start Tick*/
        tickstart = HAL_GetTick();
 8003694:	f7ff fa2a 	bl	8002aec <HAL_GetTick>
 8003698:	0005      	movs	r5, r0

        /* Wait till HSE is ready */
        while (READ_BIT(RCC->CR, RCC_CR_HSERDY) == 0U)
 800369a:	4b92      	ldr	r3, [pc, #584]	@ (80038e4 <HAL_RCC_OscConfig+0x294>)
 800369c:	681b      	ldr	r3, [r3, #0]
 800369e:	039b      	lsls	r3, r3, #14
 80036a0:	d40a      	bmi.n	80036b8 <HAL_RCC_OscConfig+0x68>
        {
          if ((HAL_GetTick() - tickstart) > RCC_HSE_TIMEOUT_VALUE)
 80036a2:	f7ff fa23 	bl	8002aec <HAL_GetTick>
 80036a6:	1b40      	subs	r0, r0, r5
 80036a8:	2864      	cmp	r0, #100	@ 0x64
 80036aa:	d9f6      	bls.n	800369a <HAL_RCC_OscConfig+0x4a>
          {
            return HAL_TIMEOUT;
 80036ac:	2003      	movs	r0, #3
 80036ae:	e10e      	b.n	80038ce <HAL_RCC_OscConfig+0x27e>
      if (RCC_OscInitStruct->HSEState == RCC_HSE_OFF)
 80036b0:	6843      	ldr	r3, [r0, #4]
 80036b2:	2b00      	cmp	r3, #0
 80036b4:	d100      	bne.n	80036b8 <HAL_RCC_OscConfig+0x68>
 80036b6:	e10b      	b.n	80038d0 <HAL_RCC_OscConfig+0x280>
        }
      }
    }
  }
  /*----------------------------- HSI Configuration --------------------------*/
  if (((RCC_OscInitStruct->OscillatorType) & RCC_OSCILLATORTYPE_HSI) == RCC_OSCILLATORTYPE_HSI)
 80036b8:	6823      	ldr	r3, [r4, #0]
 80036ba:	079b      	lsls	r3, r3, #30
 80036bc:	d547      	bpl.n	800374e <HAL_RCC_OscConfig+0xfe>
    assert_param(IS_RCC_HSI(RCC_OscInitStruct->HSIState));
    assert_param(IS_RCC_HSI_CALIBRATION_VALUE(RCC_OscInitStruct->HSICalibrationValue));
    assert_param(IS_RCC_HSIDIV(RCC_OscInitStruct->HSIDiv));

    /* Check if HSI48 is used as system clock  */
    temp_sysclksrc = __HAL_RCC_GET_SYSCLK_SOURCE();
 80036be:	4b89      	ldr	r3, [pc, #548]	@ (80038e4 <HAL_RCC_OscConfig+0x294>)
 80036c0:	689b      	ldr	r3, [r3, #8]
 80036c2:	2238      	movs	r2, #56	@ 0x38

    if (temp_sysclksrc == RCC_CFGR_SWS_HSI)
 80036c4:	421a      	tst	r2, r3
 80036c6:	d161      	bne.n	800378c <HAL_RCC_OscConfig+0x13c>
    {
      /* When HSI is used as system clock it can not be disabled */
      if (RCC_OscInitStruct->HSIState == RCC_HSI_OFF)
 80036c8:	68e3      	ldr	r3, [r4, #12]
 80036ca:	2b00      	cmp	r3, #0
 80036cc:	d122      	bne.n	8003714 <HAL_RCC_OscConfig+0xc4>
      {
        return HAL_ERROR;
 80036ce:	2001      	movs	r0, #1
 80036d0:	e0fd      	b.n	80038ce <HAL_RCC_OscConfig+0x27e>
      __HAL_RCC_HSE_CONFIG(RCC_OscInitStruct->HSEState);
 80036d2:	4a84      	ldr	r2, [pc, #528]	@ (80038e4 <HAL_RCC_OscConfig+0x294>)
 80036d4:	6811      	ldr	r1, [r2, #0]
 80036d6:	2380      	movs	r3, #128	@ 0x80
 80036d8:	025b      	lsls	r3, r3, #9
 80036da:	430b      	orrs	r3, r1
 80036dc:	6013      	str	r3, [r2, #0]
 80036de:	e7d6      	b.n	800368e <HAL_RCC_OscConfig+0x3e>
 80036e0:	4b80      	ldr	r3, [pc, #512]	@ (80038e4 <HAL_RCC_OscConfig+0x294>)
 80036e2:	6819      	ldr	r1, [r3, #0]
 80036e4:	2280      	movs	r2, #128	@ 0x80
 80036e6:	02d2      	lsls	r2, r2, #11
 80036e8:	430a      	orrs	r2, r1
 80036ea:	601a      	str	r2, [r3, #0]
 80036ec:	6819      	ldr	r1, [r3, #0]
 80036ee:	2280      	movs	r2, #128	@ 0x80
 80036f0:	0252      	lsls	r2, r2, #9
 80036f2:	430a      	orrs	r2, r1
 80036f4:	601a      	str	r2, [r3, #0]
 80036f6:	e7ca      	b.n	800368e <HAL_RCC_OscConfig+0x3e>
        tickstart = HAL_GetTick();
 80036f8:	f7ff f9f8 	bl	8002aec <HAL_GetTick>
 80036fc:	0005      	movs	r5, r0
        while (READ_BIT(RCC->CR, RCC_CR_HSERDY) != 0U)
 80036fe:	4b79      	ldr	r3, [pc, #484]	@ (80038e4 <HAL_RCC_OscConfig+0x294>)
 8003700:	681b      	ldr	r3, [r3, #0]
 8003702:	039b      	lsls	r3, r3, #14
 8003704:	d5d8      	bpl.n	80036b8 <HAL_RCC_OscConfig+0x68>
          if ((HAL_GetTick() - tickstart) > RCC_HSE_TIMEOUT_VALUE)
 8003706:	f7ff f9f1 	bl	8002aec <HAL_GetTick>
 800370a:	1b40      	subs	r0, r0, r5
 800370c:	2864      	cmp	r0, #100	@ 0x64
 800370e:	d9f6      	bls.n	80036fe <HAL_RCC_OscConfig+0xae>
            return HAL_TIMEOUT;
 8003710:	2003      	movs	r0, #3
 8003712:	e0dc      	b.n	80038ce <HAL_RCC_OscConfig+0x27e>
      }
      /* Otherwise, just the calibration is allowed */
      else
      {
        /* Adjusts the Internal High Speed oscillator (HSI) calibration value.*/
        __HAL_RCC_HSI_CALIBRATIONVALUE_ADJUST(RCC_OscInitStruct->HSICalibrationValue);
 8003714:	4b73      	ldr	r3, [pc, #460]	@ (80038e4 <HAL_RCC_OscConfig+0x294>)
 8003716:	685a      	ldr	r2, [r3, #4]
 8003718:	4975      	ldr	r1, [pc, #468]	@ (80038f0 <HAL_RCC_OscConfig+0x2a0>)
 800371a:	400a      	ands	r2, r1
 800371c:	6961      	ldr	r1, [r4, #20]
 800371e:	0209      	lsls	r1, r1, #8
 8003720:	430a      	orrs	r2, r1
 8003722:	605a      	str	r2, [r3, #4]

        if (temp_sysclksrc == RCC_CFGR_SWS_HSI)
        {
          /* Adjust the HSI48 division factor */
          __HAL_RCC_HSI_CONFIG(RCC_OscInitStruct->HSIDiv);
 8003724:	681a      	ldr	r2, [r3, #0]
 8003726:	4973      	ldr	r1, [pc, #460]	@ (80038f4 <HAL_RCC_OscConfig+0x2a4>)
 8003728:	400a      	ands	r2, r1
 800372a:	6921      	ldr	r1, [r4, #16]
 800372c:	430a      	orrs	r2, r1
 800372e:	601a      	str	r2, [r3, #0]

          /* Update the SystemCoreClock global variable with HSISYS value  */
          SystemCoreClock = (HSI_VALUE / (1UL << ((READ_BIT(RCC->CR, RCC_CR_HSIDIV)) >> RCC_CR_HSIDIV_Pos)));
 8003730:	681b      	ldr	r3, [r3, #0]
 8003732:	0adb      	lsrs	r3, r3, #11
 8003734:	2207      	movs	r2, #7
 8003736:	401a      	ands	r2, r3
 8003738:	4b6f      	ldr	r3, [pc, #444]	@ (80038f8 <HAL_RCC_OscConfig+0x2a8>)
 800373a:	40d3      	lsrs	r3, r2
 800373c:	4a6f      	ldr	r2, [pc, #444]	@ (80038fc <HAL_RCC_OscConfig+0x2ac>)
 800373e:	6013      	str	r3, [r2, #0]
        }

        /* Adapt Systick interrupt period */
        if (HAL_InitTick(uwTickPrio) != HAL_OK)
 8003740:	4b6f      	ldr	r3, [pc, #444]	@ (8003900 <HAL_RCC_OscConfig+0x2b0>)
 8003742:	6818      	ldr	r0, [r3, #0]
 8003744:	f7ff f98e 	bl	8002a64 <HAL_InitTick>
 8003748:	2800      	cmp	r0, #0
 800374a:	d000      	beq.n	800374e <HAL_RCC_OscConfig+0xfe>
 800374c:	e0c2      	b.n	80038d4 <HAL_RCC_OscConfig+0x284>
        }
      }
    }
  }
  /*------------------------------ LSI Configuration -------------------------*/
  if (((RCC_OscInitStruct->OscillatorType) & RCC_OSCILLATORTYPE_LSI) == RCC_OSCILLATORTYPE_LSI)
 800374e:	6823      	ldr	r3, [r4, #0]
 8003750:	071b      	lsls	r3, r3, #28
 8003752:	d557      	bpl.n	8003804 <HAL_RCC_OscConfig+0x1b4>
  {
    /* Check the parameters */
    assert_param(IS_RCC_LSI(RCC_OscInitStruct->LSIState));

    /* Check if LSI is used as system clock */
    if (__HAL_RCC_GET_SYSCLK_SOURCE() == RCC_CFGR_SWS_LSI)
 8003754:	4b63      	ldr	r3, [pc, #396]	@ (80038e4 <HAL_RCC_OscConfig+0x294>)
 8003756:	689a      	ldr	r2, [r3, #8]
 8003758:	2338      	movs	r3, #56	@ 0x38
 800375a:	4013      	ands	r3, r2
 800375c:	2b18      	cmp	r3, #24
 800375e:	d04e      	beq.n	80037fe <HAL_RCC_OscConfig+0x1ae>
      }
    }
    else
    {
      /* Check the LSI State */
      if (RCC_OscInitStruct->LSIState != RCC_LSI_OFF)
 8003760:	69a3      	ldr	r3, [r4, #24]
 8003762:	2b00      	cmp	r3, #0
 8003764:	d077      	beq.n	8003856 <HAL_RCC_OscConfig+0x206>
      {
        /* Enable the Internal Low Speed oscillator (LSI). */
        __HAL_RCC_LSI_ENABLE();
 8003766:	4a5f      	ldr	r2, [pc, #380]	@ (80038e4 <HAL_RCC_OscConfig+0x294>)
 8003768:	6e13      	ldr	r3, [r2, #96]	@ 0x60
 800376a:	2101      	movs	r1, #1
 800376c:	430b      	orrs	r3, r1
 800376e:	6613      	str	r3, [r2, #96]	@ 0x60

        /* Get Start Tick*/
        tickstart = HAL_GetTick();
 8003770:	f7ff f9bc 	bl	8002aec <HAL_GetTick>
 8003774:	0005      	movs	r5, r0

        /* Wait till LSI is ready */
        while (READ_BIT(RCC->CSR2, RCC_CSR2_LSIRDY) == 0U)
 8003776:	4b5b      	ldr	r3, [pc, #364]	@ (80038e4 <HAL_RCC_OscConfig+0x294>)
 8003778:	6e1b      	ldr	r3, [r3, #96]	@ 0x60
 800377a:	079b      	lsls	r3, r3, #30
 800377c:	d442      	bmi.n	8003804 <HAL_RCC_OscConfig+0x1b4>
        {
          if ((HAL_GetTick() - tickstart) > RCC_LSI_TIMEOUT_VALUE)
 800377e:	f7ff f9b5 	bl	8002aec <HAL_GetTick>
 8003782:	1b40      	subs	r0, r0, r5
 8003784:	2802      	cmp	r0, #2
 8003786:	d9f6      	bls.n	8003776 <HAL_RCC_OscConfig+0x126>
          {
            return HAL_TIMEOUT;
 8003788:	2003      	movs	r0, #3
 800378a:	e0a0      	b.n	80038ce <HAL_RCC_OscConfig+0x27e>
      if (RCC_OscInitStruct->HSIState != RCC_HSI_OFF)
 800378c:	68e3      	ldr	r3, [r4, #12]
 800378e:	2b00      	cmp	r3, #0
 8003790:	d022      	beq.n	80037d8 <HAL_RCC_OscConfig+0x188>
        __HAL_RCC_HSI_CONFIG(RCC_OscInitStruct->HSIDiv);
 8003792:	4a54      	ldr	r2, [pc, #336]	@ (80038e4 <HAL_RCC_OscConfig+0x294>)
 8003794:	6813      	ldr	r3, [r2, #0]
 8003796:	4957      	ldr	r1, [pc, #348]	@ (80038f4 <HAL_RCC_OscConfig+0x2a4>)
 8003798:	400b      	ands	r3, r1
 800379a:	6921      	ldr	r1, [r4, #16]
 800379c:	430b      	orrs	r3, r1
 800379e:	6013      	str	r3, [r2, #0]
        __HAL_RCC_HSI_ENABLE();
 80037a0:	6811      	ldr	r1, [r2, #0]
 80037a2:	2380      	movs	r3, #128	@ 0x80
 80037a4:	005b      	lsls	r3, r3, #1
 80037a6:	430b      	orrs	r3, r1
 80037a8:	6013      	str	r3, [r2, #0]
        tickstart = HAL_GetTick();
 80037aa:	f7ff f99f 	bl	8002aec <HAL_GetTick>
 80037ae:	0005      	movs	r5, r0
        while (READ_BIT(RCC->CR, RCC_CR_HSIRDY) == 0U)
 80037b0:	4b4c      	ldr	r3, [pc, #304]	@ (80038e4 <HAL_RCC_OscConfig+0x294>)
 80037b2:	681b      	ldr	r3, [r3, #0]
 80037b4:	055b      	lsls	r3, r3, #21
 80037b6:	d406      	bmi.n	80037c6 <HAL_RCC_OscConfig+0x176>
          if ((HAL_GetTick() - tickstart) > RCC_HSI_TIMEOUT_VALUE)
 80037b8:	f7ff f998 	bl	8002aec <HAL_GetTick>
 80037bc:	1b40      	subs	r0, r0, r5
 80037be:	2802      	cmp	r0, #2
 80037c0:	d9f6      	bls.n	80037b0 <HAL_RCC_OscConfig+0x160>
            return HAL_TIMEOUT;
 80037c2:	2003      	movs	r0, #3
 80037c4:	e083      	b.n	80038ce <HAL_RCC_OscConfig+0x27e>
        __HAL_RCC_HSI_CALIBRATIONVALUE_ADJUST(RCC_OscInitStruct->HSICalibrationValue);
 80037c6:	4947      	ldr	r1, [pc, #284]	@ (80038e4 <HAL_RCC_OscConfig+0x294>)
 80037c8:	684b      	ldr	r3, [r1, #4]
 80037ca:	4a49      	ldr	r2, [pc, #292]	@ (80038f0 <HAL_RCC_OscConfig+0x2a0>)
 80037cc:	4013      	ands	r3, r2
 80037ce:	6962      	ldr	r2, [r4, #20]
 80037d0:	0212      	lsls	r2, r2, #8
 80037d2:	4313      	orrs	r3, r2
 80037d4:	604b      	str	r3, [r1, #4]
 80037d6:	e7ba      	b.n	800374e <HAL_RCC_OscConfig+0xfe>
        __HAL_RCC_HSI_DISABLE();
 80037d8:	4a42      	ldr	r2, [pc, #264]	@ (80038e4 <HAL_RCC_OscConfig+0x294>)
 80037da:	6813      	ldr	r3, [r2, #0]
 80037dc:	4949      	ldr	r1, [pc, #292]	@ (8003904 <HAL_RCC_OscConfig+0x2b4>)
 80037de:	400b      	ands	r3, r1
 80037e0:	6013      	str	r3, [r2, #0]
        tickstart = HAL_GetTick();
 80037e2:	f7ff f983 	bl	8002aec <HAL_GetTick>
 80037e6:	0005      	movs	r5, r0
        while (READ_BIT(RCC->CR, RCC_CR_HSIRDY) != 0U)
 80037e8:	4b3e      	ldr	r3, [pc, #248]	@ (80038e4 <HAL_RCC_OscConfig+0x294>)
 80037ea:	681b      	ldr	r3, [r3, #0]
 80037ec:	055b      	lsls	r3, r3, #21
 80037ee:	d5ae      	bpl.n	800374e <HAL_RCC_OscConfig+0xfe>
          if ((HAL_GetTick() - tickstart) > RCC_HSI_TIMEOUT_VALUE)
 80037f0:	f7ff f97c 	bl	8002aec <HAL_GetTick>
 80037f4:	1b40      	subs	r0, r0, r5
 80037f6:	2802      	cmp	r0, #2
 80037f8:	d9f6      	bls.n	80037e8 <HAL_RCC_OscConfig+0x198>
            return HAL_TIMEOUT;
 80037fa:	2003      	movs	r0, #3
 80037fc:	e067      	b.n	80038ce <HAL_RCC_OscConfig+0x27e>
      if (RCC_OscInitStruct->LSIState == RCC_LSI_OFF)
 80037fe:	69a3      	ldr	r3, [r4, #24]
 8003800:	2b00      	cmp	r3, #0
 8003802:	d069      	beq.n	80038d8 <HAL_RCC_OscConfig+0x288>
        }
      }
    }
  }
  /*------------------------------ LSE Configuration -------------------------*/
  if (((RCC_OscInitStruct->OscillatorType) & RCC_OSCILLATORTYPE_LSE) == RCC_OSCILLATORTYPE_LSE)
 8003804:	6823      	ldr	r3, [r4, #0]
 8003806:	075b      	lsls	r3, r3, #29
 8003808:	d568      	bpl.n	80038dc <HAL_RCC_OscConfig+0x28c>

    /* Check the parameters */
    assert_param(IS_RCC_LSE(RCC_OscInitStruct->LSEState));

    /* When the LSE is used as system clock, it is not allowed disable it */
    if (__HAL_RCC_GET_SYSCLK_SOURCE() == RCC_CFGR_SWS_LSE)
 800380a:	4b36      	ldr	r3, [pc, #216]	@ (80038e4 <HAL_RCC_OscConfig+0x294>)
 800380c:	689a      	ldr	r2, [r3, #8]
 800380e:	2338      	movs	r3, #56	@ 0x38
 8003810:	4013      	ands	r3, r2
 8003812:	2b20      	cmp	r3, #32
 8003814:	d032      	beq.n	800387c <HAL_RCC_OscConfig+0x22c>
    }
    else
    {
      /* Update LSE configuration in RTC Domain control register    */
      /* Set the new LSE configuration -----------------------------------------*/
      __HAL_RCC_LSE_CONFIG(RCC_OscInitStruct->LSEState);
 8003816:	68a3      	ldr	r3, [r4, #8]
 8003818:	2b01      	cmp	r3, #1
 800381a:	d034      	beq.n	8003886 <HAL_RCC_OscConfig+0x236>
 800381c:	2b05      	cmp	r3, #5
 800381e:	d038      	beq.n	8003892 <HAL_RCC_OscConfig+0x242>
 8003820:	4b30      	ldr	r3, [pc, #192]	@ (80038e4 <HAL_RCC_OscConfig+0x294>)
 8003822:	6dda      	ldr	r2, [r3, #92]	@ 0x5c
 8003824:	2101      	movs	r1, #1
 8003826:	438a      	bics	r2, r1
 8003828:	65da      	str	r2, [r3, #92]	@ 0x5c
 800382a:	6dda      	ldr	r2, [r3, #92]	@ 0x5c
 800382c:	3103      	adds	r1, #3
 800382e:	438a      	bics	r2, r1
 8003830:	65da      	str	r2, [r3, #92]	@ 0x5c

      /* Check the LSE State */
      if (RCC_OscInitStruct->LSEState != RCC_LSE_OFF)
 8003832:	68a3      	ldr	r3, [r4, #8]
 8003834:	2b00      	cmp	r3, #0
 8003836:	d038      	beq.n	80038aa <HAL_RCC_OscConfig+0x25a>
      {
        /* Get Start Tick*/
        tickstart = HAL_GetTick();
 8003838:	f7ff f958 	bl	8002aec <HAL_GetTick>
 800383c:	0004      	movs	r4, r0

        /* Wait till LSE is ready */
        while (READ_BIT(RCC->CSR1, RCC_CSR1_LSERDY) == 0U)
 800383e:	4b29      	ldr	r3, [pc, #164]	@ (80038e4 <HAL_RCC_OscConfig+0x294>)
 8003840:	6ddb      	ldr	r3, [r3, #92]	@ 0x5c
 8003842:	079b      	lsls	r3, r3, #30
 8003844:	d42f      	bmi.n	80038a6 <HAL_RCC_OscConfig+0x256>
        {
          if ((HAL_GetTick() - tickstart) > RCC_LSE_TIMEOUT_VALUE)
 8003846:	f7ff f951 	bl	8002aec <HAL_GetTick>
 800384a:	1b00      	subs	r0, r0, r4
 800384c:	4b2e      	ldr	r3, [pc, #184]	@ (8003908 <HAL_RCC_OscConfig+0x2b8>)
 800384e:	4298      	cmp	r0, r3
 8003850:	d9f5      	bls.n	800383e <HAL_RCC_OscConfig+0x1ee>
          {
            return HAL_TIMEOUT;
 8003852:	2003      	movs	r0, #3
 8003854:	e03b      	b.n	80038ce <HAL_RCC_OscConfig+0x27e>
        __HAL_RCC_LSI_DISABLE();
 8003856:	4a23      	ldr	r2, [pc, #140]	@ (80038e4 <HAL_RCC_OscConfig+0x294>)
 8003858:	6e13      	ldr	r3, [r2, #96]	@ 0x60
 800385a:	2101      	movs	r1, #1
 800385c:	438b      	bics	r3, r1
 800385e:	6613      	str	r3, [r2, #96]	@ 0x60
        tickstart = HAL_GetTick();
 8003860:	f7ff f944 	bl	8002aec <HAL_GetTick>
 8003864:	0005      	movs	r5, r0
        while (READ_BIT(RCC->CSR2, RCC_CSR2_LSIRDY) != 0U)
 8003866:	4b1f      	ldr	r3, [pc, #124]	@ (80038e4 <HAL_RCC_OscConfig+0x294>)
 8003868:	6e1b      	ldr	r3, [r3, #96]	@ 0x60
 800386a:	079b      	lsls	r3, r3, #30
 800386c:	d5ca      	bpl.n	8003804 <HAL_RCC_OscConfig+0x1b4>
          if ((HAL_GetTick() - tickstart) > RCC_LSI_TIMEOUT_VALUE)
 800386e:	f7ff f93d 	bl	8002aec <HAL_GetTick>
 8003872:	1b40      	subs	r0, r0, r5
 8003874:	2802      	cmp	r0, #2
 8003876:	d9f6      	bls.n	8003866 <HAL_RCC_OscConfig+0x216>
            return HAL_TIMEOUT;
 8003878:	2003      	movs	r0, #3
 800387a:	e028      	b.n	80038ce <HAL_RCC_OscConfig+0x27e>
      if (RCC_OscInitStruct->LSEState == RCC_LSE_OFF)
 800387c:	68a3      	ldr	r3, [r4, #8]
 800387e:	2b00      	cmp	r3, #0
 8003880:	d02e      	beq.n	80038e0 <HAL_RCC_OscConfig+0x290>
        }
      }
    }
  }
#endif /* RCC_CR_HSIUSB48ON */
  return HAL_OK;
 8003882:	2000      	movs	r0, #0
 8003884:	e023      	b.n	80038ce <HAL_RCC_OscConfig+0x27e>
      __HAL_RCC_LSE_CONFIG(RCC_OscInitStruct->LSEState);
 8003886:	4a17      	ldr	r2, [pc, #92]	@ (80038e4 <HAL_RCC_OscConfig+0x294>)
 8003888:	6dd3      	ldr	r3, [r2, #92]	@ 0x5c
 800388a:	2101      	movs	r1, #1
 800388c:	430b      	orrs	r3, r1
 800388e:	65d3      	str	r3, [r2, #92]	@ 0x5c
 8003890:	e7cf      	b.n	8003832 <HAL_RCC_OscConfig+0x1e2>
 8003892:	4b14      	ldr	r3, [pc, #80]	@ (80038e4 <HAL_RCC_OscConfig+0x294>)
 8003894:	6dda      	ldr	r2, [r3, #92]	@ 0x5c
 8003896:	2104      	movs	r1, #4
 8003898:	430a      	orrs	r2, r1
 800389a:	65da      	str	r2, [r3, #92]	@ 0x5c
 800389c:	6dda      	ldr	r2, [r3, #92]	@ 0x5c
 800389e:	3903      	subs	r1, #3
 80038a0:	430a      	orrs	r2, r1
 80038a2:	65da      	str	r2, [r3, #92]	@ 0x5c
 80038a4:	e7c5      	b.n	8003832 <HAL_RCC_OscConfig+0x1e2>
  return HAL_OK;
 80038a6:	2000      	movs	r0, #0
 80038a8:	e011      	b.n	80038ce <HAL_RCC_OscConfig+0x27e>
        tickstart = HAL_GetTick();
 80038aa:	f7ff f91f 	bl	8002aec <HAL_GetTick>
 80038ae:	0004      	movs	r4, r0
        while (READ_BIT(RCC->CSR1, RCC_CSR1_LSERDY) != 0U)
 80038b0:	4b0c      	ldr	r3, [pc, #48]	@ (80038e4 <HAL_RCC_OscConfig+0x294>)
 80038b2:	6ddb      	ldr	r3, [r3, #92]	@ 0x5c
 80038b4:	079b      	lsls	r3, r3, #30
 80038b6:	d507      	bpl.n	80038c8 <HAL_RCC_OscConfig+0x278>
          if ((HAL_GetTick() - tickstart) > RCC_LSE_TIMEOUT_VALUE)
 80038b8:	f7ff f918 	bl	8002aec <HAL_GetTick>
 80038bc:	1b00      	subs	r0, r0, r4
 80038be:	4b12      	ldr	r3, [pc, #72]	@ (8003908 <HAL_RCC_OscConfig+0x2b8>)
 80038c0:	4298      	cmp	r0, r3
 80038c2:	d9f5      	bls.n	80038b0 <HAL_RCC_OscConfig+0x260>
            return HAL_TIMEOUT;
 80038c4:	2003      	movs	r0, #3
 80038c6:	e002      	b.n	80038ce <HAL_RCC_OscConfig+0x27e>
  return HAL_OK;
 80038c8:	2000      	movs	r0, #0
 80038ca:	e000      	b.n	80038ce <HAL_RCC_OscConfig+0x27e>
    return HAL_ERROR;
 80038cc:	2001      	movs	r0, #1
}
 80038ce:	bd70      	pop	{r4, r5, r6, pc}
        return HAL_ERROR;
 80038d0:	2001      	movs	r0, #1
 80038d2:	e7fc      	b.n	80038ce <HAL_RCC_OscConfig+0x27e>
          return HAL_ERROR;
 80038d4:	2001      	movs	r0, #1
 80038d6:	e7fa      	b.n	80038ce <HAL_RCC_OscConfig+0x27e>
        return HAL_ERROR;
 80038d8:	2001      	movs	r0, #1
 80038da:	e7f8      	b.n	80038ce <HAL_RCC_OscConfig+0x27e>
  return HAL_OK;
 80038dc:	2000      	movs	r0, #0
 80038de:	e7f6      	b.n	80038ce <HAL_RCC_OscConfig+0x27e>
        return HAL_ERROR;
 80038e0:	2001      	movs	r0, #1
 80038e2:	e7f4      	b.n	80038ce <HAL_RCC_OscConfig+0x27e>
 80038e4:	40021000 	.word	0x40021000
 80038e8:	fffeffff 	.word	0xfffeffff
 80038ec:	fffbffff 	.word	0xfffbffff
 80038f0:	ffff80ff 	.word	0xffff80ff
 80038f4:	ffffc7ff 	.word	0xffffc7ff
 80038f8:	02dc6c00 	.word	0x02dc6c00
 80038fc:	20000020 	.word	0x20000020
 8003900:	20000028 	.word	0x20000028
 8003904:	fffffeff 	.word	0xfffffeff
 8003908:	00001388 	.word	0x00001388

0800390c <HAL_RCC_GetSysClockFreq>:
  uint32_t sysclockfreq;
#if defined(RCC_CR_SYSDIV)
  uint32_t sysclockdiv = (uint32_t)(((RCC->CR & RCC_CR_SYSDIV) >> RCC_CR_SYSDIV_Pos) + 1U);
#endif /* RCC_CR_SYSDIV */

  if (__HAL_RCC_GET_SYSCLK_SOURCE() == RCC_CFGR_SWS_HSI)
 800390c:	4b14      	ldr	r3, [pc, #80]	@ (8003960 <HAL_RCC_GetSysClockFreq+0x54>)
 800390e:	689b      	ldr	r3, [r3, #8]
 8003910:	2238      	movs	r2, #56	@ 0x38
 8003912:	421a      	tst	r2, r3
 8003914:	d107      	bne.n	8003926 <HAL_RCC_GetSysClockFreq+0x1a>
  {
    /* HSISYS can be derived for HSI48 */
    hsidiv = (1UL << ((READ_BIT(RCC->CR, RCC_CR_HSIDIV)) >> RCC_CR_HSIDIV_Pos));
 8003916:	4b12      	ldr	r3, [pc, #72]	@ (8003960 <HAL_RCC_GetSysClockFreq+0x54>)
 8003918:	681a      	ldr	r2, [r3, #0]
 800391a:	0ad2      	lsrs	r2, r2, #11
 800391c:	2307      	movs	r3, #7
 800391e:	4013      	ands	r3, r2

    /* HSI used as system clock source */
    sysclockfreq = (HSI_VALUE / hsidiv);
 8003920:	4810      	ldr	r0, [pc, #64]	@ (8003964 <HAL_RCC_GetSysClockFreq+0x58>)
 8003922:	40d8      	lsrs	r0, r3
  }
#if defined(RCC_CR_SYSDIV)
  sysclockfreq = sysclockfreq / sysclockdiv;
#endif /* RCC_CR_SYSDIV */
  return sysclockfreq;
}
 8003924:	4770      	bx	lr
  else if (__HAL_RCC_GET_SYSCLK_SOURCE() == RCC_CFGR_SWS_HSE)
 8003926:	4b0e      	ldr	r3, [pc, #56]	@ (8003960 <HAL_RCC_GetSysClockFreq+0x54>)
 8003928:	689a      	ldr	r2, [r3, #8]
 800392a:	2338      	movs	r3, #56	@ 0x38
 800392c:	4013      	ands	r3, r2
 800392e:	2b08      	cmp	r3, #8
 8003930:	d010      	beq.n	8003954 <HAL_RCC_GetSysClockFreq+0x48>
  else if (__HAL_RCC_GET_SYSCLK_SOURCE() == RCC_CFGR_SWS_LSE)
 8003932:	4b0b      	ldr	r3, [pc, #44]	@ (8003960 <HAL_RCC_GetSysClockFreq+0x54>)
 8003934:	689a      	ldr	r2, [r3, #8]
 8003936:	2338      	movs	r3, #56	@ 0x38
 8003938:	4013      	ands	r3, r2
 800393a:	2b20      	cmp	r3, #32
 800393c:	d00c      	beq.n	8003958 <HAL_RCC_GetSysClockFreq+0x4c>
  else if (__HAL_RCC_GET_SYSCLK_SOURCE() == RCC_CFGR_SWS_LSI)
 800393e:	4b08      	ldr	r3, [pc, #32]	@ (8003960 <HAL_RCC_GetSysClockFreq+0x54>)
 8003940:	689a      	ldr	r2, [r3, #8]
 8003942:	2338      	movs	r3, #56	@ 0x38
 8003944:	4013      	ands	r3, r2
 8003946:	2b18      	cmp	r3, #24
 8003948:	d001      	beq.n	800394e <HAL_RCC_GetSysClockFreq+0x42>
    sysclockfreq = 0U;
 800394a:	2000      	movs	r0, #0
  return sysclockfreq;
 800394c:	e7ea      	b.n	8003924 <HAL_RCC_GetSysClockFreq+0x18>
    sysclockfreq = LSI_VALUE;
 800394e:	20fa      	movs	r0, #250	@ 0xfa
 8003950:	01c0      	lsls	r0, r0, #7
 8003952:	e7e7      	b.n	8003924 <HAL_RCC_GetSysClockFreq+0x18>
    sysclockfreq = HSE_VALUE;
 8003954:	4804      	ldr	r0, [pc, #16]	@ (8003968 <HAL_RCC_GetSysClockFreq+0x5c>)
 8003956:	e7e5      	b.n	8003924 <HAL_RCC_GetSysClockFreq+0x18>
    sysclockfreq = LSE_VALUE;
 8003958:	2080      	movs	r0, #128	@ 0x80
 800395a:	0200      	lsls	r0, r0, #8
 800395c:	e7e2      	b.n	8003924 <HAL_RCC_GetSysClockFreq+0x18>
 800395e:	46c0      	nop			@ (mov r8, r8)
 8003960:	40021000 	.word	0x40021000
 8003964:	02dc6c00 	.word	0x02dc6c00
 8003968:	007a1200 	.word	0x007a1200

0800396c <HAL_RCC_ClockConfig>:
{
 800396c:	b570      	push	{r4, r5, r6, lr}
 800396e:	0004      	movs	r4, r0
 8003970:	000d      	movs	r5, r1
  if (RCC_ClkInitStruct == NULL)
 8003972:	2800      	cmp	r0, #0
 8003974:	d100      	bne.n	8003978 <HAL_RCC_ClockConfig+0xc>
 8003976:	e0a4      	b.n	8003ac2 <HAL_RCC_ClockConfig+0x156>
  if (FLatency > __HAL_FLASH_GET_LATENCY())
 8003978:	4b54      	ldr	r3, [pc, #336]	@ (8003acc <HAL_RCC_ClockConfig+0x160>)
 800397a:	681a      	ldr	r2, [r3, #0]
 800397c:	2307      	movs	r3, #7
 800397e:	4013      	ands	r3, r2
 8003980:	428b      	cmp	r3, r1
 8003982:	d321      	bcc.n	80039c8 <HAL_RCC_ClockConfig+0x5c>
  if (((RCC_ClkInitStruct->ClockType) & RCC_CLOCKTYPE_HCLK) == RCC_CLOCKTYPE_HCLK)
 8003984:	6823      	ldr	r3, [r4, #0]
 8003986:	079a      	lsls	r2, r3, #30
 8003988:	d510      	bpl.n	80039ac <HAL_RCC_ClockConfig+0x40>
    if (((RCC_ClkInitStruct->ClockType) & RCC_CLOCKTYPE_PCLK1) == RCC_CLOCKTYPE_PCLK1)
 800398a:	075b      	lsls	r3, r3, #29
 800398c:	d507      	bpl.n	800399e <HAL_RCC_ClockConfig+0x32>
      MODIFY_REG(RCC->CFGR, RCC_CFGR_PPRE, RCC_HCLK_DIV16);
 800398e:	4950      	ldr	r1, [pc, #320]	@ (8003ad0 <HAL_RCC_ClockConfig+0x164>)
 8003990:	688a      	ldr	r2, [r1, #8]
 8003992:	4b50      	ldr	r3, [pc, #320]	@ (8003ad4 <HAL_RCC_ClockConfig+0x168>)
 8003994:	401a      	ands	r2, r3
 8003996:	23b0      	movs	r3, #176	@ 0xb0
 8003998:	011b      	lsls	r3, r3, #4
 800399a:	4313      	orrs	r3, r2
 800399c:	608b      	str	r3, [r1, #8]
    MODIFY_REG(RCC->CFGR, RCC_CFGR_HPRE, RCC_ClkInitStruct->AHBCLKDivider);
 800399e:	4a4c      	ldr	r2, [pc, #304]	@ (8003ad0 <HAL_RCC_ClockConfig+0x164>)
 80039a0:	6893      	ldr	r3, [r2, #8]
 80039a2:	494d      	ldr	r1, [pc, #308]	@ (8003ad8 <HAL_RCC_ClockConfig+0x16c>)
 80039a4:	400b      	ands	r3, r1
 80039a6:	68e1      	ldr	r1, [r4, #12]
 80039a8:	430b      	orrs	r3, r1
 80039aa:	6093      	str	r3, [r2, #8]
  if (((RCC_ClkInitStruct->ClockType) & RCC_CLOCKTYPE_SYSCLK) == RCC_CLOCKTYPE_SYSCLK)
 80039ac:	6823      	ldr	r3, [r4, #0]
 80039ae:	07db      	lsls	r3, r3, #31
 80039b0:	d54c      	bpl.n	8003a4c <HAL_RCC_ClockConfig+0xe0>
    if (RCC_ClkInitStruct->SYSCLKSource == RCC_SYSCLKSOURCE_HSE)
 80039b2:	6863      	ldr	r3, [r4, #4]
 80039b4:	2b01      	cmp	r3, #1
 80039b6:	d01e      	beq.n	80039f6 <HAL_RCC_ClockConfig+0x8a>
    else if (RCC_ClkInitStruct->SYSCLKSource == RCC_SYSCLKSOURCE_HSI)
 80039b8:	2b00      	cmp	r3, #0
 80039ba:	d139      	bne.n	8003a30 <HAL_RCC_ClockConfig+0xc4>
      if (READ_BIT(RCC->CR, RCC_CR_HSIRDY) == 0U)
 80039bc:	4a44      	ldr	r2, [pc, #272]	@ (8003ad0 <HAL_RCC_ClockConfig+0x164>)
 80039be:	6812      	ldr	r2, [r2, #0]
 80039c0:	0552      	lsls	r2, r2, #21
 80039c2:	d41c      	bmi.n	80039fe <HAL_RCC_ClockConfig+0x92>
        return HAL_ERROR;
 80039c4:	2001      	movs	r0, #1
 80039c6:	e064      	b.n	8003a92 <HAL_RCC_ClockConfig+0x126>
    __HAL_FLASH_SET_LATENCY(FLatency);
 80039c8:	4a40      	ldr	r2, [pc, #256]	@ (8003acc <HAL_RCC_ClockConfig+0x160>)
 80039ca:	6813      	ldr	r3, [r2, #0]
 80039cc:	2107      	movs	r1, #7
 80039ce:	438b      	bics	r3, r1
 80039d0:	432b      	orrs	r3, r5
 80039d2:	6013      	str	r3, [r2, #0]
    tickstart = HAL_GetTick();
 80039d4:	f7ff f88a 	bl	8002aec <HAL_GetTick>
 80039d8:	0006      	movs	r6, r0
    while ((FLASH->ACR & FLASH_ACR_LATENCY) != FLatency)
 80039da:	4b3c      	ldr	r3, [pc, #240]	@ (8003acc <HAL_RCC_ClockConfig+0x160>)
 80039dc:	681a      	ldr	r2, [r3, #0]
 80039de:	2307      	movs	r3, #7
 80039e0:	4013      	ands	r3, r2
 80039e2:	42ab      	cmp	r3, r5
 80039e4:	d0ce      	beq.n	8003984 <HAL_RCC_ClockConfig+0x18>
      if ((HAL_GetTick() - tickstart) > RCC_CLOCKSWITCH_TIMEOUT_VALUE)
 80039e6:	f7ff f881 	bl	8002aec <HAL_GetTick>
 80039ea:	1b80      	subs	r0, r0, r6
 80039ec:	4a3b      	ldr	r2, [pc, #236]	@ (8003adc <HAL_RCC_ClockConfig+0x170>)
 80039ee:	4290      	cmp	r0, r2
 80039f0:	d9f3      	bls.n	80039da <HAL_RCC_ClockConfig+0x6e>
        return HAL_TIMEOUT;
 80039f2:	2003      	movs	r0, #3
 80039f4:	e04d      	b.n	8003a92 <HAL_RCC_ClockConfig+0x126>
      if (READ_BIT(RCC->CR, RCC_CR_HSERDY) == 0U)
 80039f6:	4a36      	ldr	r2, [pc, #216]	@ (8003ad0 <HAL_RCC_ClockConfig+0x164>)
 80039f8:	6812      	ldr	r2, [r2, #0]
 80039fa:	0392      	lsls	r2, r2, #14
 80039fc:	d563      	bpl.n	8003ac6 <HAL_RCC_ClockConfig+0x15a>
    MODIFY_REG(RCC->CFGR, RCC_CFGR_SW, RCC_ClkInitStruct->SYSCLKSource);
 80039fe:	4934      	ldr	r1, [pc, #208]	@ (8003ad0 <HAL_RCC_ClockConfig+0x164>)
 8003a00:	688a      	ldr	r2, [r1, #8]
 8003a02:	2007      	movs	r0, #7
 8003a04:	4382      	bics	r2, r0
 8003a06:	4313      	orrs	r3, r2
 8003a08:	608b      	str	r3, [r1, #8]
    tickstart = HAL_GetTick();
 8003a0a:	f7ff f86f 	bl	8002aec <HAL_GetTick>
 8003a0e:	0006      	movs	r6, r0
    while (__HAL_RCC_GET_SYSCLK_SOURCE() != (RCC_ClkInitStruct->SYSCLKSource << RCC_CFGR_SWS_Pos))
 8003a10:	4b2f      	ldr	r3, [pc, #188]	@ (8003ad0 <HAL_RCC_ClockConfig+0x164>)
 8003a12:	689b      	ldr	r3, [r3, #8]
 8003a14:	2238      	movs	r2, #56	@ 0x38
 8003a16:	401a      	ands	r2, r3
 8003a18:	6863      	ldr	r3, [r4, #4]
 8003a1a:	00db      	lsls	r3, r3, #3
 8003a1c:	429a      	cmp	r2, r3
 8003a1e:	d015      	beq.n	8003a4c <HAL_RCC_ClockConfig+0xe0>
      if ((HAL_GetTick() - tickstart) > RCC_CLOCKSWITCH_TIMEOUT_VALUE)
 8003a20:	f7ff f864 	bl	8002aec <HAL_GetTick>
 8003a24:	1b80      	subs	r0, r0, r6
 8003a26:	4b2d      	ldr	r3, [pc, #180]	@ (8003adc <HAL_RCC_ClockConfig+0x170>)
 8003a28:	4298      	cmp	r0, r3
 8003a2a:	d9f1      	bls.n	8003a10 <HAL_RCC_ClockConfig+0xa4>
        return HAL_TIMEOUT;
 8003a2c:	2003      	movs	r0, #3
 8003a2e:	e030      	b.n	8003a92 <HAL_RCC_ClockConfig+0x126>
    else if (RCC_ClkInitStruct->SYSCLKSource == RCC_SYSCLKSOURCE_LSI)
 8003a30:	2b03      	cmp	r3, #3
 8003a32:	d005      	beq.n	8003a40 <HAL_RCC_ClockConfig+0xd4>
      if (READ_BIT(RCC->CSR1, RCC_CSR1_LSERDY) == 0U)
 8003a34:	4a26      	ldr	r2, [pc, #152]	@ (8003ad0 <HAL_RCC_ClockConfig+0x164>)
 8003a36:	6dd2      	ldr	r2, [r2, #92]	@ 0x5c
 8003a38:	0792      	lsls	r2, r2, #30
 8003a3a:	d4e0      	bmi.n	80039fe <HAL_RCC_ClockConfig+0x92>
        return HAL_ERROR;
 8003a3c:	2001      	movs	r0, #1
 8003a3e:	e028      	b.n	8003a92 <HAL_RCC_ClockConfig+0x126>
      if (READ_BIT(RCC->CSR2, RCC_CSR2_LSIRDY) == 0U)
 8003a40:	4a23      	ldr	r2, [pc, #140]	@ (8003ad0 <HAL_RCC_ClockConfig+0x164>)
 8003a42:	6e12      	ldr	r2, [r2, #96]	@ 0x60
 8003a44:	0792      	lsls	r2, r2, #30
 8003a46:	d4da      	bmi.n	80039fe <HAL_RCC_ClockConfig+0x92>
        return HAL_ERROR;
 8003a48:	2001      	movs	r0, #1
 8003a4a:	e022      	b.n	8003a92 <HAL_RCC_ClockConfig+0x126>
  if (FLatency < __HAL_FLASH_GET_LATENCY())
 8003a4c:	4b1f      	ldr	r3, [pc, #124]	@ (8003acc <HAL_RCC_ClockConfig+0x160>)
 8003a4e:	681a      	ldr	r2, [r3, #0]
 8003a50:	2307      	movs	r3, #7
 8003a52:	4013      	ands	r3, r2
 8003a54:	42ab      	cmp	r3, r5
 8003a56:	d81d      	bhi.n	8003a94 <HAL_RCC_ClockConfig+0x128>
  if (((RCC_ClkInitStruct->ClockType) & RCC_CLOCKTYPE_PCLK1) == RCC_CLOCKTYPE_PCLK1)
 8003a58:	6823      	ldr	r3, [r4, #0]
 8003a5a:	075b      	lsls	r3, r3, #29
 8003a5c:	d506      	bpl.n	8003a6c <HAL_RCC_ClockConfig+0x100>
    MODIFY_REG(RCC->CFGR, RCC_CFGR_PPRE, RCC_ClkInitStruct->APB1CLKDivider);
 8003a5e:	4a1c      	ldr	r2, [pc, #112]	@ (8003ad0 <HAL_RCC_ClockConfig+0x164>)
 8003a60:	6893      	ldr	r3, [r2, #8]
 8003a62:	491f      	ldr	r1, [pc, #124]	@ (8003ae0 <HAL_RCC_ClockConfig+0x174>)
 8003a64:	400b      	ands	r3, r1
 8003a66:	6921      	ldr	r1, [r4, #16]
 8003a68:	430b      	orrs	r3, r1
 8003a6a:	6093      	str	r3, [r2, #8]
  SystemCoreClock = (HAL_RCC_GetSysClockFreq() >> ((AHBPrescTable[(RCC->CFGR & RCC_CFGR_HPRE) \
 8003a6c:	f7ff ff4e 	bl	800390c <HAL_RCC_GetSysClockFreq>
 8003a70:	4b17      	ldr	r3, [pc, #92]	@ (8003ad0 <HAL_RCC_ClockConfig+0x164>)
 8003a72:	689a      	ldr	r2, [r3, #8]
                                                                  >> RCC_CFGR_HPRE_Pos]) & 0x1FU));
 8003a74:	0a12      	lsrs	r2, r2, #8
 8003a76:	230f      	movs	r3, #15
 8003a78:	4013      	ands	r3, r2
  SystemCoreClock = (HAL_RCC_GetSysClockFreq() >> ((AHBPrescTable[(RCC->CFGR & RCC_CFGR_HPRE) \
 8003a7a:	4a1a      	ldr	r2, [pc, #104]	@ (8003ae4 <HAL_RCC_ClockConfig+0x178>)
 8003a7c:	009b      	lsls	r3, r3, #2
 8003a7e:	589a      	ldr	r2, [r3, r2]
                                                                  >> RCC_CFGR_HPRE_Pos]) & 0x1FU));
 8003a80:	231f      	movs	r3, #31
 8003a82:	4013      	ands	r3, r2
  SystemCoreClock = (HAL_RCC_GetSysClockFreq() >> ((AHBPrescTable[(RCC->CFGR & RCC_CFGR_HPRE) \
 8003a84:	40d8      	lsrs	r0, r3
 8003a86:	4b18      	ldr	r3, [pc, #96]	@ (8003ae8 <HAL_RCC_ClockConfig+0x17c>)
 8003a88:	6018      	str	r0, [r3, #0]
  return HAL_InitTick(uwTickPrio);
 8003a8a:	4b18      	ldr	r3, [pc, #96]	@ (8003aec <HAL_RCC_ClockConfig+0x180>)
 8003a8c:	6818      	ldr	r0, [r3, #0]
 8003a8e:	f7fe ffe9 	bl	8002a64 <HAL_InitTick>
}
 8003a92:	bd70      	pop	{r4, r5, r6, pc}
    __HAL_FLASH_SET_LATENCY(FLatency);
 8003a94:	4a0d      	ldr	r2, [pc, #52]	@ (8003acc <HAL_RCC_ClockConfig+0x160>)
 8003a96:	6813      	ldr	r3, [r2, #0]
 8003a98:	2107      	movs	r1, #7
 8003a9a:	438b      	bics	r3, r1
 8003a9c:	432b      	orrs	r3, r5
 8003a9e:	6013      	str	r3, [r2, #0]
    tickstart = HAL_GetTick();
 8003aa0:	f7ff f824 	bl	8002aec <HAL_GetTick>
 8003aa4:	0006      	movs	r6, r0
    while ((FLASH->ACR & FLASH_ACR_LATENCY) != FLatency)
 8003aa6:	4b09      	ldr	r3, [pc, #36]	@ (8003acc <HAL_RCC_ClockConfig+0x160>)
 8003aa8:	681a      	ldr	r2, [r3, #0]
 8003aaa:	2307      	movs	r3, #7
 8003aac:	4013      	ands	r3, r2
 8003aae:	42ab      	cmp	r3, r5
 8003ab0:	d0d2      	beq.n	8003a58 <HAL_RCC_ClockConfig+0xec>
      if ((HAL_GetTick() - tickstart) > RCC_CLOCKSWITCH_TIMEOUT_VALUE)
 8003ab2:	f7ff f81b 	bl	8002aec <HAL_GetTick>
 8003ab6:	1b80      	subs	r0, r0, r6
 8003ab8:	4b08      	ldr	r3, [pc, #32]	@ (8003adc <HAL_RCC_ClockConfig+0x170>)
 8003aba:	4298      	cmp	r0, r3
 8003abc:	d9f3      	bls.n	8003aa6 <HAL_RCC_ClockConfig+0x13a>
        return HAL_TIMEOUT;
 8003abe:	2003      	movs	r0, #3
 8003ac0:	e7e7      	b.n	8003a92 <HAL_RCC_ClockConfig+0x126>
    return HAL_ERROR;
 8003ac2:	2001      	movs	r0, #1
 8003ac4:	e7e5      	b.n	8003a92 <HAL_RCC_ClockConfig+0x126>
        return HAL_ERROR;
 8003ac6:	2001      	movs	r0, #1
 8003ac8:	e7e3      	b.n	8003a92 <HAL_RCC_ClockConfig+0x126>
 8003aca:	46c0      	nop			@ (mov r8, r8)
 8003acc:	40022000 	.word	0x40022000
 8003ad0:	40021000 	.word	0x40021000
 8003ad4:	ffff84ff 	.word	0xffff84ff
 8003ad8:	fffff0ff 	.word	0xfffff0ff
 8003adc:	00001388 	.word	0x00001388
 8003ae0:	ffff8fff 	.word	0xffff8fff
 8003ae4:	08005a94 	.word	0x08005a94
 8003ae8:	20000020 	.word	0x20000020
 8003aec:	20000028 	.word	0x20000028

08003af0 <HAL_RCC_GetHCLKFreq>:
  *
  * @note   The SystemCoreClock CMSIS variable is used to store System Clock Frequency.
  * @retval HCLK frequency in Hz
  */
uint32_t HAL_RCC_GetHCLKFreq(void)
{
 8003af0:	b510      	push	{r4, lr}
  SystemCoreClock = (HAL_RCC_GetSysClockFreq() >> ((AHBPrescTable[(RCC->CFGR & RCC_CFGR_HPRE) \
 8003af2:	f7ff ff0b 	bl	800390c <HAL_RCC_GetSysClockFreq>
 8003af6:	4b07      	ldr	r3, [pc, #28]	@ (8003b14 <HAL_RCC_GetHCLKFreq+0x24>)
 8003af8:	689a      	ldr	r2, [r3, #8]
                                                                  >> RCC_CFGR_HPRE_Pos]) & 0x1FU));
 8003afa:	0a12      	lsrs	r2, r2, #8
 8003afc:	230f      	movs	r3, #15
 8003afe:	4013      	ands	r3, r2
  SystemCoreClock = (HAL_RCC_GetSysClockFreq() >> ((AHBPrescTable[(RCC->CFGR & RCC_CFGR_HPRE) \
 8003b00:	4a05      	ldr	r2, [pc, #20]	@ (8003b18 <HAL_RCC_GetHCLKFreq+0x28>)
 8003b02:	009b      	lsls	r3, r3, #2
 8003b04:	589a      	ldr	r2, [r3, r2]
                                                                  >> RCC_CFGR_HPRE_Pos]) & 0x1FU));
 8003b06:	231f      	movs	r3, #31
 8003b08:	4013      	ands	r3, r2
  SystemCoreClock = (HAL_RCC_GetSysClockFreq() >> ((AHBPrescTable[(RCC->CFGR & RCC_CFGR_HPRE) \
 8003b0a:	40d8      	lsrs	r0, r3
 8003b0c:	4b03      	ldr	r3, [pc, #12]	@ (8003b1c <HAL_RCC_GetHCLKFreq+0x2c>)
 8003b0e:	6018      	str	r0, [r3, #0]
  return SystemCoreClock;
}
 8003b10:	bd10      	pop	{r4, pc}
 8003b12:	46c0      	nop			@ (mov r8, r8)
 8003b14:	40021000 	.word	0x40021000
 8003b18:	08005a94 	.word	0x08005a94
 8003b1c:	20000020 	.word	0x20000020

08003b20 <HAL_RCC_GetPCLK1Freq>:
  * @note   Each time PCLK1 changes, this function must be called to update the
  *         right PCLK1 value. Otherwise, any configuration based on this function will be incorrect.
  * @retval PCLK1 frequency in Hz
  */
uint32_t HAL_RCC_GetPCLK1Freq(void)
{
 8003b20:	b510      	push	{r4, lr}
  /* Get HCLK source and Compute PCLK1 frequency ---------------------------*/
  return (HAL_RCC_GetHCLKFreq() >> ((APBPrescTable[(RCC->CFGR & RCC_CFGR_PPRE) >> RCC_CFGR_PPRE_Pos]) & 0x1FU));
 8003b22:	f7ff ffe5 	bl	8003af0 <HAL_RCC_GetHCLKFreq>
 8003b26:	4b06      	ldr	r3, [pc, #24]	@ (8003b40 <HAL_RCC_GetPCLK1Freq+0x20>)
 8003b28:	689a      	ldr	r2, [r3, #8]
 8003b2a:	0b12      	lsrs	r2, r2, #12
 8003b2c:	2307      	movs	r3, #7
 8003b2e:	4013      	ands	r3, r2
 8003b30:	4a04      	ldr	r2, [pc, #16]	@ (8003b44 <HAL_RCC_GetPCLK1Freq+0x24>)
 8003b32:	009b      	lsls	r3, r3, #2
 8003b34:	589a      	ldr	r2, [r3, r2]
 8003b36:	231f      	movs	r3, #31
 8003b38:	4013      	ands	r3, r2
 8003b3a:	40d8      	lsrs	r0, r3
}
 8003b3c:	bd10      	pop	{r4, pc}
 8003b3e:	46c0      	nop			@ (mov r8, r8)
 8003b40:	40021000 	.word	0x40021000
 8003b44:	08005a74 	.word	0x08005a74

08003b48 <HAL_RCCEx_PeriphCLKConfig>:
  * @note (*) not available on all devices
  *
  * @retval HAL status
  */
HAL_StatusTypeDef HAL_RCCEx_PeriphCLKConfig(const RCC_PeriphCLKInitTypeDef  *PeriphClkInit)
{
 8003b48:	b570      	push	{r4, r5, r6, lr}
 8003b4a:	b082      	sub	sp, #8
 8003b4c:	0004      	movs	r4, r0

  /* Check the parameters */
  assert_param(IS_RCC_PERIPHCLOCK(PeriphClkInit->PeriphClockSelection));

  /*-------------------------- RTC clock source configuration ----------------------*/
  if ((PeriphClkInit->PeriphClockSelection & RCC_PERIPHCLK_RTC) == RCC_PERIPHCLK_RTC)
 8003b4e:	6803      	ldr	r3, [r0, #0]
 8003b50:	065b      	lsls	r3, r3, #25
 8003b52:	d550      	bpl.n	8003bf6 <HAL_RCCEx_PeriphCLKConfig+0xae>

    /* Check for RTC Parameters used to output RTCCLK */
    assert_param(IS_RCC_RTCCLKSOURCE(PeriphClkInit->RTCClockSelection));

    /* Enable Power Clock */
    if (__HAL_RCC_PWR_IS_CLK_DISABLED())
 8003b54:	4b42      	ldr	r3, [pc, #264]	@ (8003c60 <HAL_RCCEx_PeriphCLKConfig+0x118>)
 8003b56:	6bdb      	ldr	r3, [r3, #60]	@ 0x3c
 8003b58:	00db      	lsls	r3, r3, #3
 8003b5a:	d435      	bmi.n	8003bc8 <HAL_RCCEx_PeriphCLKConfig+0x80>
    {
      __HAL_RCC_PWR_CLK_ENABLE();
 8003b5c:	4b40      	ldr	r3, [pc, #256]	@ (8003c60 <HAL_RCCEx_PeriphCLKConfig+0x118>)
 8003b5e:	6bda      	ldr	r2, [r3, #60]	@ 0x3c
 8003b60:	2180      	movs	r1, #128	@ 0x80
 8003b62:	0549      	lsls	r1, r1, #21
 8003b64:	430a      	orrs	r2, r1
 8003b66:	63da      	str	r2, [r3, #60]	@ 0x3c
 8003b68:	6bdb      	ldr	r3, [r3, #60]	@ 0x3c
 8003b6a:	400b      	ands	r3, r1
 8003b6c:	9301      	str	r3, [sp, #4]
 8003b6e:	9b01      	ldr	r3, [sp, #4]
      pwrclkchanged = SET;
 8003b70:	2501      	movs	r5, #1
    }


    /* Reset the RTC domain only if the RTC Clock source selection is modified from default */
    tmpregister = READ_BIT(RCC->CSR1, RCC_CSR1_RTCSEL);
 8003b72:	4b3b      	ldr	r3, [pc, #236]	@ (8003c60 <HAL_RCCEx_PeriphCLKConfig+0x118>)
 8003b74:	6dd9      	ldr	r1, [r3, #92]	@ 0x5c
 8003b76:	22c0      	movs	r2, #192	@ 0xc0
 8003b78:	0092      	lsls	r2, r2, #2
 8003b7a:	000b      	movs	r3, r1
 8003b7c:	4013      	ands	r3, r2

    /* Reset the RTC domain only if the RTC Clock source selection is modified */
    if ((tmpregister != RCC_RTCCLKSOURCE_NONE) && (tmpregister != PeriphClkInit->RTCClockSelection))
 8003b7e:	4211      	tst	r1, r2
 8003b80:	d035      	beq.n	8003bee <HAL_RCCEx_PeriphCLKConfig+0xa6>
 8003b82:	69a2      	ldr	r2, [r4, #24]
 8003b84:	429a      	cmp	r2, r3
 8003b86:	d00d      	beq.n	8003ba4 <HAL_RCCEx_PeriphCLKConfig+0x5c>
    {
      /* Store the content of CSR1 register before the reset of RTC Domain */
      tmpregister = READ_BIT(RCC->CSR1, ~(RCC_CSR1_RTCSEL));
 8003b88:	4a35      	ldr	r2, [pc, #212]	@ (8003c60 <HAL_RCCEx_PeriphCLKConfig+0x118>)
 8003b8a:	6dd3      	ldr	r3, [r2, #92]	@ 0x5c
 8003b8c:	4935      	ldr	r1, [pc, #212]	@ (8003c64 <HAL_RCCEx_PeriphCLKConfig+0x11c>)
 8003b8e:	400b      	ands	r3, r1
      /* RTC Clock selection can be changed only if the RTC Domain is reset */
      __HAL_RCC_BACKUPRESET_FORCE();
 8003b90:	6dd0      	ldr	r0, [r2, #92]	@ 0x5c
 8003b92:	2180      	movs	r1, #128	@ 0x80
 8003b94:	0249      	lsls	r1, r1, #9
 8003b96:	4301      	orrs	r1, r0
 8003b98:	65d1      	str	r1, [r2, #92]	@ 0x5c
      __HAL_RCC_BACKUPRESET_RELEASE();
 8003b9a:	6dd1      	ldr	r1, [r2, #92]	@ 0x5c
 8003b9c:	4832      	ldr	r0, [pc, #200]	@ (8003c68 <HAL_RCCEx_PeriphCLKConfig+0x120>)
 8003b9e:	4001      	ands	r1, r0
 8003ba0:	65d1      	str	r1, [r2, #92]	@ 0x5c
      /* Restore the Content of CSR1 register */
      RCC->CSR1 = tmpregister;
 8003ba2:	65d3      	str	r3, [r2, #92]	@ 0x5c
    }

    /* Wait for LSE reactivation if LSE was enable prior to RTC Domain reset */
    if (HAL_IS_BIT_SET(tmpregister, RCC_CSR1_LSEON))
 8003ba4:	07db      	lsls	r3, r3, #31
 8003ba6:	d411      	bmi.n	8003bcc <HAL_RCCEx_PeriphCLKConfig+0x84>
    }

    if (ret == HAL_OK)
    {
      /* Apply new RTC clock source selection */
      __HAL_RCC_RTC_CONFIG(PeriphClkInit->RTCClockSelection);
 8003ba8:	4a2d      	ldr	r2, [pc, #180]	@ (8003c60 <HAL_RCCEx_PeriphCLKConfig+0x118>)
 8003baa:	6dd3      	ldr	r3, [r2, #92]	@ 0x5c
 8003bac:	492d      	ldr	r1, [pc, #180]	@ (8003c64 <HAL_RCCEx_PeriphCLKConfig+0x11c>)
 8003bae:	400b      	ands	r3, r1
 8003bb0:	69a1      	ldr	r1, [r4, #24]
 8003bb2:	430b      	orrs	r3, r1
 8003bb4:	65d3      	str	r3, [r2, #92]	@ 0x5c
  HAL_StatusTypeDef status = HAL_OK;   /* Final status */
 8003bb6:	2000      	movs	r0, #0
      /* set overall return value */
      status = ret;
    }

    /* Restore clock configuration if changed */
    if (pwrclkchanged == SET)
 8003bb8:	2d01      	cmp	r5, #1
 8003bba:	d11d      	bne.n	8003bf8 <HAL_RCCEx_PeriphCLKConfig+0xb0>
    {
      __HAL_RCC_PWR_CLK_DISABLE();
 8003bbc:	4a28      	ldr	r2, [pc, #160]	@ (8003c60 <HAL_RCCEx_PeriphCLKConfig+0x118>)
 8003bbe:	6bd3      	ldr	r3, [r2, #60]	@ 0x3c
 8003bc0:	492a      	ldr	r1, [pc, #168]	@ (8003c6c <HAL_RCCEx_PeriphCLKConfig+0x124>)
 8003bc2:	400b      	ands	r3, r1
 8003bc4:	63d3      	str	r3, [r2, #60]	@ 0x3c
 8003bc6:	e017      	b.n	8003bf8 <HAL_RCCEx_PeriphCLKConfig+0xb0>
    FlagStatus       pwrclkchanged = RESET;
 8003bc8:	2500      	movs	r5, #0
 8003bca:	e7d2      	b.n	8003b72 <HAL_RCCEx_PeriphCLKConfig+0x2a>
      tickstart = HAL_GetTick();
 8003bcc:	f7fe ff8e 	bl	8002aec <HAL_GetTick>
 8003bd0:	0006      	movs	r6, r0
      while (READ_BIT(RCC->CSR1, RCC_CSR1_LSERDY) == 0U)
 8003bd2:	4b23      	ldr	r3, [pc, #140]	@ (8003c60 <HAL_RCCEx_PeriphCLKConfig+0x118>)
 8003bd4:	6ddb      	ldr	r3, [r3, #92]	@ 0x5c
 8003bd6:	079b      	lsls	r3, r3, #30
 8003bd8:	d407      	bmi.n	8003bea <HAL_RCCEx_PeriphCLKConfig+0xa2>
        if ((HAL_GetTick() - tickstart) > RCC_LSE_TIMEOUT_VALUE)
 8003bda:	f7fe ff87 	bl	8002aec <HAL_GetTick>
 8003bde:	1b80      	subs	r0, r0, r6
 8003be0:	4b23      	ldr	r3, [pc, #140]	@ (8003c70 <HAL_RCCEx_PeriphCLKConfig+0x128>)
 8003be2:	4298      	cmp	r0, r3
 8003be4:	d9f5      	bls.n	8003bd2 <HAL_RCCEx_PeriphCLKConfig+0x8a>
          ret = HAL_TIMEOUT;
 8003be6:	2003      	movs	r0, #3
 8003be8:	e002      	b.n	8003bf0 <HAL_RCCEx_PeriphCLKConfig+0xa8>
  HAL_StatusTypeDef ret    = HAL_OK;   /* Intermediate status */
 8003bea:	2000      	movs	r0, #0
 8003bec:	e000      	b.n	8003bf0 <HAL_RCCEx_PeriphCLKConfig+0xa8>
 8003bee:	2000      	movs	r0, #0
    if (ret == HAL_OK)
 8003bf0:	2800      	cmp	r0, #0
 8003bf2:	d1e1      	bne.n	8003bb8 <HAL_RCCEx_PeriphCLKConfig+0x70>
 8003bf4:	e7d8      	b.n	8003ba8 <HAL_RCCEx_PeriphCLKConfig+0x60>
  HAL_StatusTypeDef status = HAL_OK;   /* Final status */
 8003bf6:	2000      	movs	r0, #0
    }
  }

  /*-------------------------- USART1 clock source configuration -------------------*/
  if (((PeriphClkInit->PeriphClockSelection) & RCC_PERIPHCLK_USART1) == RCC_PERIPHCLK_USART1)
 8003bf8:	6823      	ldr	r3, [r4, #0]
 8003bfa:	07db      	lsls	r3, r3, #31
 8003bfc:	d506      	bpl.n	8003c0c <HAL_RCCEx_PeriphCLKConfig+0xc4>
  {
    /* Check the parameters */
    assert_param(IS_RCC_USART1CLKSOURCE(PeriphClkInit->Usart1ClockSelection));

    /* Configure the USART1 clock source */
    __HAL_RCC_USART1_CONFIG(PeriphClkInit->Usart1ClockSelection);
 8003bfe:	4a18      	ldr	r2, [pc, #96]	@ (8003c60 <HAL_RCCEx_PeriphCLKConfig+0x118>)
 8003c00:	6d53      	ldr	r3, [r2, #84]	@ 0x54
 8003c02:	2103      	movs	r1, #3
 8003c04:	438b      	bics	r3, r1
 8003c06:	68a1      	ldr	r1, [r4, #8]
 8003c08:	430b      	orrs	r3, r1
 8003c0a:	6553      	str	r3, [r2, #84]	@ 0x54
  }

  /*-------------------------- I2C1 clock source configuration ---------------------*/
  if (((PeriphClkInit->PeriphClockSelection) & RCC_PERIPHCLK_I2C1) == RCC_PERIPHCLK_I2C1)
 8003c0c:	6823      	ldr	r3, [r4, #0]
 8003c0e:	079b      	lsls	r3, r3, #30
 8003c10:	d506      	bpl.n	8003c20 <HAL_RCCEx_PeriphCLKConfig+0xd8>
  {
    /* Check the parameters */
    assert_param(IS_RCC_I2C1CLKSOURCE(PeriphClkInit->I2c1ClockSelection));

    /* Configure the I2C1 clock source */
    __HAL_RCC_I2C1_CONFIG(PeriphClkInit->I2c1ClockSelection);
 8003c12:	4a13      	ldr	r2, [pc, #76]	@ (8003c60 <HAL_RCCEx_PeriphCLKConfig+0x118>)
 8003c14:	6d53      	ldr	r3, [r2, #84]	@ 0x54
 8003c16:	4917      	ldr	r1, [pc, #92]	@ (8003c74 <HAL_RCCEx_PeriphCLKConfig+0x12c>)
 8003c18:	400b      	ands	r3, r1
 8003c1a:	68e1      	ldr	r1, [r4, #12]
 8003c1c:	430b      	orrs	r3, r1
 8003c1e:	6553      	str	r3, [r2, #84]	@ 0x54
  }

  /*-------------------------- ADC clock source configuration ----------------------*/
  if (((PeriphClkInit->PeriphClockSelection) & RCC_PERIPHCLK_ADC) == RCC_PERIPHCLK_ADC)
 8003c20:	6823      	ldr	r3, [r4, #0]
 8003c22:	069b      	lsls	r3, r3, #26
 8003c24:	d506      	bpl.n	8003c34 <HAL_RCCEx_PeriphCLKConfig+0xec>
  {
    /* Check the parameters */
    assert_param(IS_RCC_ADCCLKSOURCE(PeriphClkInit->AdcClockSelection));

    /* Configure the ADC interface clock source */
    __HAL_RCC_ADC_CONFIG(PeriphClkInit->AdcClockSelection);
 8003c26:	4a0e      	ldr	r2, [pc, #56]	@ (8003c60 <HAL_RCCEx_PeriphCLKConfig+0x118>)
 8003c28:	6d53      	ldr	r3, [r2, #84]	@ 0x54
 8003c2a:	009b      	lsls	r3, r3, #2
 8003c2c:	089b      	lsrs	r3, r3, #2
 8003c2e:	6961      	ldr	r1, [r4, #20]
 8003c30:	430b      	orrs	r3, r1
 8003c32:	6553      	str	r3, [r2, #84]	@ 0x54
    __HAL_RCC_FDCAN1_CONFIG(PeriphClkInit->Fdcan1ClockSelection);

  }
#endif /* FDCAN1 */
  /*-------------------------- I2S1 clock source configuration ---------------------*/
  if (((PeriphClkInit->PeriphClockSelection) & RCC_PERIPHCLK_I2S1) == RCC_PERIPHCLK_I2S1)
 8003c34:	6823      	ldr	r3, [r4, #0]
 8003c36:	075b      	lsls	r3, r3, #29
 8003c38:	d506      	bpl.n	8003c48 <HAL_RCCEx_PeriphCLKConfig+0x100>
  {
    /* Check the parameters */
    assert_param(IS_RCC_I2S1CLKSOURCE(PeriphClkInit->I2s1ClockSelection));

    /* Configure the I2S1 clock source */
    __HAL_RCC_I2S1_CONFIG(PeriphClkInit->I2s1ClockSelection);
 8003c3a:	4a09      	ldr	r2, [pc, #36]	@ (8003c60 <HAL_RCCEx_PeriphCLKConfig+0x118>)
 8003c3c:	6d53      	ldr	r3, [r2, #84]	@ 0x54
 8003c3e:	490e      	ldr	r1, [pc, #56]	@ (8003c78 <HAL_RCCEx_PeriphCLKConfig+0x130>)
 8003c40:	400b      	ands	r3, r1
 8003c42:	6921      	ldr	r1, [r4, #16]
 8003c44:	430b      	orrs	r3, r1
 8003c46:	6553      	str	r3, [r2, #84]	@ 0x54
  }
  /*------------------------------------ HSI Kernel clock source configuration --------------------------------------*/
  if (((PeriphClkInit->PeriphClockSelection) & RCC_PERIPHCLK_HSIKER) == RCC_PERIPHCLK_HSIKER)
 8003c48:	6823      	ldr	r3, [r4, #0]
 8003c4a:	061b      	lsls	r3, r3, #24
 8003c4c:	d506      	bpl.n	8003c5c <HAL_RCCEx_PeriphCLKConfig+0x114>
  {
    /* Check the parameters */
    assert_param(IS_RCC_HSIKERDIV(PeriphClkInit->HSIKerClockDivider));

    /* Configure the HSI Kernel clock source Divider */
    __HAL_RCC_HSIKER_CONFIG(PeriphClkInit->HSIKerClockDivider);
 8003c4e:	4a04      	ldr	r2, [pc, #16]	@ (8003c60 <HAL_RCCEx_PeriphCLKConfig+0x118>)
 8003c50:	6813      	ldr	r3, [r2, #0]
 8003c52:	21e0      	movs	r1, #224	@ 0xe0
 8003c54:	438b      	bics	r3, r1
 8003c56:	6861      	ldr	r1, [r4, #4]
 8003c58:	430b      	orrs	r3, r1
 8003c5a:	6013      	str	r3, [r2, #0]
  }
  return status;
}
 8003c5c:	b002      	add	sp, #8
 8003c5e:	bd70      	pop	{r4, r5, r6, pc}
 8003c60:	40021000 	.word	0x40021000
 8003c64:	fffffcff 	.word	0xfffffcff
 8003c68:	fffeffff 	.word	0xfffeffff
 8003c6c:	efffffff 	.word	0xefffffff
 8003c70:	00001388 	.word	0x00001388
 8003c74:	ffffcfff 	.word	0xffffcfff
 8003c78:	ffff3fff 	.word	0xffff3fff

08003c7c <HAL_TIM_Base_Start_IT>:

  /* Check the parameters */
  assert_param(IS_TIM_INSTANCE(htim->Instance));

  /* Check the TIM state */
  if (htim->State != HAL_TIM_STATE_READY)
 8003c7c:	233d      	movs	r3, #61	@ 0x3d
 8003c7e:	5cc3      	ldrb	r3, [r0, r3]
 8003c80:	2b01      	cmp	r3, #1
 8003c82:	d122      	bne.n	8003cca <HAL_TIM_Base_Start_IT+0x4e>
  {
    return HAL_ERROR;
  }

  /* Set the TIM state */
  htim->State = HAL_TIM_STATE_BUSY;
 8003c84:	333c      	adds	r3, #60	@ 0x3c
 8003c86:	2202      	movs	r2, #2
 8003c88:	54c2      	strb	r2, [r0, r3]

  /* Enable the TIM Update interrupt */
  __HAL_TIM_ENABLE_IT(htim, TIM_IT_UPDATE);
 8003c8a:	6802      	ldr	r2, [r0, #0]
 8003c8c:	68d3      	ldr	r3, [r2, #12]
 8003c8e:	2101      	movs	r1, #1
 8003c90:	430b      	orrs	r3, r1
 8003c92:	60d3      	str	r3, [r2, #12]

  /* Enable the Peripheral, except in trigger mode where enable is automatically done with trigger */
  if (IS_TIM_SLAVE_INSTANCE(htim->Instance))
 8003c94:	6803      	ldr	r3, [r0, #0]
 8003c96:	4a10      	ldr	r2, [pc, #64]	@ (8003cd8 <HAL_TIM_Base_Start_IT+0x5c>)
 8003c98:	4293      	cmp	r3, r2
 8003c9a:	d008      	beq.n	8003cae <HAL_TIM_Base_Start_IT+0x32>
 8003c9c:	4a0f      	ldr	r2, [pc, #60]	@ (8003cdc <HAL_TIM_Base_Start_IT+0x60>)
 8003c9e:	4293      	cmp	r3, r2
 8003ca0:	d005      	beq.n	8003cae <HAL_TIM_Base_Start_IT+0x32>
      __HAL_TIM_ENABLE(htim);
    }
  }
  else
  {
    __HAL_TIM_ENABLE(htim);
 8003ca2:	681a      	ldr	r2, [r3, #0]
 8003ca4:	2101      	movs	r1, #1
 8003ca6:	430a      	orrs	r2, r1
 8003ca8:	601a      	str	r2, [r3, #0]
  }

  /* Return function status */
  return HAL_OK;
 8003caa:	2000      	movs	r0, #0
 8003cac:	e00e      	b.n	8003ccc <HAL_TIM_Base_Start_IT+0x50>
    tmpsmcr = htim->Instance->SMCR & TIM_SMCR_SMS;
 8003cae:	689a      	ldr	r2, [r3, #8]
 8003cb0:	490b      	ldr	r1, [pc, #44]	@ (8003ce0 <HAL_TIM_Base_Start_IT+0x64>)
 8003cb2:	400a      	ands	r2, r1
    if (!IS_TIM_SLAVEMODE_TRIGGER_ENABLED(tmpsmcr))
 8003cb4:	2a06      	cmp	r2, #6
 8003cb6:	d00a      	beq.n	8003cce <HAL_TIM_Base_Start_IT+0x52>
 8003cb8:	3907      	subs	r1, #7
 8003cba:	428a      	cmp	r2, r1
 8003cbc:	d009      	beq.n	8003cd2 <HAL_TIM_Base_Start_IT+0x56>
      __HAL_TIM_ENABLE(htim);
 8003cbe:	681a      	ldr	r2, [r3, #0]
 8003cc0:	2101      	movs	r1, #1
 8003cc2:	430a      	orrs	r2, r1
 8003cc4:	601a      	str	r2, [r3, #0]
  return HAL_OK;
 8003cc6:	2000      	movs	r0, #0
 8003cc8:	e000      	b.n	8003ccc <HAL_TIM_Base_Start_IT+0x50>
    return HAL_ERROR;
 8003cca:	2001      	movs	r0, #1
}
 8003ccc:	4770      	bx	lr
  return HAL_OK;
 8003cce:	2000      	movs	r0, #0
 8003cd0:	e7fc      	b.n	8003ccc <HAL_TIM_Base_Start_IT+0x50>
 8003cd2:	2000      	movs	r0, #0
 8003cd4:	e7fa      	b.n	8003ccc <HAL_TIM_Base_Start_IT+0x50>
 8003cd6:	46c0      	nop			@ (mov r8, r8)
 8003cd8:	40012c00 	.word	0x40012c00
 8003cdc:	40000400 	.word	0x40000400
 8003ce0:	00010007 	.word	0x00010007

08003ce4 <HAL_TIM_Base_Stop_IT>:
{
  /* Check the parameters */
  assert_param(IS_TIM_INSTANCE(htim->Instance));

  /* Disable the TIM Update interrupt */
  __HAL_TIM_DISABLE_IT(htim, TIM_IT_UPDATE);
 8003ce4:	6802      	ldr	r2, [r0, #0]
 8003ce6:	68d3      	ldr	r3, [r2, #12]
 8003ce8:	2101      	movs	r1, #1
 8003cea:	438b      	bics	r3, r1
 8003cec:	60d3      	str	r3, [r2, #12]

  /* Disable the Peripheral */
  __HAL_TIM_DISABLE(htim);
 8003cee:	6803      	ldr	r3, [r0, #0]
 8003cf0:	6a19      	ldr	r1, [r3, #32]
 8003cf2:	4a08      	ldr	r2, [pc, #32]	@ (8003d14 <HAL_TIM_Base_Stop_IT+0x30>)
 8003cf4:	4211      	tst	r1, r2
 8003cf6:	d107      	bne.n	8003d08 <HAL_TIM_Base_Stop_IT+0x24>
 8003cf8:	6a19      	ldr	r1, [r3, #32]
 8003cfa:	4a07      	ldr	r2, [pc, #28]	@ (8003d18 <HAL_TIM_Base_Stop_IT+0x34>)
 8003cfc:	4211      	tst	r1, r2
 8003cfe:	d103      	bne.n	8003d08 <HAL_TIM_Base_Stop_IT+0x24>
 8003d00:	681a      	ldr	r2, [r3, #0]
 8003d02:	2101      	movs	r1, #1
 8003d04:	438a      	bics	r2, r1
 8003d06:	601a      	str	r2, [r3, #0]

  /* Set the TIM state */
  htim->State = HAL_TIM_STATE_READY;
 8003d08:	233d      	movs	r3, #61	@ 0x3d
 8003d0a:	2201      	movs	r2, #1
 8003d0c:	54c2      	strb	r2, [r0, r3]

  /* Return function status */
  return HAL_OK;
}
 8003d0e:	2000      	movs	r0, #0
 8003d10:	4770      	bx	lr
 8003d12:	46c0      	nop			@ (mov r8, r8)
 8003d14:	00001111 	.word	0x00001111
 8003d18:	00000444 	.word	0x00000444

08003d1c <HAL_TIM_OC_DelayElapsedCallback>:
  UNUSED(htim);

  /* NOTE : This function should not be modified, when the callback is needed,
            the HAL_TIM_OC_DelayElapsedCallback could be implemented in the user file
   */
}
 8003d1c:	4770      	bx	lr

08003d1e <HAL_TIM_IC_CaptureCallback>:
  UNUSED(htim);

  /* NOTE : This function should not be modified, when the callback is needed,
            the HAL_TIM_IC_CaptureCallback could be implemented in the user file
   */
}
 8003d1e:	4770      	bx	lr

08003d20 <HAL_TIM_PWM_PulseFinishedCallback>:
  UNUSED(htim);

  /* NOTE : This function should not be modified, when the callback is needed,
            the HAL_TIM_PWM_PulseFinishedCallback could be implemented in the user file
   */
}
 8003d20:	4770      	bx	lr

08003d22 <HAL_TIM_TriggerCallback>:
  UNUSED(htim);

  /* NOTE : This function should not be modified, when the callback is needed,
            the HAL_TIM_TriggerCallback could be implemented in the user file
   */
}
 8003d22:	4770      	bx	lr

08003d24 <HAL_TIM_IRQHandler>:
{
 8003d24:	b570      	push	{r4, r5, r6, lr}
 8003d26:	0005      	movs	r5, r0
  uint32_t itsource = htim->Instance->DIER;
 8003d28:	6803      	ldr	r3, [r0, #0]
 8003d2a:	68de      	ldr	r6, [r3, #12]
  uint32_t itflag   = htim->Instance->SR;
 8003d2c:	691c      	ldr	r4, [r3, #16]
  if ((itflag & (TIM_FLAG_CC1)) == (TIM_FLAG_CC1))
 8003d2e:	07a2      	lsls	r2, r4, #30
 8003d30:	d50e      	bpl.n	8003d50 <HAL_TIM_IRQHandler+0x2c>
    if ((itsource & (TIM_IT_CC1)) == (TIM_IT_CC1))
 8003d32:	07b2      	lsls	r2, r6, #30
 8003d34:	d50c      	bpl.n	8003d50 <HAL_TIM_IRQHandler+0x2c>
        __HAL_TIM_CLEAR_FLAG(htim, TIM_FLAG_CC1);
 8003d36:	2203      	movs	r2, #3
 8003d38:	4252      	negs	r2, r2
 8003d3a:	611a      	str	r2, [r3, #16]
        htim->Channel = HAL_TIM_ACTIVE_CHANNEL_1;
 8003d3c:	2301      	movs	r3, #1
 8003d3e:	7703      	strb	r3, [r0, #28]
        if ((htim->Instance->CCMR1 & TIM_CCMR1_CC1S) != 0x00U)
 8003d40:	6803      	ldr	r3, [r0, #0]
 8003d42:	699b      	ldr	r3, [r3, #24]
 8003d44:	079b      	lsls	r3, r3, #30
 8003d46:	d057      	beq.n	8003df8 <HAL_TIM_IRQHandler+0xd4>
          HAL_TIM_IC_CaptureCallback(htim);
 8003d48:	f7ff ffe9 	bl	8003d1e <HAL_TIM_IC_CaptureCallback>
        htim->Channel = HAL_TIM_ACTIVE_CHANNEL_CLEARED;
 8003d4c:	2300      	movs	r3, #0
 8003d4e:	772b      	strb	r3, [r5, #28]
  if ((itflag & (TIM_FLAG_CC2)) == (TIM_FLAG_CC2))
 8003d50:	0763      	lsls	r3, r4, #29
 8003d52:	d512      	bpl.n	8003d7a <HAL_TIM_IRQHandler+0x56>
    if ((itsource & (TIM_IT_CC2)) == (TIM_IT_CC2))
 8003d54:	0773      	lsls	r3, r6, #29
 8003d56:	d510      	bpl.n	8003d7a <HAL_TIM_IRQHandler+0x56>
      __HAL_TIM_CLEAR_FLAG(htim, TIM_FLAG_CC2);
 8003d58:	682b      	ldr	r3, [r5, #0]
 8003d5a:	2205      	movs	r2, #5
 8003d5c:	4252      	negs	r2, r2
 8003d5e:	611a      	str	r2, [r3, #16]
      htim->Channel = HAL_TIM_ACTIVE_CHANNEL_2;
 8003d60:	2302      	movs	r3, #2
 8003d62:	772b      	strb	r3, [r5, #28]
      if ((htim->Instance->CCMR1 & TIM_CCMR1_CC2S) != 0x00U)
 8003d64:	682b      	ldr	r3, [r5, #0]
 8003d66:	699a      	ldr	r2, [r3, #24]
 8003d68:	23c0      	movs	r3, #192	@ 0xc0
 8003d6a:	009b      	lsls	r3, r3, #2
 8003d6c:	421a      	tst	r2, r3
 8003d6e:	d049      	beq.n	8003e04 <HAL_TIM_IRQHandler+0xe0>
        HAL_TIM_IC_CaptureCallback(htim);
 8003d70:	0028      	movs	r0, r5
 8003d72:	f7ff ffd4 	bl	8003d1e <HAL_TIM_IC_CaptureCallback>
      htim->Channel = HAL_TIM_ACTIVE_CHANNEL_CLEARED;
 8003d76:	2300      	movs	r3, #0
 8003d78:	772b      	strb	r3, [r5, #28]
  if ((itflag & (TIM_FLAG_CC3)) == (TIM_FLAG_CC3))
 8003d7a:	0723      	lsls	r3, r4, #28
 8003d7c:	d510      	bpl.n	8003da0 <HAL_TIM_IRQHandler+0x7c>
    if ((itsource & (TIM_IT_CC3)) == (TIM_IT_CC3))
 8003d7e:	0733      	lsls	r3, r6, #28
 8003d80:	d50e      	bpl.n	8003da0 <HAL_TIM_IRQHandler+0x7c>
      __HAL_TIM_CLEAR_FLAG(htim, TIM_FLAG_CC3);
 8003d82:	682b      	ldr	r3, [r5, #0]
 8003d84:	2209      	movs	r2, #9
 8003d86:	4252      	negs	r2, r2
 8003d88:	611a      	str	r2, [r3, #16]
      htim->Channel = HAL_TIM_ACTIVE_CHANNEL_3;
 8003d8a:	2304      	movs	r3, #4
 8003d8c:	772b      	strb	r3, [r5, #28]
      if ((htim->Instance->CCMR2 & TIM_CCMR2_CC3S) != 0x00U)
 8003d8e:	682b      	ldr	r3, [r5, #0]
 8003d90:	69db      	ldr	r3, [r3, #28]
 8003d92:	079b      	lsls	r3, r3, #30
 8003d94:	d03d      	beq.n	8003e12 <HAL_TIM_IRQHandler+0xee>
        HAL_TIM_IC_CaptureCallback(htim);
 8003d96:	0028      	movs	r0, r5
 8003d98:	f7ff ffc1 	bl	8003d1e <HAL_TIM_IC_CaptureCallback>
      htim->Channel = HAL_TIM_ACTIVE_CHANNEL_CLEARED;
 8003d9c:	2300      	movs	r3, #0
 8003d9e:	772b      	strb	r3, [r5, #28]
  if ((itflag & (TIM_FLAG_CC4)) == (TIM_FLAG_CC4))
 8003da0:	06e3      	lsls	r3, r4, #27
 8003da2:	d512      	bpl.n	8003dca <HAL_TIM_IRQHandler+0xa6>
    if ((itsource & (TIM_IT_CC4)) == (TIM_IT_CC4))
 8003da4:	06f3      	lsls	r3, r6, #27
 8003da6:	d510      	bpl.n	8003dca <HAL_TIM_IRQHandler+0xa6>
      __HAL_TIM_CLEAR_FLAG(htim, TIM_FLAG_CC4);
 8003da8:	682b      	ldr	r3, [r5, #0]
 8003daa:	2211      	movs	r2, #17
 8003dac:	4252      	negs	r2, r2
 8003dae:	611a      	str	r2, [r3, #16]
      htim->Channel = HAL_TIM_ACTIVE_CHANNEL_4;
 8003db0:	2308      	movs	r3, #8
 8003db2:	772b      	strb	r3, [r5, #28]
      if ((htim->Instance->CCMR2 & TIM_CCMR2_CC4S) != 0x00U)
 8003db4:	682b      	ldr	r3, [r5, #0]
 8003db6:	69da      	ldr	r2, [r3, #28]
 8003db8:	23c0      	movs	r3, #192	@ 0xc0
 8003dba:	009b      	lsls	r3, r3, #2
 8003dbc:	421a      	tst	r2, r3
 8003dbe:	d02f      	beq.n	8003e20 <HAL_TIM_IRQHandler+0xfc>
        HAL_TIM_IC_CaptureCallback(htim);
 8003dc0:	0028      	movs	r0, r5
 8003dc2:	f7ff ffac 	bl	8003d1e <HAL_TIM_IC_CaptureCallback>
      htim->Channel = HAL_TIM_ACTIVE_CHANNEL_CLEARED;
 8003dc6:	2300      	movs	r3, #0
 8003dc8:	772b      	strb	r3, [r5, #28]
  if ((itflag & (TIM_FLAG_UPDATE)) == (TIM_FLAG_UPDATE))
 8003dca:	07e3      	lsls	r3, r4, #31
 8003dcc:	d501      	bpl.n	8003dd2 <HAL_TIM_IRQHandler+0xae>
    if ((itsource & (TIM_IT_UPDATE)) == (TIM_IT_UPDATE))
 8003dce:	07f3      	lsls	r3, r6, #31
 8003dd0:	d42d      	bmi.n	8003e2e <HAL_TIM_IRQHandler+0x10a>
  if (((itflag & (TIM_FLAG_BREAK)) == (TIM_FLAG_BREAK)) || \
 8003dd2:	2382      	movs	r3, #130	@ 0x82
 8003dd4:	019b      	lsls	r3, r3, #6
 8003dd6:	421c      	tst	r4, r3
 8003dd8:	d001      	beq.n	8003dde <HAL_TIM_IRQHandler+0xba>
    if ((itsource & (TIM_IT_BREAK)) == (TIM_IT_BREAK))
 8003dda:	0633      	lsls	r3, r6, #24
 8003ddc:	d42f      	bmi.n	8003e3e <HAL_TIM_IRQHandler+0x11a>
  if ((itflag & (TIM_FLAG_BREAK2)) == (TIM_FLAG_BREAK2))
 8003dde:	05e3      	lsls	r3, r4, #23
 8003de0:	d501      	bpl.n	8003de6 <HAL_TIM_IRQHandler+0xc2>
    if ((itsource & (TIM_IT_BREAK)) == (TIM_IT_BREAK))
 8003de2:	0633      	lsls	r3, r6, #24
 8003de4:	d432      	bmi.n	8003e4c <HAL_TIM_IRQHandler+0x128>
  if ((itflag & (TIM_FLAG_TRIGGER)) == (TIM_FLAG_TRIGGER))
 8003de6:	0663      	lsls	r3, r4, #25
 8003de8:	d501      	bpl.n	8003dee <HAL_TIM_IRQHandler+0xca>
    if ((itsource & (TIM_IT_TRIGGER)) == (TIM_IT_TRIGGER))
 8003dea:	0673      	lsls	r3, r6, #25
 8003dec:	d435      	bmi.n	8003e5a <HAL_TIM_IRQHandler+0x136>
  if ((itflag & (TIM_FLAG_COM)) == (TIM_FLAG_COM))
 8003dee:	06a4      	lsls	r4, r4, #26
 8003df0:	d501      	bpl.n	8003df6 <HAL_TIM_IRQHandler+0xd2>
    if ((itsource & (TIM_IT_COM)) == (TIM_IT_COM))
 8003df2:	06b6      	lsls	r6, r6, #26
 8003df4:	d439      	bmi.n	8003e6a <HAL_TIM_IRQHandler+0x146>
}
 8003df6:	bd70      	pop	{r4, r5, r6, pc}
          HAL_TIM_OC_DelayElapsedCallback(htim);
 8003df8:	f7ff ff90 	bl	8003d1c <HAL_TIM_OC_DelayElapsedCallback>
          HAL_TIM_PWM_PulseFinishedCallback(htim);
 8003dfc:	0028      	movs	r0, r5
 8003dfe:	f7ff ff8f 	bl	8003d20 <HAL_TIM_PWM_PulseFinishedCallback>
 8003e02:	e7a3      	b.n	8003d4c <HAL_TIM_IRQHandler+0x28>
        HAL_TIM_OC_DelayElapsedCallback(htim);
 8003e04:	0028      	movs	r0, r5
 8003e06:	f7ff ff89 	bl	8003d1c <HAL_TIM_OC_DelayElapsedCallback>
        HAL_TIM_PWM_PulseFinishedCallback(htim);
 8003e0a:	0028      	movs	r0, r5
 8003e0c:	f7ff ff88 	bl	8003d20 <HAL_TIM_PWM_PulseFinishedCallback>
 8003e10:	e7b1      	b.n	8003d76 <HAL_TIM_IRQHandler+0x52>
        HAL_TIM_OC_DelayElapsedCallback(htim);
 8003e12:	0028      	movs	r0, r5
 8003e14:	f7ff ff82 	bl	8003d1c <HAL_TIM_OC_DelayElapsedCallback>
        HAL_TIM_PWM_PulseFinishedCallback(htim);
 8003e18:	0028      	movs	r0, r5
 8003e1a:	f7ff ff81 	bl	8003d20 <HAL_TIM_PWM_PulseFinishedCallback>
 8003e1e:	e7bd      	b.n	8003d9c <HAL_TIM_IRQHandler+0x78>
        HAL_TIM_OC_DelayElapsedCallback(htim);
 8003e20:	0028      	movs	r0, r5
 8003e22:	f7ff ff7b 	bl	8003d1c <HAL_TIM_OC_DelayElapsedCallback>
        HAL_TIM_PWM_PulseFinishedCallback(htim);
 8003e26:	0028      	movs	r0, r5
 8003e28:	f7ff ff7a 	bl	8003d20 <HAL_TIM_PWM_PulseFinishedCallback>
 8003e2c:	e7cb      	b.n	8003dc6 <HAL_TIM_IRQHandler+0xa2>
      __HAL_TIM_CLEAR_FLAG(htim, TIM_FLAG_UPDATE);
 8003e2e:	682b      	ldr	r3, [r5, #0]
 8003e30:	2202      	movs	r2, #2
 8003e32:	4252      	negs	r2, r2
 8003e34:	611a      	str	r2, [r3, #16]
      HAL_TIM_PeriodElapsedCallback(htim);
 8003e36:	0028      	movs	r0, r5
 8003e38:	f7fe fbde 	bl	80025f8 <HAL_TIM_PeriodElapsedCallback>
 8003e3c:	e7c9      	b.n	8003dd2 <HAL_TIM_IRQHandler+0xae>
      __HAL_TIM_CLEAR_FLAG(htim, TIM_FLAG_BREAK | TIM_FLAG_SYSTEM_BREAK);
 8003e3e:	682b      	ldr	r3, [r5, #0]
 8003e40:	4a0e      	ldr	r2, [pc, #56]	@ (8003e7c <HAL_TIM_IRQHandler+0x158>)
 8003e42:	611a      	str	r2, [r3, #16]
      HAL_TIMEx_BreakCallback(htim);
 8003e44:	0028      	movs	r0, r5
 8003e46:	f000 f894 	bl	8003f72 <HAL_TIMEx_BreakCallback>
 8003e4a:	e7c8      	b.n	8003dde <HAL_TIM_IRQHandler+0xba>
      __HAL_TIM_CLEAR_FLAG(htim, TIM_FLAG_BREAK2);
 8003e4c:	682b      	ldr	r3, [r5, #0]
 8003e4e:	4a0c      	ldr	r2, [pc, #48]	@ (8003e80 <HAL_TIM_IRQHandler+0x15c>)
 8003e50:	611a      	str	r2, [r3, #16]
      HAL_TIMEx_Break2Callback(htim);
 8003e52:	0028      	movs	r0, r5
 8003e54:	f000 f88e 	bl	8003f74 <HAL_TIMEx_Break2Callback>
 8003e58:	e7c5      	b.n	8003de6 <HAL_TIM_IRQHandler+0xc2>
      __HAL_TIM_CLEAR_FLAG(htim, TIM_FLAG_TRIGGER);
 8003e5a:	682b      	ldr	r3, [r5, #0]
 8003e5c:	2241      	movs	r2, #65	@ 0x41
 8003e5e:	4252      	negs	r2, r2
 8003e60:	611a      	str	r2, [r3, #16]
      HAL_TIM_TriggerCallback(htim);
 8003e62:	0028      	movs	r0, r5
 8003e64:	f7ff ff5d 	bl	8003d22 <HAL_TIM_TriggerCallback>
 8003e68:	e7c1      	b.n	8003dee <HAL_TIM_IRQHandler+0xca>
      __HAL_TIM_CLEAR_FLAG(htim, TIM_FLAG_COM);
 8003e6a:	682b      	ldr	r3, [r5, #0]
 8003e6c:	2221      	movs	r2, #33	@ 0x21
 8003e6e:	4252      	negs	r2, r2
 8003e70:	611a      	str	r2, [r3, #16]
      HAL_TIMEx_CommutCallback(htim);
 8003e72:	0028      	movs	r0, r5
 8003e74:	f000 f87c 	bl	8003f70 <HAL_TIMEx_CommutCallback>
}
 8003e78:	e7bd      	b.n	8003df6 <HAL_TIM_IRQHandler+0xd2>
 8003e7a:	46c0      	nop			@ (mov r8, r8)
 8003e7c:	ffffdf7f 	.word	0xffffdf7f
 8003e80:	fffffeff 	.word	0xfffffeff

08003e84 <TIM_Base_SetConfig>:
  * @retval None
  */
void TIM_Base_SetConfig(TIM_TypeDef *TIMx, const TIM_Base_InitTypeDef *Structure)
{
  uint32_t tmpcr1;
  tmpcr1 = TIMx->CR1;
 8003e84:	6803      	ldr	r3, [r0, #0]

  /* Set TIM Time Base Unit parameters ---------------------------------------*/
  if (IS_TIM_COUNTER_MODE_SELECT_INSTANCE(TIMx))
 8003e86:	4a1c      	ldr	r2, [pc, #112]	@ (8003ef8 <TIM_Base_SetConfig+0x74>)
 8003e88:	4290      	cmp	r0, r2
 8003e8a:	d002      	beq.n	8003e92 <TIM_Base_SetConfig+0xe>
 8003e8c:	4a1b      	ldr	r2, [pc, #108]	@ (8003efc <TIM_Base_SetConfig+0x78>)
 8003e8e:	4290      	cmp	r0, r2
 8003e90:	d103      	bne.n	8003e9a <TIM_Base_SetConfig+0x16>
  {
    /* Select the Counter Mode */
    tmpcr1 &= ~(TIM_CR1_DIR | TIM_CR1_CMS);
 8003e92:	2270      	movs	r2, #112	@ 0x70
 8003e94:	4393      	bics	r3, r2
    tmpcr1 |= Structure->CounterMode;
 8003e96:	684a      	ldr	r2, [r1, #4]
 8003e98:	4313      	orrs	r3, r2
  }

  if (IS_TIM_CLOCK_DIVISION_INSTANCE(TIMx))
 8003e9a:	4a17      	ldr	r2, [pc, #92]	@ (8003ef8 <TIM_Base_SetConfig+0x74>)
 8003e9c:	4290      	cmp	r0, r2
 8003e9e:	d00b      	beq.n	8003eb8 <TIM_Base_SetConfig+0x34>
 8003ea0:	4a16      	ldr	r2, [pc, #88]	@ (8003efc <TIM_Base_SetConfig+0x78>)
 8003ea2:	4290      	cmp	r0, r2
 8003ea4:	d008      	beq.n	8003eb8 <TIM_Base_SetConfig+0x34>
 8003ea6:	4a16      	ldr	r2, [pc, #88]	@ (8003f00 <TIM_Base_SetConfig+0x7c>)
 8003ea8:	4290      	cmp	r0, r2
 8003eaa:	d005      	beq.n	8003eb8 <TIM_Base_SetConfig+0x34>
 8003eac:	4a15      	ldr	r2, [pc, #84]	@ (8003f04 <TIM_Base_SetConfig+0x80>)
 8003eae:	4290      	cmp	r0, r2
 8003eb0:	d002      	beq.n	8003eb8 <TIM_Base_SetConfig+0x34>
 8003eb2:	4a15      	ldr	r2, [pc, #84]	@ (8003f08 <TIM_Base_SetConfig+0x84>)
 8003eb4:	4290      	cmp	r0, r2
 8003eb6:	d103      	bne.n	8003ec0 <TIM_Base_SetConfig+0x3c>
  {
    /* Set the clock division */
    tmpcr1 &= ~TIM_CR1_CKD;
 8003eb8:	4a14      	ldr	r2, [pc, #80]	@ (8003f0c <TIM_Base_SetConfig+0x88>)
 8003eba:	4013      	ands	r3, r2
    tmpcr1 |= (uint32_t)Structure->ClockDivision;
 8003ebc:	68ca      	ldr	r2, [r1, #12]
 8003ebe:	4313      	orrs	r3, r2
  }

  /* Set the auto-reload preload */
  MODIFY_REG(tmpcr1, TIM_CR1_ARPE, Structure->AutoReloadPreload);
 8003ec0:	2280      	movs	r2, #128	@ 0x80
 8003ec2:	4393      	bics	r3, r2
 8003ec4:	694a      	ldr	r2, [r1, #20]
 8003ec6:	4313      	orrs	r3, r2

  /* Set the Autoreload value */
  TIMx->ARR = (uint32_t)Structure->Period ;
 8003ec8:	688a      	ldr	r2, [r1, #8]
 8003eca:	62c2      	str	r2, [r0, #44]	@ 0x2c

  /* Set the Prescaler value */
  TIMx->PSC = Structure->Prescaler;
 8003ecc:	680a      	ldr	r2, [r1, #0]
 8003ece:	6282      	str	r2, [r0, #40]	@ 0x28

  if (IS_TIM_REPETITION_COUNTER_INSTANCE(TIMx))
 8003ed0:	4a09      	ldr	r2, [pc, #36]	@ (8003ef8 <TIM_Base_SetConfig+0x74>)
 8003ed2:	4290      	cmp	r0, r2
 8003ed4:	d005      	beq.n	8003ee2 <TIM_Base_SetConfig+0x5e>
 8003ed6:	4a0b      	ldr	r2, [pc, #44]	@ (8003f04 <TIM_Base_SetConfig+0x80>)
 8003ed8:	4290      	cmp	r0, r2
 8003eda:	d002      	beq.n	8003ee2 <TIM_Base_SetConfig+0x5e>
 8003edc:	4a0a      	ldr	r2, [pc, #40]	@ (8003f08 <TIM_Base_SetConfig+0x84>)
 8003ede:	4290      	cmp	r0, r2
 8003ee0:	d101      	bne.n	8003ee6 <TIM_Base_SetConfig+0x62>
  {
    /* Set the Repetition Counter value */
    TIMx->RCR = Structure->RepetitionCounter;
 8003ee2:	690a      	ldr	r2, [r1, #16]
 8003ee4:	6302      	str	r2, [r0, #48]	@ 0x30
  }

  /* Disable Update Event (UEV) with Update Generation (UG)
     by changing Update Request Source (URS) to avoid Update flag (UIF) */
  SET_BIT(TIMx->CR1, TIM_CR1_URS);
 8003ee6:	6802      	ldr	r2, [r0, #0]
 8003ee8:	2104      	movs	r1, #4
 8003eea:	430a      	orrs	r2, r1
 8003eec:	6002      	str	r2, [r0, #0]

  /* Generate an update event to reload the Prescaler
     and the repetition counter (only for advanced timer) value immediately */
  TIMx->EGR = TIM_EGR_UG;
 8003eee:	2201      	movs	r2, #1
 8003ef0:	6142      	str	r2, [r0, #20]

  TIMx->CR1 = tmpcr1;
 8003ef2:	6003      	str	r3, [r0, #0]
}
 8003ef4:	4770      	bx	lr
 8003ef6:	46c0      	nop			@ (mov r8, r8)
 8003ef8:	40012c00 	.word	0x40012c00
 8003efc:	40000400 	.word	0x40000400
 8003f00:	40002000 	.word	0x40002000
 8003f04:	40014400 	.word	0x40014400
 8003f08:	40014800 	.word	0x40014800
 8003f0c:	fffffcff 	.word	0xfffffcff

08003f10 <HAL_TIM_Base_Init>:
{
 8003f10:	b570      	push	{r4, r5, r6, lr}
 8003f12:	1e04      	subs	r4, r0, #0
  if (htim == NULL)
 8003f14:	d02a      	beq.n	8003f6c <HAL_TIM_Base_Init+0x5c>
  if (htim->State == HAL_TIM_STATE_RESET)
 8003f16:	233d      	movs	r3, #61	@ 0x3d
 8003f18:	5cc3      	ldrb	r3, [r0, r3]
 8003f1a:	2b00      	cmp	r3, #0
 8003f1c:	d020      	beq.n	8003f60 <HAL_TIM_Base_Init+0x50>
  htim->State = HAL_TIM_STATE_BUSY;
 8003f1e:	253d      	movs	r5, #61	@ 0x3d
 8003f20:	2302      	movs	r3, #2
 8003f22:	5563      	strb	r3, [r4, r5]
  TIM_Base_SetConfig(htim->Instance, &htim->Init);
 8003f24:	0021      	movs	r1, r4
 8003f26:	c901      	ldmia	r1!, {r0}
 8003f28:	f7ff ffac 	bl	8003e84 <TIM_Base_SetConfig>
  htim->DMABurstState = HAL_DMA_BURST_STATE_READY;
 8003f2c:	2301      	movs	r3, #1
 8003f2e:	2248      	movs	r2, #72	@ 0x48
 8003f30:	54a3      	strb	r3, [r4, r2]
  TIM_CHANNEL_STATE_SET_ALL(htim, HAL_TIM_CHANNEL_STATE_READY);
 8003f32:	3a0a      	subs	r2, #10
 8003f34:	54a3      	strb	r3, [r4, r2]
 8003f36:	3201      	adds	r2, #1
 8003f38:	54a3      	strb	r3, [r4, r2]
 8003f3a:	3201      	adds	r2, #1
 8003f3c:	54a3      	strb	r3, [r4, r2]
 8003f3e:	3201      	adds	r2, #1
 8003f40:	54a3      	strb	r3, [r4, r2]
 8003f42:	3201      	adds	r2, #1
 8003f44:	54a3      	strb	r3, [r4, r2]
 8003f46:	3201      	adds	r2, #1
 8003f48:	54a3      	strb	r3, [r4, r2]
  TIM_CHANNEL_N_STATE_SET_ALL(htim, HAL_TIM_CHANNEL_STATE_READY);
 8003f4a:	3201      	adds	r2, #1
 8003f4c:	54a3      	strb	r3, [r4, r2]
 8003f4e:	3201      	adds	r2, #1
 8003f50:	54a3      	strb	r3, [r4, r2]
 8003f52:	3201      	adds	r2, #1
 8003f54:	54a3      	strb	r3, [r4, r2]
 8003f56:	3201      	adds	r2, #1
 8003f58:	54a3      	strb	r3, [r4, r2]
  htim->State = HAL_TIM_STATE_READY;
 8003f5a:	5563      	strb	r3, [r4, r5]
  return HAL_OK;
 8003f5c:	2000      	movs	r0, #0
}
 8003f5e:	bd70      	pop	{r4, r5, r6, pc}
    htim->Lock = HAL_UNLOCKED;
 8003f60:	333c      	adds	r3, #60	@ 0x3c
 8003f62:	2200      	movs	r2, #0
 8003f64:	54c2      	strb	r2, [r0, r3]
    HAL_TIM_Base_MspInit(htim);
 8003f66:	f7fe fcb9 	bl	80028dc <HAL_TIM_Base_MspInit>
 8003f6a:	e7d8      	b.n	8003f1e <HAL_TIM_Base_Init+0xe>
    return HAL_ERROR;
 8003f6c:	2001      	movs	r0, #1
 8003f6e:	e7f6      	b.n	8003f5e <HAL_TIM_Base_Init+0x4e>

08003f70 <HAL_TIMEx_CommutCallback>:
  UNUSED(htim);

  /* NOTE : This function should not be modified, when the callback is needed,
            the HAL_TIMEx_CommutCallback could be implemented in the user file
   */
}
 8003f70:	4770      	bx	lr

08003f72 <HAL_TIMEx_BreakCallback>:
  UNUSED(htim);

  /* NOTE : This function should not be modified, when the callback is needed,
            the HAL_TIMEx_BreakCallback could be implemented in the user file
   */
}
 8003f72:	4770      	bx	lr

08003f74 <HAL_TIMEx_Break2Callback>:
  UNUSED(htim);

  /* NOTE : This function Should not be modified, when the callback is needed,
            the HAL_TIMEx_Break2Callback could be implemented in the user file
   */
}
 8003f74:	4770      	bx	lr
	...

08003f78 <UART_EndRxTransfer>:
  * @brief  End ongoing Rx transfer on UART peripheral (following error detection or Reception completion).
  * @param  huart UART handle.
  * @retval None
  */
static void UART_EndRxTransfer(UART_HandleTypeDef *huart)
{
 8003f78:	b530      	push	{r4, r5, lr}
 */
__STATIC_FORCEINLINE uint32_t __get_PRIMASK(void)
{
  uint32_t result;

  __ASM volatile ("MRS %0, primask" : "=r" (result) );
 8003f7a:	f3ef 8410 	mrs	r4, PRIMASK
  \details Assigns the given value to the Priority Mask Register.
  \param [in]    priMask  Priority Mask
 */
__STATIC_FORCEINLINE void __set_PRIMASK(uint32_t priMask)
{
  __ASM volatile ("MSR primask, %0" : : "r" (priMask) : "memory");
 8003f7e:	2201      	movs	r2, #1
 8003f80:	f382 8810 	msr	PRIMASK, r2
  /* Disable RXNE, PE and ERR (Frame error, noise error, overrun error) interrupts */
  ATOMIC_CLEAR_BIT(huart->Instance->CR1, (USART_CR1_RXNEIE_RXFNEIE | USART_CR1_PEIE));
 8003f84:	6801      	ldr	r1, [r0, #0]
 8003f86:	680b      	ldr	r3, [r1, #0]
 8003f88:	4d12      	ldr	r5, [pc, #72]	@ (8003fd4 <UART_EndRxTransfer+0x5c>)
 8003f8a:	402b      	ands	r3, r5
 8003f8c:	600b      	str	r3, [r1, #0]
 8003f8e:	f384 8810 	msr	PRIMASK, r4
  __ASM volatile ("MRS %0, primask" : "=r" (result) );
 8003f92:	f3ef 8110 	mrs	r1, PRIMASK
  __ASM volatile ("MSR primask, %0" : : "r" (priMask) : "memory");
 8003f96:	f382 8810 	msr	PRIMASK, r2
  ATOMIC_CLEAR_BIT(huart->Instance->CR3, (USART_CR3_EIE | USART_CR3_RXFTIE));
 8003f9a:	6802      	ldr	r2, [r0, #0]
 8003f9c:	6893      	ldr	r3, [r2, #8]
 8003f9e:	4c0e      	ldr	r4, [pc, #56]	@ (8003fd8 <UART_EndRxTransfer+0x60>)
 8003fa0:	4023      	ands	r3, r4
 8003fa2:	6093      	str	r3, [r2, #8]
 8003fa4:	f381 8810 	msr	PRIMASK, r1

  /* In case of reception waiting for IDLE event, disable also the IDLE IE interrupt source */
  if (huart->ReceptionType == HAL_UART_RECEPTION_TOIDLE)
 8003fa8:	6ec3      	ldr	r3, [r0, #108]	@ 0x6c
 8003faa:	2b01      	cmp	r3, #1
 8003fac:	d006      	beq.n	8003fbc <UART_EndRxTransfer+0x44>
  {
    ATOMIC_CLEAR_BIT(huart->Instance->CR1, USART_CR1_IDLEIE);
  }

  /* At end of Rx process, restore huart->RxState to Ready */
  huart->RxState = HAL_UART_STATE_READY;
 8003fae:	238c      	movs	r3, #140	@ 0x8c
 8003fb0:	2220      	movs	r2, #32
 8003fb2:	50c2      	str	r2, [r0, r3]
  huart->ReceptionType = HAL_UART_RECEPTION_STANDARD;
 8003fb4:	2300      	movs	r3, #0
 8003fb6:	66c3      	str	r3, [r0, #108]	@ 0x6c

  /* Reset RxIsr function pointer */
  huart->RxISR = NULL;
 8003fb8:	6743      	str	r3, [r0, #116]	@ 0x74
}
 8003fba:	bd30      	pop	{r4, r5, pc}
  __ASM volatile ("MRS %0, primask" : "=r" (result) );
 8003fbc:	f3ef 8110 	mrs	r1, PRIMASK
  __ASM volatile ("MSR primask, %0" : : "r" (priMask) : "memory");
 8003fc0:	f383 8810 	msr	PRIMASK, r3
    ATOMIC_CLEAR_BIT(huart->Instance->CR1, USART_CR1_IDLEIE);
 8003fc4:	6802      	ldr	r2, [r0, #0]
 8003fc6:	6813      	ldr	r3, [r2, #0]
 8003fc8:	2410      	movs	r4, #16
 8003fca:	43a3      	bics	r3, r4
 8003fcc:	6013      	str	r3, [r2, #0]
 8003fce:	f381 8810 	msr	PRIMASK, r1
}
 8003fd2:	e7ec      	b.n	8003fae <UART_EndRxTransfer+0x36>
 8003fd4:	fffffedf 	.word	0xfffffedf
 8003fd8:	effffffe 	.word	0xeffffffe

08003fdc <UART_SetConfig>:
{
 8003fdc:	b510      	push	{r4, lr}
 8003fde:	0004      	movs	r4, r0
  tmpreg = (uint32_t)huart->Init.WordLength | huart->Init.Parity | huart->Init.Mode | huart->Init.OverSampling ;
 8003fe0:	6883      	ldr	r3, [r0, #8]
 8003fe2:	6902      	ldr	r2, [r0, #16]
 8003fe4:	4313      	orrs	r3, r2
 8003fe6:	6942      	ldr	r2, [r0, #20]
 8003fe8:	4313      	orrs	r3, r2
 8003fea:	69c2      	ldr	r2, [r0, #28]
 8003fec:	4313      	orrs	r3, r2
  MODIFY_REG(huart->Instance->CR1, USART_CR1_FIELDS, tmpreg);
 8003fee:	6801      	ldr	r1, [r0, #0]
 8003ff0:	680a      	ldr	r2, [r1, #0]
 8003ff2:	4862      	ldr	r0, [pc, #392]	@ (800417c <UART_SetConfig+0x1a0>)
 8003ff4:	4002      	ands	r2, r0
 8003ff6:	4313      	orrs	r3, r2
 8003ff8:	600b      	str	r3, [r1, #0]
  MODIFY_REG(huart->Instance->CR2, USART_CR2_STOP, huart->Init.StopBits);
 8003ffa:	6822      	ldr	r2, [r4, #0]
 8003ffc:	6853      	ldr	r3, [r2, #4]
 8003ffe:	4960      	ldr	r1, [pc, #384]	@ (8004180 <UART_SetConfig+0x1a4>)
 8004000:	400b      	ands	r3, r1
 8004002:	68e1      	ldr	r1, [r4, #12]
 8004004:	430b      	orrs	r3, r1
 8004006:	6053      	str	r3, [r2, #4]
  tmpreg = (uint32_t)huart->Init.HwFlowCtl;
 8004008:	69a3      	ldr	r3, [r4, #24]
  tmpreg |= huart->Init.OneBitSampling;
 800400a:	6a22      	ldr	r2, [r4, #32]
 800400c:	431a      	orrs	r2, r3
  MODIFY_REG(huart->Instance->CR3, USART_CR3_FIELDS, tmpreg);
 800400e:	6821      	ldr	r1, [r4, #0]
 8004010:	688b      	ldr	r3, [r1, #8]
 8004012:	485c      	ldr	r0, [pc, #368]	@ (8004184 <UART_SetConfig+0x1a8>)
 8004014:	4003      	ands	r3, r0
 8004016:	4313      	orrs	r3, r2
 8004018:	608b      	str	r3, [r1, #8]
  MODIFY_REG(huart->Instance->PRESC, USART_PRESC_PRESCALER, huart->Init.ClockPrescaler);
 800401a:	6822      	ldr	r2, [r4, #0]
 800401c:	6ad3      	ldr	r3, [r2, #44]	@ 0x2c
 800401e:	210f      	movs	r1, #15
 8004020:	438b      	bics	r3, r1
 8004022:	6a61      	ldr	r1, [r4, #36]	@ 0x24
 8004024:	430b      	orrs	r3, r1
 8004026:	62d3      	str	r3, [r2, #44]	@ 0x2c
  UART_GETCLOCKSOURCE(huart, clocksource);
 8004028:	6823      	ldr	r3, [r4, #0]
 800402a:	4a57      	ldr	r2, [pc, #348]	@ (8004188 <UART_SetConfig+0x1ac>)
 800402c:	4293      	cmp	r3, r2
 800402e:	d030      	beq.n	8004092 <UART_SetConfig+0xb6>
 8004030:	4a56      	ldr	r2, [pc, #344]	@ (800418c <UART_SetConfig+0x1b0>)
 8004032:	4293      	cmp	r3, r2
 8004034:	d03e      	beq.n	80040b4 <UART_SetConfig+0xd8>
 8004036:	2310      	movs	r3, #16
  if (huart->Init.OverSampling == UART_OVERSAMPLING_8)
 8004038:	69e0      	ldr	r0, [r4, #28]
 800403a:	2280      	movs	r2, #128	@ 0x80
 800403c:	0212      	lsls	r2, r2, #8
 800403e:	4290      	cmp	r0, r2
 8004040:	d042      	beq.n	80040c8 <UART_SetConfig+0xec>
    switch (clocksource)
 8004042:	2b04      	cmp	r3, #4
 8004044:	d100      	bne.n	8004048 <UART_SetConfig+0x6c>
 8004046:	e089      	b.n	800415c <UART_SetConfig+0x180>
 8004048:	d87b      	bhi.n	8004142 <UART_SetConfig+0x166>
 800404a:	2b00      	cmp	r3, #0
 800404c:	d100      	bne.n	8004050 <UART_SetConfig+0x74>
 800404e:	e07f      	b.n	8004150 <UART_SetConfig+0x174>
 8004050:	2b02      	cmp	r3, #2
 8004052:	d174      	bne.n	800413e <UART_SetConfig+0x162>
        pclk = (HSI_VALUE / ((__HAL_RCC_GET_HSIKER_DIVIDER() >> RCC_CR_HSIKERDIV_Pos) + 1U));
 8004054:	4b4e      	ldr	r3, [pc, #312]	@ (8004190 <UART_SetConfig+0x1b4>)
 8004056:	681b      	ldr	r3, [r3, #0]
 8004058:	095b      	lsrs	r3, r3, #5
 800405a:	2107      	movs	r1, #7
 800405c:	4019      	ands	r1, r3
 800405e:	3101      	adds	r1, #1
 8004060:	484c      	ldr	r0, [pc, #304]	@ (8004194 <UART_SetConfig+0x1b8>)
 8004062:	f7fc f863 	bl	800012c <__udivsi3>
      usartdiv = (uint32_t)(UART_DIV_SAMPLING16(pclk, huart->Init.BaudRate, huart->Init.ClockPrescaler));
 8004066:	6a62      	ldr	r2, [r4, #36]	@ 0x24
 8004068:	4b4b      	ldr	r3, [pc, #300]	@ (8004198 <UART_SetConfig+0x1bc>)
 800406a:	0052      	lsls	r2, r2, #1
 800406c:	5ad1      	ldrh	r1, [r2, r3]
 800406e:	f7fc f85d 	bl	800012c <__udivsi3>
 8004072:	6861      	ldr	r1, [r4, #4]
 8004074:	084b      	lsrs	r3, r1, #1
 8004076:	18c0      	adds	r0, r0, r3
 8004078:	f7fc f858 	bl	800012c <__udivsi3>
      if ((usartdiv >= UART_BRR_MIN) && (usartdiv <= UART_BRR_MAX))
 800407c:	0002      	movs	r2, r0
 800407e:	3a10      	subs	r2, #16
 8004080:	4b46      	ldr	r3, [pc, #280]	@ (800419c <UART_SetConfig+0x1c0>)
 8004082:	429a      	cmp	r2, r3
 8004084:	d86f      	bhi.n	8004166 <UART_SetConfig+0x18a>
        huart->Instance->BRR = (uint16_t)usartdiv;
 8004086:	6823      	ldr	r3, [r4, #0]
 8004088:	0400      	lsls	r0, r0, #16
 800408a:	0c00      	lsrs	r0, r0, #16
 800408c:	60d8      	str	r0, [r3, #12]
 800408e:	2000      	movs	r0, #0
 8004090:	e06a      	b.n	8004168 <UART_SetConfig+0x18c>
  UART_GETCLOCKSOURCE(huart, clocksource);
 8004092:	4b3f      	ldr	r3, [pc, #252]	@ (8004190 <UART_SetConfig+0x1b4>)
 8004094:	6d5a      	ldr	r2, [r3, #84]	@ 0x54
 8004096:	2303      	movs	r3, #3
 8004098:	4013      	ands	r3, r2
 800409a:	2b02      	cmp	r3, #2
 800409c:	d00c      	beq.n	80040b8 <UART_SetConfig+0xdc>
 800409e:	d805      	bhi.n	80040ac <UART_SetConfig+0xd0>
 80040a0:	2b00      	cmp	r3, #0
 80040a2:	d00b      	beq.n	80040bc <UART_SetConfig+0xe0>
 80040a4:	2b01      	cmp	r3, #1
 80040a6:	d10b      	bne.n	80040c0 <UART_SetConfig+0xe4>
 80040a8:	3303      	adds	r3, #3
 80040aa:	e7c5      	b.n	8004038 <UART_SetConfig+0x5c>
 80040ac:	2b03      	cmp	r3, #3
 80040ae:	d109      	bne.n	80040c4 <UART_SetConfig+0xe8>
 80040b0:	3305      	adds	r3, #5
 80040b2:	e7c1      	b.n	8004038 <UART_SetConfig+0x5c>
 80040b4:	2300      	movs	r3, #0
 80040b6:	e7bf      	b.n	8004038 <UART_SetConfig+0x5c>
 80040b8:	2302      	movs	r3, #2
 80040ba:	e7bd      	b.n	8004038 <UART_SetConfig+0x5c>
 80040bc:	2300      	movs	r3, #0
 80040be:	e7bb      	b.n	8004038 <UART_SetConfig+0x5c>
 80040c0:	2310      	movs	r3, #16
 80040c2:	e7b9      	b.n	8004038 <UART_SetConfig+0x5c>
 80040c4:	2310      	movs	r3, #16
 80040c6:	e7b7      	b.n	8004038 <UART_SetConfig+0x5c>
    switch (clocksource)
 80040c8:	2b04      	cmp	r3, #4
 80040ca:	d035      	beq.n	8004138 <UART_SetConfig+0x15c>
 80040cc:	d82a      	bhi.n	8004124 <UART_SetConfig+0x148>
 80040ce:	2b00      	cmp	r3, #0
 80040d0:	d02c      	beq.n	800412c <UART_SetConfig+0x150>
 80040d2:	2b02      	cmp	r3, #2
 80040d4:	d124      	bne.n	8004120 <UART_SetConfig+0x144>
        pclk = (HSI_VALUE / ((__HAL_RCC_GET_HSIKER_DIVIDER() >> RCC_CR_HSIKERDIV_Pos) + 1U));
 80040d6:	4b2e      	ldr	r3, [pc, #184]	@ (8004190 <UART_SetConfig+0x1b4>)
 80040d8:	681b      	ldr	r3, [r3, #0]
 80040da:	095b      	lsrs	r3, r3, #5
 80040dc:	2107      	movs	r1, #7
 80040de:	4019      	ands	r1, r3
 80040e0:	3101      	adds	r1, #1
 80040e2:	482c      	ldr	r0, [pc, #176]	@ (8004194 <UART_SetConfig+0x1b8>)
 80040e4:	f7fc f822 	bl	800012c <__udivsi3>
      usartdiv = (uint32_t)(UART_DIV_SAMPLING8(pclk, huart->Init.BaudRate, huart->Init.ClockPrescaler));
 80040e8:	6a62      	ldr	r2, [r4, #36]	@ 0x24
 80040ea:	4b2b      	ldr	r3, [pc, #172]	@ (8004198 <UART_SetConfig+0x1bc>)
 80040ec:	0052      	lsls	r2, r2, #1
 80040ee:	5ad1      	ldrh	r1, [r2, r3]
 80040f0:	f7fc f81c 	bl	800012c <__udivsi3>
 80040f4:	0040      	lsls	r0, r0, #1
 80040f6:	6861      	ldr	r1, [r4, #4]
 80040f8:	084b      	lsrs	r3, r1, #1
 80040fa:	18c0      	adds	r0, r0, r3
 80040fc:	f7fc f816 	bl	800012c <__udivsi3>
      if ((usartdiv >= UART_BRR_MIN) && (usartdiv <= UART_BRR_MAX))
 8004100:	0002      	movs	r2, r0
 8004102:	3a10      	subs	r2, #16
 8004104:	4b25      	ldr	r3, [pc, #148]	@ (800419c <UART_SetConfig+0x1c0>)
 8004106:	429a      	cmp	r2, r3
 8004108:	d82b      	bhi.n	8004162 <UART_SetConfig+0x186>
        brrtemp = (uint16_t)(usartdiv & 0xFFF0U);
 800410a:	b282      	uxth	r2, r0
 800410c:	230f      	movs	r3, #15
 800410e:	439a      	bics	r2, r3
        brrtemp |= (uint16_t)((usartdiv & (uint16_t)0x000FU) >> 1U);
 8004110:	0840      	lsrs	r0, r0, #1
 8004112:	3b08      	subs	r3, #8
 8004114:	4003      	ands	r3, r0
 8004116:	4313      	orrs	r3, r2
        huart->Instance->BRR = brrtemp;
 8004118:	6822      	ldr	r2, [r4, #0]
 800411a:	60d3      	str	r3, [r2, #12]
 800411c:	2000      	movs	r0, #0
 800411e:	e023      	b.n	8004168 <UART_SetConfig+0x18c>
    switch (clocksource)
 8004120:	2001      	movs	r0, #1
 8004122:	e021      	b.n	8004168 <UART_SetConfig+0x18c>
 8004124:	2b08      	cmp	r3, #8
 8004126:	d0df      	beq.n	80040e8 <UART_SetConfig+0x10c>
 8004128:	2001      	movs	r0, #1
 800412a:	e01d      	b.n	8004168 <UART_SetConfig+0x18c>
        pclk = HAL_RCC_GetPCLK1Freq();
 800412c:	f7ff fcf8 	bl	8003b20 <HAL_RCC_GetPCLK1Freq>
    if (pclk != 0U)
 8004130:	2800      	cmp	r0, #0
 8004132:	d1d9      	bne.n	80040e8 <UART_SetConfig+0x10c>
 8004134:	2000      	movs	r0, #0
 8004136:	e017      	b.n	8004168 <UART_SetConfig+0x18c>
        pclk = HAL_RCC_GetSysClockFreq();
 8004138:	f7ff fbe8 	bl	800390c <HAL_RCC_GetSysClockFreq>
        break;
 800413c:	e7f8      	b.n	8004130 <UART_SetConfig+0x154>
    switch (clocksource)
 800413e:	2001      	movs	r0, #1
 8004140:	e012      	b.n	8004168 <UART_SetConfig+0x18c>
 8004142:	2b08      	cmp	r3, #8
 8004144:	d102      	bne.n	800414c <UART_SetConfig+0x170>
 8004146:	2080      	movs	r0, #128	@ 0x80
 8004148:	0200      	lsls	r0, r0, #8
 800414a:	e78c      	b.n	8004066 <UART_SetConfig+0x8a>
 800414c:	2001      	movs	r0, #1
 800414e:	e00b      	b.n	8004168 <UART_SetConfig+0x18c>
        pclk = HAL_RCC_GetPCLK1Freq();
 8004150:	f7ff fce6 	bl	8003b20 <HAL_RCC_GetPCLK1Freq>
    if (pclk != 0U)
 8004154:	2800      	cmp	r0, #0
 8004156:	d186      	bne.n	8004066 <UART_SetConfig+0x8a>
 8004158:	2000      	movs	r0, #0
 800415a:	e005      	b.n	8004168 <UART_SetConfig+0x18c>
        pclk = HAL_RCC_GetSysClockFreq();
 800415c:	f7ff fbd6 	bl	800390c <HAL_RCC_GetSysClockFreq>
        break;
 8004160:	e7f8      	b.n	8004154 <UART_SetConfig+0x178>
        ret = HAL_ERROR;
 8004162:	2001      	movs	r0, #1
 8004164:	e000      	b.n	8004168 <UART_SetConfig+0x18c>
        ret = HAL_ERROR;
 8004166:	2001      	movs	r0, #1
  huart->NbTxDataToProcess = 1;
 8004168:	2301      	movs	r3, #1
 800416a:	226a      	movs	r2, #106	@ 0x6a
 800416c:	52a3      	strh	r3, [r4, r2]
  huart->NbRxDataToProcess = 1;
 800416e:	3a02      	subs	r2, #2
 8004170:	52a3      	strh	r3, [r4, r2]
  huart->RxISR = NULL;
 8004172:	2300      	movs	r3, #0
 8004174:	6763      	str	r3, [r4, #116]	@ 0x74
  huart->TxISR = NULL;
 8004176:	67a3      	str	r3, [r4, #120]	@ 0x78
}
 8004178:	bd10      	pop	{r4, pc}
 800417a:	46c0      	nop			@ (mov r8, r8)
 800417c:	cfff69f3 	.word	0xcfff69f3
 8004180:	ffffcfff 	.word	0xffffcfff
 8004184:	11fff4ff 	.word	0x11fff4ff
 8004188:	40013800 	.word	0x40013800
 800418c:	40004400 	.word	0x40004400
 8004190:	40021000 	.word	0x40021000
 8004194:	02dc6c00 	.word	0x02dc6c00
 8004198:	08005ad4 	.word	0x08005ad4
 800419c:	0000ffef 	.word	0x0000ffef

080041a0 <UART_AdvFeatureConfig>:
  if (HAL_IS_BIT_SET(huart->AdvancedInit.AdvFeatureInit, UART_ADVFEATURE_SWAP_INIT))
 80041a0:	6a83      	ldr	r3, [r0, #40]	@ 0x28
 80041a2:	071b      	lsls	r3, r3, #28
 80041a4:	d506      	bpl.n	80041b4 <UART_AdvFeatureConfig+0x14>
    MODIFY_REG(huart->Instance->CR2, USART_CR2_SWAP, huart->AdvancedInit.Swap);
 80041a6:	6802      	ldr	r2, [r0, #0]
 80041a8:	6853      	ldr	r3, [r2, #4]
 80041aa:	492c      	ldr	r1, [pc, #176]	@ (800425c <UART_AdvFeatureConfig+0xbc>)
 80041ac:	400b      	ands	r3, r1
 80041ae:	6b81      	ldr	r1, [r0, #56]	@ 0x38
 80041b0:	430b      	orrs	r3, r1
 80041b2:	6053      	str	r3, [r2, #4]
  if (HAL_IS_BIT_SET(huart->AdvancedInit.AdvFeatureInit, UART_ADVFEATURE_TXINVERT_INIT))
 80041b4:	6a83      	ldr	r3, [r0, #40]	@ 0x28
 80041b6:	07db      	lsls	r3, r3, #31
 80041b8:	d506      	bpl.n	80041c8 <UART_AdvFeatureConfig+0x28>
    MODIFY_REG(huart->Instance->CR2, USART_CR2_TXINV, huart->AdvancedInit.TxPinLevelInvert);
 80041ba:	6802      	ldr	r2, [r0, #0]
 80041bc:	6853      	ldr	r3, [r2, #4]
 80041be:	4928      	ldr	r1, [pc, #160]	@ (8004260 <UART_AdvFeatureConfig+0xc0>)
 80041c0:	400b      	ands	r3, r1
 80041c2:	6ac1      	ldr	r1, [r0, #44]	@ 0x2c
 80041c4:	430b      	orrs	r3, r1
 80041c6:	6053      	str	r3, [r2, #4]
  if (HAL_IS_BIT_SET(huart->AdvancedInit.AdvFeatureInit, UART_ADVFEATURE_RXINVERT_INIT))
 80041c8:	6a83      	ldr	r3, [r0, #40]	@ 0x28
 80041ca:	079b      	lsls	r3, r3, #30
 80041cc:	d506      	bpl.n	80041dc <UART_AdvFeatureConfig+0x3c>
    MODIFY_REG(huart->Instance->CR2, USART_CR2_RXINV, huart->AdvancedInit.RxPinLevelInvert);
 80041ce:	6802      	ldr	r2, [r0, #0]
 80041d0:	6853      	ldr	r3, [r2, #4]
 80041d2:	4924      	ldr	r1, [pc, #144]	@ (8004264 <UART_AdvFeatureConfig+0xc4>)
 80041d4:	400b      	ands	r3, r1
 80041d6:	6b01      	ldr	r1, [r0, #48]	@ 0x30
 80041d8:	430b      	orrs	r3, r1
 80041da:	6053      	str	r3, [r2, #4]
  if (HAL_IS_BIT_SET(huart->AdvancedInit.AdvFeatureInit, UART_ADVFEATURE_DATAINVERT_INIT))
 80041dc:	6a83      	ldr	r3, [r0, #40]	@ 0x28
 80041de:	075b      	lsls	r3, r3, #29
 80041e0:	d506      	bpl.n	80041f0 <UART_AdvFeatureConfig+0x50>
    MODIFY_REG(huart->Instance->CR2, USART_CR2_DATAINV, huart->AdvancedInit.DataInvert);
 80041e2:	6802      	ldr	r2, [r0, #0]
 80041e4:	6853      	ldr	r3, [r2, #4]
 80041e6:	4920      	ldr	r1, [pc, #128]	@ (8004268 <UART_AdvFeatureConfig+0xc8>)
 80041e8:	400b      	ands	r3, r1
 80041ea:	6b41      	ldr	r1, [r0, #52]	@ 0x34
 80041ec:	430b      	orrs	r3, r1
 80041ee:	6053      	str	r3, [r2, #4]
  if (HAL_IS_BIT_SET(huart->AdvancedInit.AdvFeatureInit, UART_ADVFEATURE_RXOVERRUNDISABLE_INIT))
 80041f0:	6a83      	ldr	r3, [r0, #40]	@ 0x28
 80041f2:	06db      	lsls	r3, r3, #27
 80041f4:	d506      	bpl.n	8004204 <UART_AdvFeatureConfig+0x64>
    MODIFY_REG(huart->Instance->CR3, USART_CR3_OVRDIS, huart->AdvancedInit.OverrunDisable);
 80041f6:	6802      	ldr	r2, [r0, #0]
 80041f8:	6893      	ldr	r3, [r2, #8]
 80041fa:	491c      	ldr	r1, [pc, #112]	@ (800426c <UART_AdvFeatureConfig+0xcc>)
 80041fc:	400b      	ands	r3, r1
 80041fe:	6bc1      	ldr	r1, [r0, #60]	@ 0x3c
 8004200:	430b      	orrs	r3, r1
 8004202:	6093      	str	r3, [r2, #8]
  if (HAL_IS_BIT_SET(huart->AdvancedInit.AdvFeatureInit, UART_ADVFEATURE_DMADISABLEONERROR_INIT))
 8004204:	6a83      	ldr	r3, [r0, #40]	@ 0x28
 8004206:	069b      	lsls	r3, r3, #26
 8004208:	d506      	bpl.n	8004218 <UART_AdvFeatureConfig+0x78>
    MODIFY_REG(huart->Instance->CR3, USART_CR3_DDRE, huart->AdvancedInit.DMADisableonRxError);
 800420a:	6802      	ldr	r2, [r0, #0]
 800420c:	6893      	ldr	r3, [r2, #8]
 800420e:	4918      	ldr	r1, [pc, #96]	@ (8004270 <UART_AdvFeatureConfig+0xd0>)
 8004210:	400b      	ands	r3, r1
 8004212:	6c01      	ldr	r1, [r0, #64]	@ 0x40
 8004214:	430b      	orrs	r3, r1
 8004216:	6093      	str	r3, [r2, #8]
  if (HAL_IS_BIT_SET(huart->AdvancedInit.AdvFeatureInit, UART_ADVFEATURE_AUTOBAUDRATE_INIT))
 8004218:	6a83      	ldr	r3, [r0, #40]	@ 0x28
 800421a:	065b      	lsls	r3, r3, #25
 800421c:	d50b      	bpl.n	8004236 <UART_AdvFeatureConfig+0x96>
    MODIFY_REG(huart->Instance->CR2, USART_CR2_ABREN, huart->AdvancedInit.AutoBaudRateEnable);
 800421e:	6802      	ldr	r2, [r0, #0]
 8004220:	6853      	ldr	r3, [r2, #4]
 8004222:	4914      	ldr	r1, [pc, #80]	@ (8004274 <UART_AdvFeatureConfig+0xd4>)
 8004224:	400b      	ands	r3, r1
 8004226:	6c41      	ldr	r1, [r0, #68]	@ 0x44
 8004228:	430b      	orrs	r3, r1
 800422a:	6053      	str	r3, [r2, #4]
    if (huart->AdvancedInit.AutoBaudRateEnable == UART_ADVFEATURE_AUTOBAUDRATE_ENABLE)
 800422c:	6c42      	ldr	r2, [r0, #68]	@ 0x44
 800422e:	2380      	movs	r3, #128	@ 0x80
 8004230:	035b      	lsls	r3, r3, #13
 8004232:	429a      	cmp	r2, r3
 8004234:	d00a      	beq.n	800424c <UART_AdvFeatureConfig+0xac>
  if (HAL_IS_BIT_SET(huart->AdvancedInit.AdvFeatureInit, UART_ADVFEATURE_MSBFIRST_INIT))
 8004236:	6a83      	ldr	r3, [r0, #40]	@ 0x28
 8004238:	061b      	lsls	r3, r3, #24
 800423a:	d506      	bpl.n	800424a <UART_AdvFeatureConfig+0xaa>
    MODIFY_REG(huart->Instance->CR2, USART_CR2_MSBFIRST, huart->AdvancedInit.MSBFirst);
 800423c:	6802      	ldr	r2, [r0, #0]
 800423e:	6853      	ldr	r3, [r2, #4]
 8004240:	490d      	ldr	r1, [pc, #52]	@ (8004278 <UART_AdvFeatureConfig+0xd8>)
 8004242:	400b      	ands	r3, r1
 8004244:	6cc1      	ldr	r1, [r0, #76]	@ 0x4c
 8004246:	430b      	orrs	r3, r1
 8004248:	6053      	str	r3, [r2, #4]
}
 800424a:	4770      	bx	lr
      MODIFY_REG(huart->Instance->CR2, USART_CR2_ABRMODE, huart->AdvancedInit.AutoBaudRateMode);
 800424c:	6802      	ldr	r2, [r0, #0]
 800424e:	6853      	ldr	r3, [r2, #4]
 8004250:	490a      	ldr	r1, [pc, #40]	@ (800427c <UART_AdvFeatureConfig+0xdc>)
 8004252:	400b      	ands	r3, r1
 8004254:	6c81      	ldr	r1, [r0, #72]	@ 0x48
 8004256:	430b      	orrs	r3, r1
 8004258:	6053      	str	r3, [r2, #4]
 800425a:	e7ec      	b.n	8004236 <UART_AdvFeatureConfig+0x96>
 800425c:	ffff7fff 	.word	0xffff7fff
 8004260:	fffdffff 	.word	0xfffdffff
 8004264:	fffeffff 	.word	0xfffeffff
 8004268:	fffbffff 	.word	0xfffbffff
 800426c:	ffffefff 	.word	0xffffefff
 8004270:	ffffdfff 	.word	0xffffdfff
 8004274:	ffefffff 	.word	0xffefffff
 8004278:	fff7ffff 	.word	0xfff7ffff
 800427c:	ff9fffff 	.word	0xff9fffff

08004280 <UART_WaitOnFlagUntilTimeout>:
{
 8004280:	b5f8      	push	{r3, r4, r5, r6, r7, lr}
 8004282:	46ce      	mov	lr, r9
 8004284:	4647      	mov	r7, r8
 8004286:	b580      	push	{r7, lr}
 8004288:	0006      	movs	r6, r0
 800428a:	000d      	movs	r5, r1
 800428c:	0017      	movs	r7, r2
 800428e:	4699      	mov	r9, r3
 8004290:	9b08      	ldr	r3, [sp, #32]
 8004292:	4698      	mov	r8, r3
  while ((__HAL_UART_GET_FLAG(huart, Flag) ? SET : RESET) == Status)
 8004294:	6833      	ldr	r3, [r6, #0]
 8004296:	69dc      	ldr	r4, [r3, #28]
 8004298:	402c      	ands	r4, r5
 800429a:	1b64      	subs	r4, r4, r5
 800429c:	4263      	negs	r3, r4
 800429e:	415c      	adcs	r4, r3
 80042a0:	42bc      	cmp	r4, r7
 80042a2:	d133      	bne.n	800430c <UART_WaitOnFlagUntilTimeout+0x8c>
    if (Timeout != HAL_MAX_DELAY)
 80042a4:	4643      	mov	r3, r8
 80042a6:	3301      	adds	r3, #1
 80042a8:	d0f4      	beq.n	8004294 <UART_WaitOnFlagUntilTimeout+0x14>
      if (((HAL_GetTick() - Tickstart) > Timeout) || (Timeout == 0U))
 80042aa:	f7fe fc1f 	bl	8002aec <HAL_GetTick>
 80042ae:	464b      	mov	r3, r9
 80042b0:	1ac0      	subs	r0, r0, r3
 80042b2:	4540      	cmp	r0, r8
 80042b4:	d82f      	bhi.n	8004316 <UART_WaitOnFlagUntilTimeout+0x96>
 80042b6:	4643      	mov	r3, r8
 80042b8:	2b00      	cmp	r3, #0
 80042ba:	d02e      	beq.n	800431a <UART_WaitOnFlagUntilTimeout+0x9a>
      if ((READ_BIT(huart->Instance->CR1, USART_CR1_RE) != 0U) && (Flag != UART_FLAG_TXE) && (Flag != UART_FLAG_TC))
 80042bc:	6832      	ldr	r2, [r6, #0]
 80042be:	6813      	ldr	r3, [r2, #0]
 80042c0:	075b      	lsls	r3, r3, #29
 80042c2:	d5e7      	bpl.n	8004294 <UART_WaitOnFlagUntilTimeout+0x14>
 80042c4:	2d80      	cmp	r5, #128	@ 0x80
 80042c6:	d0e5      	beq.n	8004294 <UART_WaitOnFlagUntilTimeout+0x14>
 80042c8:	2d40      	cmp	r5, #64	@ 0x40
 80042ca:	d0e3      	beq.n	8004294 <UART_WaitOnFlagUntilTimeout+0x14>
        if (__HAL_UART_GET_FLAG(huart, UART_FLAG_ORE) == SET)
 80042cc:	69d3      	ldr	r3, [r2, #28]
 80042ce:	071b      	lsls	r3, r3, #28
 80042d0:	d410      	bmi.n	80042f4 <UART_WaitOnFlagUntilTimeout+0x74>
        if (__HAL_UART_GET_FLAG(huart, UART_FLAG_RTOF) == SET)
 80042d2:	69d3      	ldr	r3, [r2, #28]
 80042d4:	051b      	lsls	r3, r3, #20
 80042d6:	d5dd      	bpl.n	8004294 <UART_WaitOnFlagUntilTimeout+0x14>
          __HAL_UART_CLEAR_FLAG(huart, UART_CLEAR_RTOF);
 80042d8:	2380      	movs	r3, #128	@ 0x80
 80042da:	011b      	lsls	r3, r3, #4
 80042dc:	6213      	str	r3, [r2, #32]
          UART_EndRxTransfer(huart);
 80042de:	0030      	movs	r0, r6
 80042e0:	f7ff fe4a 	bl	8003f78 <UART_EndRxTransfer>
          huart->ErrorCode = HAL_UART_ERROR_RTO;
 80042e4:	2390      	movs	r3, #144	@ 0x90
 80042e6:	2220      	movs	r2, #32
 80042e8:	50f2      	str	r2, [r6, r3]
          __HAL_UNLOCK(huart);
 80042ea:	3b0c      	subs	r3, #12
 80042ec:	2200      	movs	r2, #0
 80042ee:	54f2      	strb	r2, [r6, r3]
          return HAL_TIMEOUT;
 80042f0:	2003      	movs	r0, #3
 80042f2:	e00c      	b.n	800430e <UART_WaitOnFlagUntilTimeout+0x8e>
          __HAL_UART_CLEAR_FLAG(huart, UART_CLEAR_OREF);
 80042f4:	2408      	movs	r4, #8
 80042f6:	6214      	str	r4, [r2, #32]
          UART_EndRxTransfer(huart);
 80042f8:	0030      	movs	r0, r6
 80042fa:	f7ff fe3d 	bl	8003f78 <UART_EndRxTransfer>
          huart->ErrorCode = HAL_UART_ERROR_ORE;
 80042fe:	2390      	movs	r3, #144	@ 0x90
 8004300:	50f4      	str	r4, [r6, r3]
          __HAL_UNLOCK(huart);
 8004302:	3b0c      	subs	r3, #12
 8004304:	2200      	movs	r2, #0
 8004306:	54f2      	strb	r2, [r6, r3]
          return HAL_ERROR;
 8004308:	2001      	movs	r0, #1
 800430a:	e000      	b.n	800430e <UART_WaitOnFlagUntilTimeout+0x8e>
  return HAL_OK;
 800430c:	2000      	movs	r0, #0
}
 800430e:	bcc0      	pop	{r6, r7}
 8004310:	46b9      	mov	r9, r7
 8004312:	46b0      	mov	r8, r6
 8004314:	bdf8      	pop	{r3, r4, r5, r6, r7, pc}
        return HAL_TIMEOUT;
 8004316:	2003      	movs	r0, #3
 8004318:	e7f9      	b.n	800430e <UART_WaitOnFlagUntilTimeout+0x8e>
 800431a:	2003      	movs	r0, #3
 800431c:	e7f7      	b.n	800430e <UART_WaitOnFlagUntilTimeout+0x8e>

0800431e <HAL_UART_Transmit>:
{
 800431e:	b5f0      	push	{r4, r5, r6, r7, lr}
 8004320:	46c6      	mov	lr, r8
 8004322:	b500      	push	{lr}
 8004324:	b082      	sub	sp, #8
 8004326:	0004      	movs	r4, r0
 8004328:	000d      	movs	r5, r1
 800432a:	4690      	mov	r8, r2
 800432c:	001e      	movs	r6, r3
  if (huart->gState == HAL_UART_STATE_READY)
 800432e:	2388      	movs	r3, #136	@ 0x88
 8004330:	58c3      	ldr	r3, [r0, r3]
 8004332:	2b20      	cmp	r3, #32
 8004334:	d166      	bne.n	8004404 <HAL_UART_Transmit+0xe6>
    if ((pData == NULL) || (Size == 0U))
 8004336:	2900      	cmp	r1, #0
 8004338:	d069      	beq.n	800440e <HAL_UART_Transmit+0xf0>
 800433a:	2a00      	cmp	r2, #0
 800433c:	d069      	beq.n	8004412 <HAL_UART_Transmit+0xf4>
    if ((huart->Init.WordLength == UART_WORDLENGTH_9B) && (huart->Init.Parity == UART_PARITY_NONE))
 800433e:	6882      	ldr	r2, [r0, #8]
 8004340:	2380      	movs	r3, #128	@ 0x80
 8004342:	015b      	lsls	r3, r3, #5
 8004344:	429a      	cmp	r2, r3
 8004346:	d104      	bne.n	8004352 <HAL_UART_Transmit+0x34>
 8004348:	6903      	ldr	r3, [r0, #16]
 800434a:	2b00      	cmp	r3, #0
 800434c:	d101      	bne.n	8004352 <HAL_UART_Transmit+0x34>
      if ((((uint32_t)pData) & 1U) != 0U)
 800434e:	07cb      	lsls	r3, r1, #31
 8004350:	d461      	bmi.n	8004416 <HAL_UART_Transmit+0xf8>
    huart->ErrorCode = HAL_UART_ERROR_NONE;
 8004352:	2390      	movs	r3, #144	@ 0x90
 8004354:	2200      	movs	r2, #0
 8004356:	50e2      	str	r2, [r4, r3]
    huart->gState = HAL_UART_STATE_BUSY_TX;
 8004358:	3b08      	subs	r3, #8
 800435a:	3221      	adds	r2, #33	@ 0x21
 800435c:	50e2      	str	r2, [r4, r3]
    tickstart = HAL_GetTick();
 800435e:	f7fe fbc5 	bl	8002aec <HAL_GetTick>
 8004362:	0007      	movs	r7, r0
    huart->TxXferSize  = Size;
 8004364:	2354      	movs	r3, #84	@ 0x54
 8004366:	4642      	mov	r2, r8
 8004368:	52e2      	strh	r2, [r4, r3]
    huart->TxXferCount = Size;
 800436a:	3302      	adds	r3, #2
 800436c:	52e2      	strh	r2, [r4, r3]
    if ((huart->Init.WordLength == UART_WORDLENGTH_9B) && (huart->Init.Parity == UART_PARITY_NONE))
 800436e:	68a2      	ldr	r2, [r4, #8]
 8004370:	2380      	movs	r3, #128	@ 0x80
 8004372:	015b      	lsls	r3, r3, #5
 8004374:	429a      	cmp	r2, r3
 8004376:	d002      	beq.n	800437e <HAL_UART_Transmit+0x60>
      pdata16bits = NULL;
 8004378:	2300      	movs	r3, #0
 800437a:	4698      	mov	r8, r3
 800437c:	e018      	b.n	80043b0 <HAL_UART_Transmit+0x92>
    if ((huart->Init.WordLength == UART_WORDLENGTH_9B) && (huart->Init.Parity == UART_PARITY_NONE))
 800437e:	6923      	ldr	r3, [r4, #16]
 8004380:	2b00      	cmp	r3, #0
 8004382:	d02a      	beq.n	80043da <HAL_UART_Transmit+0xbc>
      pdata16bits = NULL;
 8004384:	2300      	movs	r3, #0
 8004386:	4698      	mov	r8, r3
 8004388:	e012      	b.n	80043b0 <HAL_UART_Transmit+0x92>
        huart->gState = HAL_UART_STATE_READY;
 800438a:	2388      	movs	r3, #136	@ 0x88
 800438c:	2220      	movs	r2, #32
 800438e:	50e2      	str	r2, [r4, r3]
        return HAL_TIMEOUT;
 8004390:	2003      	movs	r0, #3
 8004392:	e038      	b.n	8004406 <HAL_UART_Transmit+0xe8>
        huart->Instance->TDR = (uint16_t)(*pdata16bits & 0x01FFU);
 8004394:	4643      	mov	r3, r8
 8004396:	881b      	ldrh	r3, [r3, #0]
 8004398:	6822      	ldr	r2, [r4, #0]
 800439a:	05db      	lsls	r3, r3, #23
 800439c:	0ddb      	lsrs	r3, r3, #23
 800439e:	6293      	str	r3, [r2, #40]	@ 0x28
        pdata16bits++;
 80043a0:	2302      	movs	r3, #2
 80043a2:	469c      	mov	ip, r3
 80043a4:	44e0      	add	r8, ip
      huart->TxXferCount--;
 80043a6:	2356      	movs	r3, #86	@ 0x56
 80043a8:	5ae2      	ldrh	r2, [r4, r3]
 80043aa:	3a01      	subs	r2, #1
 80043ac:	b292      	uxth	r2, r2
 80043ae:	52e2      	strh	r2, [r4, r3]
    while (huart->TxXferCount > 0U)
 80043b0:	2356      	movs	r3, #86	@ 0x56
 80043b2:	5ae3      	ldrh	r3, [r4, r3]
 80043b4:	b29b      	uxth	r3, r3
 80043b6:	2b00      	cmp	r3, #0
 80043b8:	d012      	beq.n	80043e0 <HAL_UART_Transmit+0xc2>
      if (UART_WaitOnFlagUntilTimeout(huart, UART_FLAG_TXE, RESET, tickstart, Timeout) != HAL_OK)
 80043ba:	9600      	str	r6, [sp, #0]
 80043bc:	003b      	movs	r3, r7
 80043be:	2200      	movs	r2, #0
 80043c0:	2180      	movs	r1, #128	@ 0x80
 80043c2:	0020      	movs	r0, r4
 80043c4:	f7ff ff5c 	bl	8004280 <UART_WaitOnFlagUntilTimeout>
 80043c8:	2800      	cmp	r0, #0
 80043ca:	d1de      	bne.n	800438a <HAL_UART_Transmit+0x6c>
      if (pdata8bits == NULL)
 80043cc:	2d00      	cmp	r5, #0
 80043ce:	d0e1      	beq.n	8004394 <HAL_UART_Transmit+0x76>
        huart->Instance->TDR = (uint8_t)(*pdata8bits & 0xFFU);
 80043d0:	782a      	ldrb	r2, [r5, #0]
 80043d2:	6823      	ldr	r3, [r4, #0]
 80043d4:	629a      	str	r2, [r3, #40]	@ 0x28
        pdata8bits++;
 80043d6:	3501      	adds	r5, #1
 80043d8:	e7e5      	b.n	80043a6 <HAL_UART_Transmit+0x88>
      pdata16bits = (const uint16_t *) pData;
 80043da:	46a8      	mov	r8, r5
      pdata8bits  = NULL;
 80043dc:	2500      	movs	r5, #0
 80043de:	e7e7      	b.n	80043b0 <HAL_UART_Transmit+0x92>
    if (UART_WaitOnFlagUntilTimeout(huart, UART_FLAG_TC, RESET, tickstart, Timeout) != HAL_OK)
 80043e0:	9600      	str	r6, [sp, #0]
 80043e2:	003b      	movs	r3, r7
 80043e4:	2200      	movs	r2, #0
 80043e6:	2140      	movs	r1, #64	@ 0x40
 80043e8:	0020      	movs	r0, r4
 80043ea:	f7ff ff49 	bl	8004280 <UART_WaitOnFlagUntilTimeout>
 80043ee:	2800      	cmp	r0, #0
 80043f0:	d103      	bne.n	80043fa <HAL_UART_Transmit+0xdc>
    huart->gState = HAL_UART_STATE_READY;
 80043f2:	2388      	movs	r3, #136	@ 0x88
 80043f4:	2220      	movs	r2, #32
 80043f6:	50e2      	str	r2, [r4, r3]
    return HAL_OK;
 80043f8:	e005      	b.n	8004406 <HAL_UART_Transmit+0xe8>
      huart->gState = HAL_UART_STATE_READY;
 80043fa:	2388      	movs	r3, #136	@ 0x88
 80043fc:	2220      	movs	r2, #32
 80043fe:	50e2      	str	r2, [r4, r3]
      return HAL_TIMEOUT;
 8004400:	2003      	movs	r0, #3
 8004402:	e000      	b.n	8004406 <HAL_UART_Transmit+0xe8>
    return HAL_BUSY;
 8004404:	2002      	movs	r0, #2
}
 8004406:	b002      	add	sp, #8
 8004408:	bc80      	pop	{r7}
 800440a:	46b8      	mov	r8, r7
 800440c:	bdf0      	pop	{r4, r5, r6, r7, pc}
      return  HAL_ERROR;
 800440e:	2001      	movs	r0, #1
 8004410:	e7f9      	b.n	8004406 <HAL_UART_Transmit+0xe8>
 8004412:	2001      	movs	r0, #1
 8004414:	e7f7      	b.n	8004406 <HAL_UART_Transmit+0xe8>
        return  HAL_ERROR;
 8004416:	2001      	movs	r0, #1
 8004418:	e7f5      	b.n	8004406 <HAL_UART_Transmit+0xe8>
	...

0800441c <UART_CheckIdleState>:
{
 800441c:	b530      	push	{r4, r5, lr}
 800441e:	b083      	sub	sp, #12
 8004420:	0004      	movs	r4, r0
  huart->ErrorCode = HAL_UART_ERROR_NONE;
 8004422:	2390      	movs	r3, #144	@ 0x90
 8004424:	2200      	movs	r2, #0
 8004426:	50c2      	str	r2, [r0, r3]
  tickstart = HAL_GetTick();
 8004428:	f7fe fb60 	bl	8002aec <HAL_GetTick>
 800442c:	0005      	movs	r5, r0
  if ((huart->Instance->CR1 & USART_CR1_TE) == USART_CR1_TE)
 800442e:	6823      	ldr	r3, [r4, #0]
 8004430:	681b      	ldr	r3, [r3, #0]
 8004432:	071b      	lsls	r3, r3, #28
 8004434:	d410      	bmi.n	8004458 <UART_CheckIdleState+0x3c>
  if ((huart->Instance->CR1 & USART_CR1_RE) == USART_CR1_RE)
 8004436:	6823      	ldr	r3, [r4, #0]
 8004438:	681b      	ldr	r3, [r3, #0]
 800443a:	075b      	lsls	r3, r3, #29
 800443c:	d42b      	bmi.n	8004496 <UART_CheckIdleState+0x7a>
  huart->gState = HAL_UART_STATE_READY;
 800443e:	2320      	movs	r3, #32
 8004440:	2288      	movs	r2, #136	@ 0x88
 8004442:	50a3      	str	r3, [r4, r2]
  huart->RxState = HAL_UART_STATE_READY;
 8004444:	3204      	adds	r2, #4
 8004446:	50a3      	str	r3, [r4, r2]
  huart->ReceptionType = HAL_UART_RECEPTION_STANDARD;
 8004448:	2300      	movs	r3, #0
 800444a:	66e3      	str	r3, [r4, #108]	@ 0x6c
  huart->RxEventType = HAL_UART_RXEVENT_TC;
 800444c:	6723      	str	r3, [r4, #112]	@ 0x70
  __HAL_UNLOCK(huart);
 800444e:	3a08      	subs	r2, #8
 8004450:	54a3      	strb	r3, [r4, r2]
  return HAL_OK;
 8004452:	2000      	movs	r0, #0
}
 8004454:	b003      	add	sp, #12
 8004456:	bd30      	pop	{r4, r5, pc}
    if (UART_WaitOnFlagUntilTimeout(huart, USART_ISR_TEACK, RESET, tickstart, HAL_UART_TIMEOUT_VALUE) != HAL_OK)
 8004458:	2180      	movs	r1, #128	@ 0x80
 800445a:	4b23      	ldr	r3, [pc, #140]	@ (80044e8 <UART_CheckIdleState+0xcc>)
 800445c:	9300      	str	r3, [sp, #0]
 800445e:	0003      	movs	r3, r0
 8004460:	2200      	movs	r2, #0
 8004462:	0389      	lsls	r1, r1, #14
 8004464:	0020      	movs	r0, r4
 8004466:	f7ff ff0b 	bl	8004280 <UART_WaitOnFlagUntilTimeout>
 800446a:	2800      	cmp	r0, #0
 800446c:	d0e3      	beq.n	8004436 <UART_CheckIdleState+0x1a>
  __ASM volatile ("MRS %0, primask" : "=r" (result) );
 800446e:	f3ef 8110 	mrs	r1, PRIMASK
  __ASM volatile ("MSR primask, %0" : : "r" (priMask) : "memory");
 8004472:	2301      	movs	r3, #1
 8004474:	f383 8810 	msr	PRIMASK, r3
      ATOMIC_CLEAR_BIT(huart->Instance->CR1, (USART_CR1_TXEIE_TXFNFIE));
 8004478:	6822      	ldr	r2, [r4, #0]
 800447a:	6813      	ldr	r3, [r2, #0]
 800447c:	2080      	movs	r0, #128	@ 0x80
 800447e:	4383      	bics	r3, r0
 8004480:	6013      	str	r3, [r2, #0]
 8004482:	f381 8810 	msr	PRIMASK, r1
      huart->gState = HAL_UART_STATE_READY;
 8004486:	2388      	movs	r3, #136	@ 0x88
 8004488:	2220      	movs	r2, #32
 800448a:	50e2      	str	r2, [r4, r3]
      __HAL_UNLOCK(huart);
 800448c:	3b04      	subs	r3, #4
 800448e:	2200      	movs	r2, #0
 8004490:	54e2      	strb	r2, [r4, r3]
      return HAL_TIMEOUT;
 8004492:	387d      	subs	r0, #125	@ 0x7d
 8004494:	e7de      	b.n	8004454 <UART_CheckIdleState+0x38>
    if (UART_WaitOnFlagUntilTimeout(huart, USART_ISR_REACK, RESET, tickstart, HAL_UART_TIMEOUT_VALUE) != HAL_OK)
 8004496:	2180      	movs	r1, #128	@ 0x80
 8004498:	4b13      	ldr	r3, [pc, #76]	@ (80044e8 <UART_CheckIdleState+0xcc>)
 800449a:	9300      	str	r3, [sp, #0]
 800449c:	002b      	movs	r3, r5
 800449e:	2200      	movs	r2, #0
 80044a0:	03c9      	lsls	r1, r1, #15
 80044a2:	0020      	movs	r0, r4
 80044a4:	f7ff feec 	bl	8004280 <UART_WaitOnFlagUntilTimeout>
 80044a8:	2800      	cmp	r0, #0
 80044aa:	d0c8      	beq.n	800443e <UART_CheckIdleState+0x22>
  __ASM volatile ("MRS %0, primask" : "=r" (result) );
 80044ac:	f3ef 8010 	mrs	r0, PRIMASK
  __ASM volatile ("MSR primask, %0" : : "r" (priMask) : "memory");
 80044b0:	2201      	movs	r2, #1
 80044b2:	f382 8810 	msr	PRIMASK, r2
      ATOMIC_CLEAR_BIT(huart->Instance->CR1, (USART_CR1_RXNEIE_RXFNEIE | USART_CR1_PEIE));
 80044b6:	6821      	ldr	r1, [r4, #0]
 80044b8:	680b      	ldr	r3, [r1, #0]
 80044ba:	4d0c      	ldr	r5, [pc, #48]	@ (80044ec <UART_CheckIdleState+0xd0>)
 80044bc:	402b      	ands	r3, r5
 80044be:	600b      	str	r3, [r1, #0]
 80044c0:	f380 8810 	msr	PRIMASK, r0
  __ASM volatile ("MRS %0, primask" : "=r" (result) );
 80044c4:	f3ef 8010 	mrs	r0, PRIMASK
  __ASM volatile ("MSR primask, %0" : : "r" (priMask) : "memory");
 80044c8:	f382 8810 	msr	PRIMASK, r2
      ATOMIC_CLEAR_BIT(huart->Instance->CR3, USART_CR3_EIE);
 80044cc:	6821      	ldr	r1, [r4, #0]
 80044ce:	688b      	ldr	r3, [r1, #8]
 80044d0:	4393      	bics	r3, r2
 80044d2:	608b      	str	r3, [r1, #8]
 80044d4:	f380 8810 	msr	PRIMASK, r0
      huart->RxState = HAL_UART_STATE_READY;
 80044d8:	238c      	movs	r3, #140	@ 0x8c
 80044da:	321f      	adds	r2, #31
 80044dc:	50e2      	str	r2, [r4, r3]
      __HAL_UNLOCK(huart);
 80044de:	3b08      	subs	r3, #8
 80044e0:	2200      	movs	r2, #0
 80044e2:	54e2      	strb	r2, [r4, r3]
      return HAL_TIMEOUT;
 80044e4:	2003      	movs	r0, #3
 80044e6:	e7b5      	b.n	8004454 <UART_CheckIdleState+0x38>
 80044e8:	01ffffff 	.word	0x01ffffff
 80044ec:	fffffedf 	.word	0xfffffedf

080044f0 <HAL_UART_Init>:
{
 80044f0:	b510      	push	{r4, lr}
 80044f2:	1e04      	subs	r4, r0, #0
  if (huart == NULL)
 80044f4:	d030      	beq.n	8004558 <HAL_UART_Init+0x68>
  if (huart->gState == HAL_UART_STATE_RESET)
 80044f6:	2388      	movs	r3, #136	@ 0x88
 80044f8:	58c3      	ldr	r3, [r0, r3]
 80044fa:	2b00      	cmp	r3, #0
 80044fc:	d022      	beq.n	8004544 <HAL_UART_Init+0x54>
  huart->gState = HAL_UART_STATE_BUSY;
 80044fe:	2388      	movs	r3, #136	@ 0x88
 8004500:	2224      	movs	r2, #36	@ 0x24
 8004502:	50e2      	str	r2, [r4, r3]
  __HAL_UART_DISABLE(huart);
 8004504:	6822      	ldr	r2, [r4, #0]
 8004506:	6813      	ldr	r3, [r2, #0]
 8004508:	2101      	movs	r1, #1
 800450a:	438b      	bics	r3, r1
 800450c:	6013      	str	r3, [r2, #0]
  if (huart->AdvancedInit.AdvFeatureInit != UART_ADVFEATURE_NO_INIT)
 800450e:	6aa3      	ldr	r3, [r4, #40]	@ 0x28
 8004510:	2b00      	cmp	r3, #0
 8004512:	d11d      	bne.n	8004550 <HAL_UART_Init+0x60>
  if (UART_SetConfig(huart) == HAL_ERROR)
 8004514:	0020      	movs	r0, r4
 8004516:	f7ff fd61 	bl	8003fdc <UART_SetConfig>
 800451a:	2801      	cmp	r0, #1
 800451c:	d011      	beq.n	8004542 <HAL_UART_Init+0x52>
  CLEAR_BIT(huart->Instance->CR2, (USART_CR2_LINEN | USART_CR2_CLKEN));
 800451e:	6822      	ldr	r2, [r4, #0]
 8004520:	6853      	ldr	r3, [r2, #4]
 8004522:	490e      	ldr	r1, [pc, #56]	@ (800455c <HAL_UART_Init+0x6c>)
 8004524:	400b      	ands	r3, r1
 8004526:	6053      	str	r3, [r2, #4]
  CLEAR_BIT(huart->Instance->CR3, (USART_CR3_SCEN | USART_CR3_HDSEL | USART_CR3_IREN));
 8004528:	6822      	ldr	r2, [r4, #0]
 800452a:	6893      	ldr	r3, [r2, #8]
 800452c:	212a      	movs	r1, #42	@ 0x2a
 800452e:	438b      	bics	r3, r1
 8004530:	6093      	str	r3, [r2, #8]
  __HAL_UART_ENABLE(huart);
 8004532:	6822      	ldr	r2, [r4, #0]
 8004534:	6813      	ldr	r3, [r2, #0]
 8004536:	3929      	subs	r1, #41	@ 0x29
 8004538:	430b      	orrs	r3, r1
 800453a:	6013      	str	r3, [r2, #0]
  return (UART_CheckIdleState(huart));
 800453c:	0020      	movs	r0, r4
 800453e:	f7ff ff6d 	bl	800441c <UART_CheckIdleState>
}
 8004542:	bd10      	pop	{r4, pc}
    huart->Lock = HAL_UNLOCKED;
 8004544:	3384      	adds	r3, #132	@ 0x84
 8004546:	2200      	movs	r2, #0
 8004548:	54c2      	strb	r2, [r0, r3]
    HAL_UART_MspInit(huart);
 800454a:	f7fe fa1f 	bl	800298c <HAL_UART_MspInit>
 800454e:	e7d6      	b.n	80044fe <HAL_UART_Init+0xe>
    UART_AdvFeatureConfig(huart);
 8004550:	0020      	movs	r0, r4
 8004552:	f7ff fe25 	bl	80041a0 <UART_AdvFeatureConfig>
 8004556:	e7dd      	b.n	8004514 <HAL_UART_Init+0x24>
    return HAL_ERROR;
 8004558:	2001      	movs	r0, #1
 800455a:	e7f2      	b.n	8004542 <HAL_UART_Init+0x52>
 800455c:	ffffb7ff 	.word	0xffffb7ff

08004560 <UARTEx_SetNbDataToProcess>:
  *       the UART configuration registers.
  * @param huart UART handle.
  * @retval None
  */
static void UARTEx_SetNbDataToProcess(UART_HandleTypeDef *huart)
{
 8004560:	b5f8      	push	{r3, r4, r5, r6, r7, lr}
 8004562:	0004      	movs	r4, r0
  uint8_t rx_fifo_threshold;
  uint8_t tx_fifo_threshold;
  static const uint8_t numerator[] = {1U, 1U, 1U, 3U, 7U, 1U, 0U, 0U};
  static const uint8_t denominator[] = {8U, 4U, 2U, 4U, 8U, 1U, 1U, 1U};

  if (huart->FifoMode == UART_FIFOMODE_DISABLE)
 8004564:	6e43      	ldr	r3, [r0, #100]	@ 0x64
 8004566:	2b00      	cmp	r3, #0
 8004568:	d105      	bne.n	8004576 <UARTEx_SetNbDataToProcess+0x16>
  {
    huart->NbTxDataToProcess = 1U;
 800456a:	3301      	adds	r3, #1
 800456c:	226a      	movs	r2, #106	@ 0x6a
 800456e:	5283      	strh	r3, [r0, r2]
    huart->NbRxDataToProcess = 1U;
 8004570:	3a02      	subs	r2, #2
 8004572:	5283      	strh	r3, [r0, r2]
    huart->NbTxDataToProcess = ((uint16_t)tx_fifo_depth * numerator[tx_fifo_threshold]) /
                               (uint16_t)denominator[tx_fifo_threshold];
    huart->NbRxDataToProcess = ((uint16_t)rx_fifo_depth * numerator[rx_fifo_threshold]) /
                               (uint16_t)denominator[rx_fifo_threshold];
  }
}
 8004574:	bdf8      	pop	{r3, r4, r5, r6, r7, pc}
    rx_fifo_threshold = (uint8_t)(READ_BIT(huart->Instance->CR3, USART_CR3_RXFTCFG) >> USART_CR3_RXFTCFG_Pos);
 8004576:	6802      	ldr	r2, [r0, #0]
 8004578:	6895      	ldr	r5, [r2, #8]
 800457a:	0e6d      	lsrs	r5, r5, #25
 800457c:	2307      	movs	r3, #7
 800457e:	401d      	ands	r5, r3
    tx_fifo_threshold = (uint8_t)(READ_BIT(huart->Instance->CR3, USART_CR3_TXFTCFG) >> USART_CR3_TXFTCFG_Pos);
 8004580:	6892      	ldr	r2, [r2, #8]
 8004582:	0f52      	lsrs	r2, r2, #29
 8004584:	4013      	ands	r3, r2
    huart->NbTxDataToProcess = ((uint16_t)tx_fifo_depth * numerator[tx_fifo_threshold]) /
 8004586:	4f08      	ldr	r7, [pc, #32]	@ (80045a8 <UARTEx_SetNbDataToProcess+0x48>)
 8004588:	5cf8      	ldrb	r0, [r7, r3]
 800458a:	00c0      	lsls	r0, r0, #3
                               (uint16_t)denominator[tx_fifo_threshold];
 800458c:	4e07      	ldr	r6, [pc, #28]	@ (80045ac <UARTEx_SetNbDataToProcess+0x4c>)
 800458e:	5cf1      	ldrb	r1, [r6, r3]
    huart->NbTxDataToProcess = ((uint16_t)tx_fifo_depth * numerator[tx_fifo_threshold]) /
 8004590:	f7fb fe56 	bl	8000240 <__divsi3>
 8004594:	236a      	movs	r3, #106	@ 0x6a
 8004596:	52e0      	strh	r0, [r4, r3]
    huart->NbRxDataToProcess = ((uint16_t)rx_fifo_depth * numerator[rx_fifo_threshold]) /
 8004598:	5d78      	ldrb	r0, [r7, r5]
 800459a:	00c0      	lsls	r0, r0, #3
                               (uint16_t)denominator[rx_fifo_threshold];
 800459c:	5d71      	ldrb	r1, [r6, r5]
    huart->NbRxDataToProcess = ((uint16_t)rx_fifo_depth * numerator[rx_fifo_threshold]) /
 800459e:	f7fb fe4f 	bl	8000240 <__divsi3>
 80045a2:	2368      	movs	r3, #104	@ 0x68
 80045a4:	52e0      	strh	r0, [r4, r3]
}
 80045a6:	e7e5      	b.n	8004574 <UARTEx_SetNbDataToProcess+0x14>
 80045a8:	08005af4 	.word	0x08005af4
 80045ac:	08005aec 	.word	0x08005aec

080045b0 <HAL_UARTEx_DisableFifoMode>:
{
 80045b0:	b570      	push	{r4, r5, r6, lr}
  __HAL_LOCK(huart);
 80045b2:	2384      	movs	r3, #132	@ 0x84
 80045b4:	5cc3      	ldrb	r3, [r0, r3]
 80045b6:	2b01      	cmp	r3, #1
 80045b8:	d015      	beq.n	80045e6 <HAL_UARTEx_DisableFifoMode+0x36>
 80045ba:	2484      	movs	r4, #132	@ 0x84
 80045bc:	2601      	movs	r6, #1
 80045be:	5506      	strb	r6, [r0, r4]
  huart->gState = HAL_UART_STATE_BUSY;
 80045c0:	2588      	movs	r5, #136	@ 0x88
 80045c2:	2324      	movs	r3, #36	@ 0x24
 80045c4:	5143      	str	r3, [r0, r5]
  tmpcr1 = READ_REG(huart->Instance->CR1);
 80045c6:	6802      	ldr	r2, [r0, #0]
 80045c8:	6813      	ldr	r3, [r2, #0]
  __HAL_UART_DISABLE(huart);
 80045ca:	6811      	ldr	r1, [r2, #0]
 80045cc:	43b1      	bics	r1, r6
 80045ce:	6011      	str	r1, [r2, #0]
  CLEAR_BIT(tmpcr1, USART_CR1_FIFOEN);
 80045d0:	4a06      	ldr	r2, [pc, #24]	@ (80045ec <HAL_UARTEx_DisableFifoMode+0x3c>)
 80045d2:	4013      	ands	r3, r2
  huart->FifoMode = UART_FIFOMODE_DISABLE;
 80045d4:	2200      	movs	r2, #0
 80045d6:	6642      	str	r2, [r0, #100]	@ 0x64
  WRITE_REG(huart->Instance->CR1, tmpcr1);
 80045d8:	6801      	ldr	r1, [r0, #0]
 80045da:	600b      	str	r3, [r1, #0]
  huart->gState = HAL_UART_STATE_READY;
 80045dc:	2320      	movs	r3, #32
 80045de:	5143      	str	r3, [r0, r5]
  __HAL_UNLOCK(huart);
 80045e0:	5502      	strb	r2, [r0, r4]
  return HAL_OK;
 80045e2:	2000      	movs	r0, #0
}
 80045e4:	bd70      	pop	{r4, r5, r6, pc}
  __HAL_LOCK(huart);
 80045e6:	2002      	movs	r0, #2
 80045e8:	e7fc      	b.n	80045e4 <HAL_UARTEx_DisableFifoMode+0x34>
 80045ea:	46c0      	nop			@ (mov r8, r8)
 80045ec:	dfffffff 	.word	0xdfffffff

080045f0 <HAL_UARTEx_SetTxFifoThreshold>:
{
 80045f0:	b5f8      	push	{r3, r4, r5, r6, r7, lr}
 80045f2:	0004      	movs	r4, r0
 80045f4:	000a      	movs	r2, r1
  __HAL_LOCK(huart);
 80045f6:	2384      	movs	r3, #132	@ 0x84
 80045f8:	5cc3      	ldrb	r3, [r0, r3]
 80045fa:	2b01      	cmp	r3, #1
 80045fc:	d01b      	beq.n	8004636 <HAL_UARTEx_SetTxFifoThreshold+0x46>
 80045fe:	2584      	movs	r5, #132	@ 0x84
 8004600:	2001      	movs	r0, #1
 8004602:	5560      	strb	r0, [r4, r5]
  huart->gState = HAL_UART_STATE_BUSY;
 8004604:	2688      	movs	r6, #136	@ 0x88
 8004606:	2324      	movs	r3, #36	@ 0x24
 8004608:	51a3      	str	r3, [r4, r6]
  tmpcr1 = READ_REG(huart->Instance->CR1);
 800460a:	6823      	ldr	r3, [r4, #0]
 800460c:	681f      	ldr	r7, [r3, #0]
  __HAL_UART_DISABLE(huart);
 800460e:	6819      	ldr	r1, [r3, #0]
 8004610:	4381      	bics	r1, r0
 8004612:	6019      	str	r1, [r3, #0]
  MODIFY_REG(huart->Instance->CR3, USART_CR3_TXFTCFG, Threshold);
 8004614:	6820      	ldr	r0, [r4, #0]
 8004616:	6883      	ldr	r3, [r0, #8]
 8004618:	00db      	lsls	r3, r3, #3
 800461a:	08d9      	lsrs	r1, r3, #3
 800461c:	4311      	orrs	r1, r2
 800461e:	6081      	str	r1, [r0, #8]
  UARTEx_SetNbDataToProcess(huart);
 8004620:	0020      	movs	r0, r4
 8004622:	f7ff ff9d 	bl	8004560 <UARTEx_SetNbDataToProcess>
  WRITE_REG(huart->Instance->CR1, tmpcr1);
 8004626:	6823      	ldr	r3, [r4, #0]
 8004628:	601f      	str	r7, [r3, #0]
  huart->gState = HAL_UART_STATE_READY;
 800462a:	2320      	movs	r3, #32
 800462c:	51a3      	str	r3, [r4, r6]
  __HAL_UNLOCK(huart);
 800462e:	2300      	movs	r3, #0
 8004630:	5563      	strb	r3, [r4, r5]
  return HAL_OK;
 8004632:	2000      	movs	r0, #0
}
 8004634:	bdf8      	pop	{r3, r4, r5, r6, r7, pc}
  __HAL_LOCK(huart);
 8004636:	2002      	movs	r0, #2
 8004638:	e7fc      	b.n	8004634 <HAL_UARTEx_SetTxFifoThreshold+0x44>
	...

0800463c <HAL_UARTEx_SetRxFifoThreshold>:
{
 800463c:	b5f8      	push	{r3, r4, r5, r6, r7, lr}
 800463e:	0004      	movs	r4, r0
 8004640:	000b      	movs	r3, r1
  __HAL_LOCK(huart);
 8004642:	2284      	movs	r2, #132	@ 0x84
 8004644:	5c82      	ldrb	r2, [r0, r2]
 8004646:	2a01      	cmp	r2, #1
 8004648:	d01b      	beq.n	8004682 <HAL_UARTEx_SetRxFifoThreshold+0x46>
 800464a:	2584      	movs	r5, #132	@ 0x84
 800464c:	2001      	movs	r0, #1
 800464e:	5560      	strb	r0, [r4, r5]
  huart->gState = HAL_UART_STATE_BUSY;
 8004650:	2688      	movs	r6, #136	@ 0x88
 8004652:	2224      	movs	r2, #36	@ 0x24
 8004654:	51a2      	str	r2, [r4, r6]
  tmpcr1 = READ_REG(huart->Instance->CR1);
 8004656:	6822      	ldr	r2, [r4, #0]
 8004658:	6817      	ldr	r7, [r2, #0]
  __HAL_UART_DISABLE(huart);
 800465a:	6811      	ldr	r1, [r2, #0]
 800465c:	4381      	bics	r1, r0
 800465e:	6011      	str	r1, [r2, #0]
  MODIFY_REG(huart->Instance->CR3, USART_CR3_RXFTCFG, Threshold);
 8004660:	6822      	ldr	r2, [r4, #0]
 8004662:	6891      	ldr	r1, [r2, #8]
 8004664:	4808      	ldr	r0, [pc, #32]	@ (8004688 <HAL_UARTEx_SetRxFifoThreshold+0x4c>)
 8004666:	4001      	ands	r1, r0
 8004668:	4319      	orrs	r1, r3
 800466a:	6091      	str	r1, [r2, #8]
  UARTEx_SetNbDataToProcess(huart);
 800466c:	0020      	movs	r0, r4
 800466e:	f7ff ff77 	bl	8004560 <UARTEx_SetNbDataToProcess>
  WRITE_REG(huart->Instance->CR1, tmpcr1);
 8004672:	6823      	ldr	r3, [r4, #0]
 8004674:	601f      	str	r7, [r3, #0]
  huart->gState = HAL_UART_STATE_READY;
 8004676:	2320      	movs	r3, #32
 8004678:	51a3      	str	r3, [r4, r6]
  __HAL_UNLOCK(huart);
 800467a:	2300      	movs	r3, #0
 800467c:	5563      	strb	r3, [r4, r5]
  return HAL_OK;
 800467e:	2000      	movs	r0, #0
}
 8004680:	bdf8      	pop	{r3, r4, r5, r6, r7, pc}
  __HAL_LOCK(huart);
 8004682:	2002      	movs	r0, #2
 8004684:	e7fc      	b.n	8004680 <HAL_UARTEx_SetRxFifoThreshold+0x44>
 8004686:	46c0      	nop			@ (mov r8, r8)
 8004688:	f1ffffff 	.word	0xf1ffffff

0800468c <sniprintf>:
 800468c:	b40c      	push	{r2, r3}
 800468e:	b530      	push	{r4, r5, lr}
 8004690:	4b18      	ldr	r3, [pc, #96]	@ (80046f4 <sniprintf+0x68>)
 8004692:	000c      	movs	r4, r1
 8004694:	681d      	ldr	r5, [r3, #0]
 8004696:	b09d      	sub	sp, #116	@ 0x74
 8004698:	2900      	cmp	r1, #0
 800469a:	da08      	bge.n	80046ae <sniprintf+0x22>
 800469c:	238b      	movs	r3, #139	@ 0x8b
 800469e:	2001      	movs	r0, #1
 80046a0:	602b      	str	r3, [r5, #0]
 80046a2:	4240      	negs	r0, r0
 80046a4:	b01d      	add	sp, #116	@ 0x74
 80046a6:	bc30      	pop	{r4, r5}
 80046a8:	bc08      	pop	{r3}
 80046aa:	b002      	add	sp, #8
 80046ac:	4718      	bx	r3
 80046ae:	2382      	movs	r3, #130	@ 0x82
 80046b0:	466a      	mov	r2, sp
 80046b2:	009b      	lsls	r3, r3, #2
 80046b4:	8293      	strh	r3, [r2, #20]
 80046b6:	2300      	movs	r3, #0
 80046b8:	9002      	str	r0, [sp, #8]
 80046ba:	931b      	str	r3, [sp, #108]	@ 0x6c
 80046bc:	9006      	str	r0, [sp, #24]
 80046be:	4299      	cmp	r1, r3
 80046c0:	d000      	beq.n	80046c4 <sniprintf+0x38>
 80046c2:	1e4b      	subs	r3, r1, #1
 80046c4:	9304      	str	r3, [sp, #16]
 80046c6:	9307      	str	r3, [sp, #28]
 80046c8:	2301      	movs	r3, #1
 80046ca:	466a      	mov	r2, sp
 80046cc:	425b      	negs	r3, r3
 80046ce:	82d3      	strh	r3, [r2, #22]
 80046d0:	0028      	movs	r0, r5
 80046d2:	ab21      	add	r3, sp, #132	@ 0x84
 80046d4:	9a20      	ldr	r2, [sp, #128]	@ 0x80
 80046d6:	a902      	add	r1, sp, #8
 80046d8:	9301      	str	r3, [sp, #4]
 80046da:	f000 f9af 	bl	8004a3c <_svfiprintf_r>
 80046de:	1c43      	adds	r3, r0, #1
 80046e0:	da01      	bge.n	80046e6 <sniprintf+0x5a>
 80046e2:	238b      	movs	r3, #139	@ 0x8b
 80046e4:	602b      	str	r3, [r5, #0]
 80046e6:	2c00      	cmp	r4, #0
 80046e8:	d0dc      	beq.n	80046a4 <sniprintf+0x18>
 80046ea:	2200      	movs	r2, #0
 80046ec:	9b02      	ldr	r3, [sp, #8]
 80046ee:	701a      	strb	r2, [r3, #0]
 80046f0:	e7d8      	b.n	80046a4 <sniprintf+0x18>
 80046f2:	46c0      	nop			@ (mov r8, r8)
 80046f4:	2000002c 	.word	0x2000002c

080046f8 <memmove>:
 80046f8:	b510      	push	{r4, lr}
 80046fa:	4288      	cmp	r0, r1
 80046fc:	d902      	bls.n	8004704 <memmove+0xc>
 80046fe:	188b      	adds	r3, r1, r2
 8004700:	4298      	cmp	r0, r3
 8004702:	d308      	bcc.n	8004716 <memmove+0x1e>
 8004704:	2300      	movs	r3, #0
 8004706:	429a      	cmp	r2, r3
 8004708:	d007      	beq.n	800471a <memmove+0x22>
 800470a:	5ccc      	ldrb	r4, [r1, r3]
 800470c:	54c4      	strb	r4, [r0, r3]
 800470e:	3301      	adds	r3, #1
 8004710:	e7f9      	b.n	8004706 <memmove+0xe>
 8004712:	5c8b      	ldrb	r3, [r1, r2]
 8004714:	5483      	strb	r3, [r0, r2]
 8004716:	3a01      	subs	r2, #1
 8004718:	d2fb      	bcs.n	8004712 <memmove+0x1a>
 800471a:	bd10      	pop	{r4, pc}

0800471c <memset>:
 800471c:	0003      	movs	r3, r0
 800471e:	1882      	adds	r2, r0, r2
 8004720:	4293      	cmp	r3, r2
 8004722:	d100      	bne.n	8004726 <memset+0xa>
 8004724:	4770      	bx	lr
 8004726:	7019      	strb	r1, [r3, #0]
 8004728:	3301      	adds	r3, #1
 800472a:	e7f9      	b.n	8004720 <memset+0x4>

0800472c <__errno>:
 800472c:	4b01      	ldr	r3, [pc, #4]	@ (8004734 <__errno+0x8>)
 800472e:	6818      	ldr	r0, [r3, #0]
 8004730:	4770      	bx	lr
 8004732:	46c0      	nop			@ (mov r8, r8)
 8004734:	2000002c 	.word	0x2000002c

08004738 <__libc_init_array>:
 8004738:	b570      	push	{r4, r5, r6, lr}
 800473a:	2600      	movs	r6, #0
 800473c:	4c0c      	ldr	r4, [pc, #48]	@ (8004770 <__libc_init_array+0x38>)
 800473e:	4d0d      	ldr	r5, [pc, #52]	@ (8004774 <__libc_init_array+0x3c>)
 8004740:	1b64      	subs	r4, r4, r5
 8004742:	10a4      	asrs	r4, r4, #2
 8004744:	42a6      	cmp	r6, r4
 8004746:	d109      	bne.n	800475c <__libc_init_array+0x24>
 8004748:	2600      	movs	r6, #0
 800474a:	f001 f921 	bl	8005990 <_init>
 800474e:	4c0a      	ldr	r4, [pc, #40]	@ (8004778 <__libc_init_array+0x40>)
 8004750:	4d0a      	ldr	r5, [pc, #40]	@ (800477c <__libc_init_array+0x44>)
 8004752:	1b64      	subs	r4, r4, r5
 8004754:	10a4      	asrs	r4, r4, #2
 8004756:	42a6      	cmp	r6, r4
 8004758:	d105      	bne.n	8004766 <__libc_init_array+0x2e>
 800475a:	bd70      	pop	{r4, r5, r6, pc}
 800475c:	00b3      	lsls	r3, r6, #2
 800475e:	58eb      	ldr	r3, [r5, r3]
 8004760:	4798      	blx	r3
 8004762:	3601      	adds	r6, #1
 8004764:	e7ee      	b.n	8004744 <__libc_init_array+0xc>
 8004766:	00b3      	lsls	r3, r6, #2
 8004768:	58eb      	ldr	r3, [r5, r3]
 800476a:	4798      	blx	r3
 800476c:	3601      	adds	r6, #1
 800476e:	e7f2      	b.n	8004756 <__libc_init_array+0x1e>
 8004770:	08005b50 	.word	0x08005b50
 8004774:	08005b50 	.word	0x08005b50
 8004778:	08005b54 	.word	0x08005b54
 800477c:	08005b50 	.word	0x08005b50

08004780 <__retarget_lock_acquire_recursive>:
 8004780:	4770      	bx	lr

08004782 <__retarget_lock_release_recursive>:
 8004782:	4770      	bx	lr

08004784 <_free_r>:
 8004784:	b570      	push	{r4, r5, r6, lr}
 8004786:	0005      	movs	r5, r0
 8004788:	1e0c      	subs	r4, r1, #0
 800478a:	d010      	beq.n	80047ae <_free_r+0x2a>
 800478c:	3c04      	subs	r4, #4
 800478e:	6823      	ldr	r3, [r4, #0]
 8004790:	2b00      	cmp	r3, #0
 8004792:	da00      	bge.n	8004796 <_free_r+0x12>
 8004794:	18e4      	adds	r4, r4, r3
 8004796:	0028      	movs	r0, r5
 8004798:	f000 f8e0 	bl	800495c <__malloc_lock>
 800479c:	4a1d      	ldr	r2, [pc, #116]	@ (8004814 <_free_r+0x90>)
 800479e:	6813      	ldr	r3, [r2, #0]
 80047a0:	2b00      	cmp	r3, #0
 80047a2:	d105      	bne.n	80047b0 <_free_r+0x2c>
 80047a4:	6063      	str	r3, [r4, #4]
 80047a6:	6014      	str	r4, [r2, #0]
 80047a8:	0028      	movs	r0, r5
 80047aa:	f000 f8df 	bl	800496c <__malloc_unlock>
 80047ae:	bd70      	pop	{r4, r5, r6, pc}
 80047b0:	42a3      	cmp	r3, r4
 80047b2:	d908      	bls.n	80047c6 <_free_r+0x42>
 80047b4:	6820      	ldr	r0, [r4, #0]
 80047b6:	1821      	adds	r1, r4, r0
 80047b8:	428b      	cmp	r3, r1
 80047ba:	d1f3      	bne.n	80047a4 <_free_r+0x20>
 80047bc:	6819      	ldr	r1, [r3, #0]
 80047be:	685b      	ldr	r3, [r3, #4]
 80047c0:	1809      	adds	r1, r1, r0
 80047c2:	6021      	str	r1, [r4, #0]
 80047c4:	e7ee      	b.n	80047a4 <_free_r+0x20>
 80047c6:	001a      	movs	r2, r3
 80047c8:	685b      	ldr	r3, [r3, #4]
 80047ca:	2b00      	cmp	r3, #0
 80047cc:	d001      	beq.n	80047d2 <_free_r+0x4e>
 80047ce:	42a3      	cmp	r3, r4
 80047d0:	d9f9      	bls.n	80047c6 <_free_r+0x42>
 80047d2:	6811      	ldr	r1, [r2, #0]
 80047d4:	1850      	adds	r0, r2, r1
 80047d6:	42a0      	cmp	r0, r4
 80047d8:	d10b      	bne.n	80047f2 <_free_r+0x6e>
 80047da:	6820      	ldr	r0, [r4, #0]
 80047dc:	1809      	adds	r1, r1, r0
 80047de:	1850      	adds	r0, r2, r1
 80047e0:	6011      	str	r1, [r2, #0]
 80047e2:	4283      	cmp	r3, r0
 80047e4:	d1e0      	bne.n	80047a8 <_free_r+0x24>
 80047e6:	6818      	ldr	r0, [r3, #0]
 80047e8:	685b      	ldr	r3, [r3, #4]
 80047ea:	1841      	adds	r1, r0, r1
 80047ec:	6011      	str	r1, [r2, #0]
 80047ee:	6053      	str	r3, [r2, #4]
 80047f0:	e7da      	b.n	80047a8 <_free_r+0x24>
 80047f2:	42a0      	cmp	r0, r4
 80047f4:	d902      	bls.n	80047fc <_free_r+0x78>
 80047f6:	230c      	movs	r3, #12
 80047f8:	602b      	str	r3, [r5, #0]
 80047fa:	e7d5      	b.n	80047a8 <_free_r+0x24>
 80047fc:	6820      	ldr	r0, [r4, #0]
 80047fe:	1821      	adds	r1, r4, r0
 8004800:	428b      	cmp	r3, r1
 8004802:	d103      	bne.n	800480c <_free_r+0x88>
 8004804:	6819      	ldr	r1, [r3, #0]
 8004806:	685b      	ldr	r3, [r3, #4]
 8004808:	1809      	adds	r1, r1, r0
 800480a:	6021      	str	r1, [r4, #0]
 800480c:	6063      	str	r3, [r4, #4]
 800480e:	6054      	str	r4, [r2, #4]
 8004810:	e7ca      	b.n	80047a8 <_free_r+0x24>
 8004812:	46c0      	nop			@ (mov r8, r8)
 8004814:	20000364 	.word	0x20000364

08004818 <sbrk_aligned>:
 8004818:	b570      	push	{r4, r5, r6, lr}
 800481a:	4e0f      	ldr	r6, [pc, #60]	@ (8004858 <sbrk_aligned+0x40>)
 800481c:	000d      	movs	r5, r1
 800481e:	6831      	ldr	r1, [r6, #0]
 8004820:	0004      	movs	r4, r0
 8004822:	2900      	cmp	r1, #0
 8004824:	d102      	bne.n	800482c <sbrk_aligned+0x14>
 8004826:	f000 fb83 	bl	8004f30 <_sbrk_r>
 800482a:	6030      	str	r0, [r6, #0]
 800482c:	0029      	movs	r1, r5
 800482e:	0020      	movs	r0, r4
 8004830:	f000 fb7e 	bl	8004f30 <_sbrk_r>
 8004834:	1c43      	adds	r3, r0, #1
 8004836:	d103      	bne.n	8004840 <sbrk_aligned+0x28>
 8004838:	2501      	movs	r5, #1
 800483a:	426d      	negs	r5, r5
 800483c:	0028      	movs	r0, r5
 800483e:	bd70      	pop	{r4, r5, r6, pc}
 8004840:	2303      	movs	r3, #3
 8004842:	1cc5      	adds	r5, r0, #3
 8004844:	439d      	bics	r5, r3
 8004846:	42a8      	cmp	r0, r5
 8004848:	d0f8      	beq.n	800483c <sbrk_aligned+0x24>
 800484a:	1a29      	subs	r1, r5, r0
 800484c:	0020      	movs	r0, r4
 800484e:	f000 fb6f 	bl	8004f30 <_sbrk_r>
 8004852:	3001      	adds	r0, #1
 8004854:	d1f2      	bne.n	800483c <sbrk_aligned+0x24>
 8004856:	e7ef      	b.n	8004838 <sbrk_aligned+0x20>
 8004858:	20000360 	.word	0x20000360

0800485c <_malloc_r>:
 800485c:	b5f7      	push	{r0, r1, r2, r4, r5, r6, r7, lr}
 800485e:	2203      	movs	r2, #3
 8004860:	1ccb      	adds	r3, r1, #3
 8004862:	4393      	bics	r3, r2
 8004864:	3308      	adds	r3, #8
 8004866:	0005      	movs	r5, r0
 8004868:	001f      	movs	r7, r3
 800486a:	2b0c      	cmp	r3, #12
 800486c:	d234      	bcs.n	80048d8 <_malloc_r+0x7c>
 800486e:	270c      	movs	r7, #12
 8004870:	42b9      	cmp	r1, r7
 8004872:	d833      	bhi.n	80048dc <_malloc_r+0x80>
 8004874:	0028      	movs	r0, r5
 8004876:	f000 f871 	bl	800495c <__malloc_lock>
 800487a:	4e37      	ldr	r6, [pc, #220]	@ (8004958 <_malloc_r+0xfc>)
 800487c:	6833      	ldr	r3, [r6, #0]
 800487e:	001c      	movs	r4, r3
 8004880:	2c00      	cmp	r4, #0
 8004882:	d12f      	bne.n	80048e4 <_malloc_r+0x88>
 8004884:	0039      	movs	r1, r7
 8004886:	0028      	movs	r0, r5
 8004888:	f7ff ffc6 	bl	8004818 <sbrk_aligned>
 800488c:	0004      	movs	r4, r0
 800488e:	1c43      	adds	r3, r0, #1
 8004890:	d15f      	bne.n	8004952 <_malloc_r+0xf6>
 8004892:	6834      	ldr	r4, [r6, #0]
 8004894:	9400      	str	r4, [sp, #0]
 8004896:	9b00      	ldr	r3, [sp, #0]
 8004898:	2b00      	cmp	r3, #0
 800489a:	d14a      	bne.n	8004932 <_malloc_r+0xd6>
 800489c:	2c00      	cmp	r4, #0
 800489e:	d052      	beq.n	8004946 <_malloc_r+0xea>
 80048a0:	6823      	ldr	r3, [r4, #0]
 80048a2:	0028      	movs	r0, r5
 80048a4:	18e3      	adds	r3, r4, r3
 80048a6:	9900      	ldr	r1, [sp, #0]
 80048a8:	9301      	str	r3, [sp, #4]
 80048aa:	f000 fb41 	bl	8004f30 <_sbrk_r>
 80048ae:	9b01      	ldr	r3, [sp, #4]
 80048b0:	4283      	cmp	r3, r0
 80048b2:	d148      	bne.n	8004946 <_malloc_r+0xea>
 80048b4:	6823      	ldr	r3, [r4, #0]
 80048b6:	0028      	movs	r0, r5
 80048b8:	1aff      	subs	r7, r7, r3
 80048ba:	0039      	movs	r1, r7
 80048bc:	f7ff ffac 	bl	8004818 <sbrk_aligned>
 80048c0:	3001      	adds	r0, #1
 80048c2:	d040      	beq.n	8004946 <_malloc_r+0xea>
 80048c4:	6823      	ldr	r3, [r4, #0]
 80048c6:	19db      	adds	r3, r3, r7
 80048c8:	6023      	str	r3, [r4, #0]
 80048ca:	6833      	ldr	r3, [r6, #0]
 80048cc:	685a      	ldr	r2, [r3, #4]
 80048ce:	2a00      	cmp	r2, #0
 80048d0:	d133      	bne.n	800493a <_malloc_r+0xde>
 80048d2:	9b00      	ldr	r3, [sp, #0]
 80048d4:	6033      	str	r3, [r6, #0]
 80048d6:	e019      	b.n	800490c <_malloc_r+0xb0>
 80048d8:	2b00      	cmp	r3, #0
 80048da:	dac9      	bge.n	8004870 <_malloc_r+0x14>
 80048dc:	230c      	movs	r3, #12
 80048de:	602b      	str	r3, [r5, #0]
 80048e0:	2000      	movs	r0, #0
 80048e2:	bdfe      	pop	{r1, r2, r3, r4, r5, r6, r7, pc}
 80048e4:	6821      	ldr	r1, [r4, #0]
 80048e6:	1bc9      	subs	r1, r1, r7
 80048e8:	d420      	bmi.n	800492c <_malloc_r+0xd0>
 80048ea:	290b      	cmp	r1, #11
 80048ec:	d90a      	bls.n	8004904 <_malloc_r+0xa8>
 80048ee:	19e2      	adds	r2, r4, r7
 80048f0:	6027      	str	r7, [r4, #0]
 80048f2:	42a3      	cmp	r3, r4
 80048f4:	d104      	bne.n	8004900 <_malloc_r+0xa4>
 80048f6:	6032      	str	r2, [r6, #0]
 80048f8:	6863      	ldr	r3, [r4, #4]
 80048fa:	6011      	str	r1, [r2, #0]
 80048fc:	6053      	str	r3, [r2, #4]
 80048fe:	e005      	b.n	800490c <_malloc_r+0xb0>
 8004900:	605a      	str	r2, [r3, #4]
 8004902:	e7f9      	b.n	80048f8 <_malloc_r+0x9c>
 8004904:	6862      	ldr	r2, [r4, #4]
 8004906:	42a3      	cmp	r3, r4
 8004908:	d10e      	bne.n	8004928 <_malloc_r+0xcc>
 800490a:	6032      	str	r2, [r6, #0]
 800490c:	0028      	movs	r0, r5
 800490e:	f000 f82d 	bl	800496c <__malloc_unlock>
 8004912:	0020      	movs	r0, r4
 8004914:	2207      	movs	r2, #7
 8004916:	300b      	adds	r0, #11
 8004918:	1d23      	adds	r3, r4, #4
 800491a:	4390      	bics	r0, r2
 800491c:	1ac2      	subs	r2, r0, r3
 800491e:	4298      	cmp	r0, r3
 8004920:	d0df      	beq.n	80048e2 <_malloc_r+0x86>
 8004922:	1a1b      	subs	r3, r3, r0
 8004924:	50a3      	str	r3, [r4, r2]
 8004926:	e7dc      	b.n	80048e2 <_malloc_r+0x86>
 8004928:	605a      	str	r2, [r3, #4]
 800492a:	e7ef      	b.n	800490c <_malloc_r+0xb0>
 800492c:	0023      	movs	r3, r4
 800492e:	6864      	ldr	r4, [r4, #4]
 8004930:	e7a6      	b.n	8004880 <_malloc_r+0x24>
 8004932:	9c00      	ldr	r4, [sp, #0]
 8004934:	6863      	ldr	r3, [r4, #4]
 8004936:	9300      	str	r3, [sp, #0]
 8004938:	e7ad      	b.n	8004896 <_malloc_r+0x3a>
 800493a:	001a      	movs	r2, r3
 800493c:	685b      	ldr	r3, [r3, #4]
 800493e:	42a3      	cmp	r3, r4
 8004940:	d1fb      	bne.n	800493a <_malloc_r+0xde>
 8004942:	2300      	movs	r3, #0
 8004944:	e7da      	b.n	80048fc <_malloc_r+0xa0>
 8004946:	230c      	movs	r3, #12
 8004948:	0028      	movs	r0, r5
 800494a:	602b      	str	r3, [r5, #0]
 800494c:	f000 f80e 	bl	800496c <__malloc_unlock>
 8004950:	e7c6      	b.n	80048e0 <_malloc_r+0x84>
 8004952:	6007      	str	r7, [r0, #0]
 8004954:	e7da      	b.n	800490c <_malloc_r+0xb0>
 8004956:	46c0      	nop			@ (mov r8, r8)
 8004958:	20000364 	.word	0x20000364

0800495c <__malloc_lock>:
 800495c:	b510      	push	{r4, lr}
 800495e:	4802      	ldr	r0, [pc, #8]	@ (8004968 <__malloc_lock+0xc>)
 8004960:	f7ff ff0e 	bl	8004780 <__retarget_lock_acquire_recursive>
 8004964:	bd10      	pop	{r4, pc}
 8004966:	46c0      	nop			@ (mov r8, r8)
 8004968:	2000035c 	.word	0x2000035c

0800496c <__malloc_unlock>:
 800496c:	b510      	push	{r4, lr}
 800496e:	4802      	ldr	r0, [pc, #8]	@ (8004978 <__malloc_unlock+0xc>)
 8004970:	f7ff ff07 	bl	8004782 <__retarget_lock_release_recursive>
 8004974:	bd10      	pop	{r4, pc}
 8004976:	46c0      	nop			@ (mov r8, r8)
 8004978:	2000035c 	.word	0x2000035c

0800497c <__ssputs_r>:
 800497c:	b5f0      	push	{r4, r5, r6, r7, lr}
 800497e:	688e      	ldr	r6, [r1, #8]
 8004980:	b085      	sub	sp, #20
 8004982:	001f      	movs	r7, r3
 8004984:	000c      	movs	r4, r1
 8004986:	680b      	ldr	r3, [r1, #0]
 8004988:	9002      	str	r0, [sp, #8]
 800498a:	9203      	str	r2, [sp, #12]
 800498c:	42be      	cmp	r6, r7
 800498e:	d830      	bhi.n	80049f2 <__ssputs_r+0x76>
 8004990:	210c      	movs	r1, #12
 8004992:	5e62      	ldrsh	r2, [r4, r1]
 8004994:	2190      	movs	r1, #144	@ 0x90
 8004996:	00c9      	lsls	r1, r1, #3
 8004998:	420a      	tst	r2, r1
 800499a:	d028      	beq.n	80049ee <__ssputs_r+0x72>
 800499c:	2003      	movs	r0, #3
 800499e:	6921      	ldr	r1, [r4, #16]
 80049a0:	1a5b      	subs	r3, r3, r1
 80049a2:	9301      	str	r3, [sp, #4]
 80049a4:	6963      	ldr	r3, [r4, #20]
 80049a6:	4343      	muls	r3, r0
 80049a8:	9801      	ldr	r0, [sp, #4]
 80049aa:	0fdd      	lsrs	r5, r3, #31
 80049ac:	18ed      	adds	r5, r5, r3
 80049ae:	1c7b      	adds	r3, r7, #1
 80049b0:	181b      	adds	r3, r3, r0
 80049b2:	106d      	asrs	r5, r5, #1
 80049b4:	42ab      	cmp	r3, r5
 80049b6:	d900      	bls.n	80049ba <__ssputs_r+0x3e>
 80049b8:	001d      	movs	r5, r3
 80049ba:	0552      	lsls	r2, r2, #21
 80049bc:	d528      	bpl.n	8004a10 <__ssputs_r+0x94>
 80049be:	0029      	movs	r1, r5
 80049c0:	9802      	ldr	r0, [sp, #8]
 80049c2:	f7ff ff4b 	bl	800485c <_malloc_r>
 80049c6:	1e06      	subs	r6, r0, #0
 80049c8:	d02c      	beq.n	8004a24 <__ssputs_r+0xa8>
 80049ca:	9a01      	ldr	r2, [sp, #4]
 80049cc:	6921      	ldr	r1, [r4, #16]
 80049ce:	f000 facc 	bl	8004f6a <memcpy>
 80049d2:	89a2      	ldrh	r2, [r4, #12]
 80049d4:	4b18      	ldr	r3, [pc, #96]	@ (8004a38 <__ssputs_r+0xbc>)
 80049d6:	401a      	ands	r2, r3
 80049d8:	2380      	movs	r3, #128	@ 0x80
 80049da:	4313      	orrs	r3, r2
 80049dc:	81a3      	strh	r3, [r4, #12]
 80049de:	9b01      	ldr	r3, [sp, #4]
 80049e0:	6126      	str	r6, [r4, #16]
 80049e2:	18f6      	adds	r6, r6, r3
 80049e4:	6026      	str	r6, [r4, #0]
 80049e6:	003e      	movs	r6, r7
 80049e8:	6165      	str	r5, [r4, #20]
 80049ea:	1aed      	subs	r5, r5, r3
 80049ec:	60a5      	str	r5, [r4, #8]
 80049ee:	42be      	cmp	r6, r7
 80049f0:	d900      	bls.n	80049f4 <__ssputs_r+0x78>
 80049f2:	003e      	movs	r6, r7
 80049f4:	0032      	movs	r2, r6
 80049f6:	9903      	ldr	r1, [sp, #12]
 80049f8:	6820      	ldr	r0, [r4, #0]
 80049fa:	f7ff fe7d 	bl	80046f8 <memmove>
 80049fe:	2000      	movs	r0, #0
 8004a00:	68a3      	ldr	r3, [r4, #8]
 8004a02:	1b9b      	subs	r3, r3, r6
 8004a04:	60a3      	str	r3, [r4, #8]
 8004a06:	6823      	ldr	r3, [r4, #0]
 8004a08:	199b      	adds	r3, r3, r6
 8004a0a:	6023      	str	r3, [r4, #0]
 8004a0c:	b005      	add	sp, #20
 8004a0e:	bdf0      	pop	{r4, r5, r6, r7, pc}
 8004a10:	002a      	movs	r2, r5
 8004a12:	9802      	ldr	r0, [sp, #8]
 8004a14:	f000 fab2 	bl	8004f7c <_realloc_r>
 8004a18:	1e06      	subs	r6, r0, #0
 8004a1a:	d1e0      	bne.n	80049de <__ssputs_r+0x62>
 8004a1c:	6921      	ldr	r1, [r4, #16]
 8004a1e:	9802      	ldr	r0, [sp, #8]
 8004a20:	f7ff feb0 	bl	8004784 <_free_r>
 8004a24:	230c      	movs	r3, #12
 8004a26:	2001      	movs	r0, #1
 8004a28:	9a02      	ldr	r2, [sp, #8]
 8004a2a:	4240      	negs	r0, r0
 8004a2c:	6013      	str	r3, [r2, #0]
 8004a2e:	89a2      	ldrh	r2, [r4, #12]
 8004a30:	3334      	adds	r3, #52	@ 0x34
 8004a32:	4313      	orrs	r3, r2
 8004a34:	81a3      	strh	r3, [r4, #12]
 8004a36:	e7e9      	b.n	8004a0c <__ssputs_r+0x90>
 8004a38:	fffffb7f 	.word	0xfffffb7f

08004a3c <_svfiprintf_r>:
 8004a3c:	b5f0      	push	{r4, r5, r6, r7, lr}
 8004a3e:	b0a1      	sub	sp, #132	@ 0x84
 8004a40:	9003      	str	r0, [sp, #12]
 8004a42:	001d      	movs	r5, r3
 8004a44:	898b      	ldrh	r3, [r1, #12]
 8004a46:	000f      	movs	r7, r1
 8004a48:	0016      	movs	r6, r2
 8004a4a:	061b      	lsls	r3, r3, #24
 8004a4c:	d511      	bpl.n	8004a72 <_svfiprintf_r+0x36>
 8004a4e:	690b      	ldr	r3, [r1, #16]
 8004a50:	2b00      	cmp	r3, #0
 8004a52:	d10e      	bne.n	8004a72 <_svfiprintf_r+0x36>
 8004a54:	2140      	movs	r1, #64	@ 0x40
 8004a56:	f7ff ff01 	bl	800485c <_malloc_r>
 8004a5a:	6038      	str	r0, [r7, #0]
 8004a5c:	6138      	str	r0, [r7, #16]
 8004a5e:	2800      	cmp	r0, #0
 8004a60:	d105      	bne.n	8004a6e <_svfiprintf_r+0x32>
 8004a62:	230c      	movs	r3, #12
 8004a64:	9a03      	ldr	r2, [sp, #12]
 8004a66:	6013      	str	r3, [r2, #0]
 8004a68:	2001      	movs	r0, #1
 8004a6a:	4240      	negs	r0, r0
 8004a6c:	e0cf      	b.n	8004c0e <_svfiprintf_r+0x1d2>
 8004a6e:	2340      	movs	r3, #64	@ 0x40
 8004a70:	617b      	str	r3, [r7, #20]
 8004a72:	2300      	movs	r3, #0
 8004a74:	ac08      	add	r4, sp, #32
 8004a76:	6163      	str	r3, [r4, #20]
 8004a78:	3320      	adds	r3, #32
 8004a7a:	7663      	strb	r3, [r4, #25]
 8004a7c:	3310      	adds	r3, #16
 8004a7e:	76a3      	strb	r3, [r4, #26]
 8004a80:	9507      	str	r5, [sp, #28]
 8004a82:	0035      	movs	r5, r6
 8004a84:	782b      	ldrb	r3, [r5, #0]
 8004a86:	2b00      	cmp	r3, #0
 8004a88:	d001      	beq.n	8004a8e <_svfiprintf_r+0x52>
 8004a8a:	2b25      	cmp	r3, #37	@ 0x25
 8004a8c:	d148      	bne.n	8004b20 <_svfiprintf_r+0xe4>
 8004a8e:	1bab      	subs	r3, r5, r6
 8004a90:	9305      	str	r3, [sp, #20]
 8004a92:	42b5      	cmp	r5, r6
 8004a94:	d00b      	beq.n	8004aae <_svfiprintf_r+0x72>
 8004a96:	0032      	movs	r2, r6
 8004a98:	0039      	movs	r1, r7
 8004a9a:	9803      	ldr	r0, [sp, #12]
 8004a9c:	f7ff ff6e 	bl	800497c <__ssputs_r>
 8004aa0:	3001      	adds	r0, #1
 8004aa2:	d100      	bne.n	8004aa6 <_svfiprintf_r+0x6a>
 8004aa4:	e0ae      	b.n	8004c04 <_svfiprintf_r+0x1c8>
 8004aa6:	6963      	ldr	r3, [r4, #20]
 8004aa8:	9a05      	ldr	r2, [sp, #20]
 8004aaa:	189b      	adds	r3, r3, r2
 8004aac:	6163      	str	r3, [r4, #20]
 8004aae:	782b      	ldrb	r3, [r5, #0]
 8004ab0:	2b00      	cmp	r3, #0
 8004ab2:	d100      	bne.n	8004ab6 <_svfiprintf_r+0x7a>
 8004ab4:	e0a6      	b.n	8004c04 <_svfiprintf_r+0x1c8>
 8004ab6:	2201      	movs	r2, #1
 8004ab8:	2300      	movs	r3, #0
 8004aba:	4252      	negs	r2, r2
 8004abc:	6062      	str	r2, [r4, #4]
 8004abe:	a904      	add	r1, sp, #16
 8004ac0:	3254      	adds	r2, #84	@ 0x54
 8004ac2:	1852      	adds	r2, r2, r1
 8004ac4:	1c6e      	adds	r6, r5, #1
 8004ac6:	6023      	str	r3, [r4, #0]
 8004ac8:	60e3      	str	r3, [r4, #12]
 8004aca:	60a3      	str	r3, [r4, #8]
 8004acc:	7013      	strb	r3, [r2, #0]
 8004ace:	65a3      	str	r3, [r4, #88]	@ 0x58
 8004ad0:	4b54      	ldr	r3, [pc, #336]	@ (8004c24 <_svfiprintf_r+0x1e8>)
 8004ad2:	2205      	movs	r2, #5
 8004ad4:	0018      	movs	r0, r3
 8004ad6:	7831      	ldrb	r1, [r6, #0]
 8004ad8:	9305      	str	r3, [sp, #20]
 8004ada:	f000 fa3b 	bl	8004f54 <memchr>
 8004ade:	1c75      	adds	r5, r6, #1
 8004ae0:	2800      	cmp	r0, #0
 8004ae2:	d11f      	bne.n	8004b24 <_svfiprintf_r+0xe8>
 8004ae4:	6822      	ldr	r2, [r4, #0]
 8004ae6:	06d3      	lsls	r3, r2, #27
 8004ae8:	d504      	bpl.n	8004af4 <_svfiprintf_r+0xb8>
 8004aea:	2353      	movs	r3, #83	@ 0x53
 8004aec:	a904      	add	r1, sp, #16
 8004aee:	185b      	adds	r3, r3, r1
 8004af0:	2120      	movs	r1, #32
 8004af2:	7019      	strb	r1, [r3, #0]
 8004af4:	0713      	lsls	r3, r2, #28
 8004af6:	d504      	bpl.n	8004b02 <_svfiprintf_r+0xc6>
 8004af8:	2353      	movs	r3, #83	@ 0x53
 8004afa:	a904      	add	r1, sp, #16
 8004afc:	185b      	adds	r3, r3, r1
 8004afe:	212b      	movs	r1, #43	@ 0x2b
 8004b00:	7019      	strb	r1, [r3, #0]
 8004b02:	7833      	ldrb	r3, [r6, #0]
 8004b04:	2b2a      	cmp	r3, #42	@ 0x2a
 8004b06:	d016      	beq.n	8004b36 <_svfiprintf_r+0xfa>
 8004b08:	0035      	movs	r5, r6
 8004b0a:	2100      	movs	r1, #0
 8004b0c:	200a      	movs	r0, #10
 8004b0e:	68e3      	ldr	r3, [r4, #12]
 8004b10:	782a      	ldrb	r2, [r5, #0]
 8004b12:	1c6e      	adds	r6, r5, #1
 8004b14:	3a30      	subs	r2, #48	@ 0x30
 8004b16:	2a09      	cmp	r2, #9
 8004b18:	d950      	bls.n	8004bbc <_svfiprintf_r+0x180>
 8004b1a:	2900      	cmp	r1, #0
 8004b1c:	d111      	bne.n	8004b42 <_svfiprintf_r+0x106>
 8004b1e:	e017      	b.n	8004b50 <_svfiprintf_r+0x114>
 8004b20:	3501      	adds	r5, #1
 8004b22:	e7af      	b.n	8004a84 <_svfiprintf_r+0x48>
 8004b24:	9b05      	ldr	r3, [sp, #20]
 8004b26:	6822      	ldr	r2, [r4, #0]
 8004b28:	1ac0      	subs	r0, r0, r3
 8004b2a:	2301      	movs	r3, #1
 8004b2c:	4083      	lsls	r3, r0
 8004b2e:	4313      	orrs	r3, r2
 8004b30:	002e      	movs	r6, r5
 8004b32:	6023      	str	r3, [r4, #0]
 8004b34:	e7cc      	b.n	8004ad0 <_svfiprintf_r+0x94>
 8004b36:	9b07      	ldr	r3, [sp, #28]
 8004b38:	1d19      	adds	r1, r3, #4
 8004b3a:	681b      	ldr	r3, [r3, #0]
 8004b3c:	9107      	str	r1, [sp, #28]
 8004b3e:	2b00      	cmp	r3, #0
 8004b40:	db01      	blt.n	8004b46 <_svfiprintf_r+0x10a>
 8004b42:	930b      	str	r3, [sp, #44]	@ 0x2c
 8004b44:	e004      	b.n	8004b50 <_svfiprintf_r+0x114>
 8004b46:	425b      	negs	r3, r3
 8004b48:	60e3      	str	r3, [r4, #12]
 8004b4a:	2302      	movs	r3, #2
 8004b4c:	4313      	orrs	r3, r2
 8004b4e:	6023      	str	r3, [r4, #0]
 8004b50:	782b      	ldrb	r3, [r5, #0]
 8004b52:	2b2e      	cmp	r3, #46	@ 0x2e
 8004b54:	d10c      	bne.n	8004b70 <_svfiprintf_r+0x134>
 8004b56:	786b      	ldrb	r3, [r5, #1]
 8004b58:	2b2a      	cmp	r3, #42	@ 0x2a
 8004b5a:	d134      	bne.n	8004bc6 <_svfiprintf_r+0x18a>
 8004b5c:	9b07      	ldr	r3, [sp, #28]
 8004b5e:	3502      	adds	r5, #2
 8004b60:	1d1a      	adds	r2, r3, #4
 8004b62:	681b      	ldr	r3, [r3, #0]
 8004b64:	9207      	str	r2, [sp, #28]
 8004b66:	2b00      	cmp	r3, #0
 8004b68:	da01      	bge.n	8004b6e <_svfiprintf_r+0x132>
 8004b6a:	2301      	movs	r3, #1
 8004b6c:	425b      	negs	r3, r3
 8004b6e:	9309      	str	r3, [sp, #36]	@ 0x24
 8004b70:	4e2d      	ldr	r6, [pc, #180]	@ (8004c28 <_svfiprintf_r+0x1ec>)
 8004b72:	2203      	movs	r2, #3
 8004b74:	0030      	movs	r0, r6
 8004b76:	7829      	ldrb	r1, [r5, #0]
 8004b78:	f000 f9ec 	bl	8004f54 <memchr>
 8004b7c:	2800      	cmp	r0, #0
 8004b7e:	d006      	beq.n	8004b8e <_svfiprintf_r+0x152>
 8004b80:	2340      	movs	r3, #64	@ 0x40
 8004b82:	1b80      	subs	r0, r0, r6
 8004b84:	4083      	lsls	r3, r0
 8004b86:	6822      	ldr	r2, [r4, #0]
 8004b88:	3501      	adds	r5, #1
 8004b8a:	4313      	orrs	r3, r2
 8004b8c:	6023      	str	r3, [r4, #0]
 8004b8e:	7829      	ldrb	r1, [r5, #0]
 8004b90:	2206      	movs	r2, #6
 8004b92:	4826      	ldr	r0, [pc, #152]	@ (8004c2c <_svfiprintf_r+0x1f0>)
 8004b94:	1c6e      	adds	r6, r5, #1
 8004b96:	7621      	strb	r1, [r4, #24]
 8004b98:	f000 f9dc 	bl	8004f54 <memchr>
 8004b9c:	2800      	cmp	r0, #0
 8004b9e:	d038      	beq.n	8004c12 <_svfiprintf_r+0x1d6>
 8004ba0:	4b23      	ldr	r3, [pc, #140]	@ (8004c30 <_svfiprintf_r+0x1f4>)
 8004ba2:	2b00      	cmp	r3, #0
 8004ba4:	d122      	bne.n	8004bec <_svfiprintf_r+0x1b0>
 8004ba6:	2207      	movs	r2, #7
 8004ba8:	9b07      	ldr	r3, [sp, #28]
 8004baa:	3307      	adds	r3, #7
 8004bac:	4393      	bics	r3, r2
 8004bae:	3308      	adds	r3, #8
 8004bb0:	9307      	str	r3, [sp, #28]
 8004bb2:	6963      	ldr	r3, [r4, #20]
 8004bb4:	9a04      	ldr	r2, [sp, #16]
 8004bb6:	189b      	adds	r3, r3, r2
 8004bb8:	6163      	str	r3, [r4, #20]
 8004bba:	e762      	b.n	8004a82 <_svfiprintf_r+0x46>
 8004bbc:	4343      	muls	r3, r0
 8004bbe:	0035      	movs	r5, r6
 8004bc0:	2101      	movs	r1, #1
 8004bc2:	189b      	adds	r3, r3, r2
 8004bc4:	e7a4      	b.n	8004b10 <_svfiprintf_r+0xd4>
 8004bc6:	2300      	movs	r3, #0
 8004bc8:	200a      	movs	r0, #10
 8004bca:	0019      	movs	r1, r3
 8004bcc:	3501      	adds	r5, #1
 8004bce:	6063      	str	r3, [r4, #4]
 8004bd0:	782a      	ldrb	r2, [r5, #0]
 8004bd2:	1c6e      	adds	r6, r5, #1
 8004bd4:	3a30      	subs	r2, #48	@ 0x30
 8004bd6:	2a09      	cmp	r2, #9
 8004bd8:	d903      	bls.n	8004be2 <_svfiprintf_r+0x1a6>
 8004bda:	2b00      	cmp	r3, #0
 8004bdc:	d0c8      	beq.n	8004b70 <_svfiprintf_r+0x134>
 8004bde:	9109      	str	r1, [sp, #36]	@ 0x24
 8004be0:	e7c6      	b.n	8004b70 <_svfiprintf_r+0x134>
 8004be2:	4341      	muls	r1, r0
 8004be4:	0035      	movs	r5, r6
 8004be6:	2301      	movs	r3, #1
 8004be8:	1889      	adds	r1, r1, r2
 8004bea:	e7f1      	b.n	8004bd0 <_svfiprintf_r+0x194>
 8004bec:	aa07      	add	r2, sp, #28
 8004bee:	9200      	str	r2, [sp, #0]
 8004bf0:	0021      	movs	r1, r4
 8004bf2:	003a      	movs	r2, r7
 8004bf4:	4b0f      	ldr	r3, [pc, #60]	@ (8004c34 <_svfiprintf_r+0x1f8>)
 8004bf6:	9803      	ldr	r0, [sp, #12]
 8004bf8:	e000      	b.n	8004bfc <_svfiprintf_r+0x1c0>
 8004bfa:	bf00      	nop
 8004bfc:	9004      	str	r0, [sp, #16]
 8004bfe:	9b04      	ldr	r3, [sp, #16]
 8004c00:	3301      	adds	r3, #1
 8004c02:	d1d6      	bne.n	8004bb2 <_svfiprintf_r+0x176>
 8004c04:	89bb      	ldrh	r3, [r7, #12]
 8004c06:	980d      	ldr	r0, [sp, #52]	@ 0x34
 8004c08:	065b      	lsls	r3, r3, #25
 8004c0a:	d500      	bpl.n	8004c0e <_svfiprintf_r+0x1d2>
 8004c0c:	e72c      	b.n	8004a68 <_svfiprintf_r+0x2c>
 8004c0e:	b021      	add	sp, #132	@ 0x84
 8004c10:	bdf0      	pop	{r4, r5, r6, r7, pc}
 8004c12:	aa07      	add	r2, sp, #28
 8004c14:	9200      	str	r2, [sp, #0]
 8004c16:	0021      	movs	r1, r4
 8004c18:	003a      	movs	r2, r7
 8004c1a:	4b06      	ldr	r3, [pc, #24]	@ (8004c34 <_svfiprintf_r+0x1f8>)
 8004c1c:	9803      	ldr	r0, [sp, #12]
 8004c1e:	f000 f87b 	bl	8004d18 <_printf_i>
 8004c22:	e7eb      	b.n	8004bfc <_svfiprintf_r+0x1c0>
 8004c24:	08005afc 	.word	0x08005afc
 8004c28:	08005b02 	.word	0x08005b02
 8004c2c:	08005b06 	.word	0x08005b06
 8004c30:	00000000 	.word	0x00000000
 8004c34:	0800497d 	.word	0x0800497d

08004c38 <_printf_common>:
 8004c38:	b5f7      	push	{r0, r1, r2, r4, r5, r6, r7, lr}
 8004c3a:	0016      	movs	r6, r2
 8004c3c:	9301      	str	r3, [sp, #4]
 8004c3e:	688a      	ldr	r2, [r1, #8]
 8004c40:	690b      	ldr	r3, [r1, #16]
 8004c42:	000c      	movs	r4, r1
 8004c44:	9000      	str	r0, [sp, #0]
 8004c46:	4293      	cmp	r3, r2
 8004c48:	da00      	bge.n	8004c4c <_printf_common+0x14>
 8004c4a:	0013      	movs	r3, r2
 8004c4c:	0022      	movs	r2, r4
 8004c4e:	6033      	str	r3, [r6, #0]
 8004c50:	3243      	adds	r2, #67	@ 0x43
 8004c52:	7812      	ldrb	r2, [r2, #0]
 8004c54:	2a00      	cmp	r2, #0
 8004c56:	d001      	beq.n	8004c5c <_printf_common+0x24>
 8004c58:	3301      	adds	r3, #1
 8004c5a:	6033      	str	r3, [r6, #0]
 8004c5c:	6823      	ldr	r3, [r4, #0]
 8004c5e:	069b      	lsls	r3, r3, #26
 8004c60:	d502      	bpl.n	8004c68 <_printf_common+0x30>
 8004c62:	6833      	ldr	r3, [r6, #0]
 8004c64:	3302      	adds	r3, #2
 8004c66:	6033      	str	r3, [r6, #0]
 8004c68:	6822      	ldr	r2, [r4, #0]
 8004c6a:	2306      	movs	r3, #6
 8004c6c:	0015      	movs	r5, r2
 8004c6e:	401d      	ands	r5, r3
 8004c70:	421a      	tst	r2, r3
 8004c72:	d027      	beq.n	8004cc4 <_printf_common+0x8c>
 8004c74:	0023      	movs	r3, r4
 8004c76:	3343      	adds	r3, #67	@ 0x43
 8004c78:	781b      	ldrb	r3, [r3, #0]
 8004c7a:	1e5a      	subs	r2, r3, #1
 8004c7c:	4193      	sbcs	r3, r2
 8004c7e:	6822      	ldr	r2, [r4, #0]
 8004c80:	0692      	lsls	r2, r2, #26
 8004c82:	d430      	bmi.n	8004ce6 <_printf_common+0xae>
 8004c84:	0022      	movs	r2, r4
 8004c86:	9901      	ldr	r1, [sp, #4]
 8004c88:	9800      	ldr	r0, [sp, #0]
 8004c8a:	9d08      	ldr	r5, [sp, #32]
 8004c8c:	3243      	adds	r2, #67	@ 0x43
 8004c8e:	47a8      	blx	r5
 8004c90:	3001      	adds	r0, #1
 8004c92:	d025      	beq.n	8004ce0 <_printf_common+0xa8>
 8004c94:	2206      	movs	r2, #6
 8004c96:	6823      	ldr	r3, [r4, #0]
 8004c98:	2500      	movs	r5, #0
 8004c9a:	4013      	ands	r3, r2
 8004c9c:	2b04      	cmp	r3, #4
 8004c9e:	d105      	bne.n	8004cac <_printf_common+0x74>
 8004ca0:	6833      	ldr	r3, [r6, #0]
 8004ca2:	68e5      	ldr	r5, [r4, #12]
 8004ca4:	1aed      	subs	r5, r5, r3
 8004ca6:	43eb      	mvns	r3, r5
 8004ca8:	17db      	asrs	r3, r3, #31
 8004caa:	401d      	ands	r5, r3
 8004cac:	68a3      	ldr	r3, [r4, #8]
 8004cae:	6922      	ldr	r2, [r4, #16]
 8004cb0:	4293      	cmp	r3, r2
 8004cb2:	dd01      	ble.n	8004cb8 <_printf_common+0x80>
 8004cb4:	1a9b      	subs	r3, r3, r2
 8004cb6:	18ed      	adds	r5, r5, r3
 8004cb8:	2600      	movs	r6, #0
 8004cba:	42b5      	cmp	r5, r6
 8004cbc:	d120      	bne.n	8004d00 <_printf_common+0xc8>
 8004cbe:	2000      	movs	r0, #0
 8004cc0:	e010      	b.n	8004ce4 <_printf_common+0xac>
 8004cc2:	3501      	adds	r5, #1
 8004cc4:	68e3      	ldr	r3, [r4, #12]
 8004cc6:	6832      	ldr	r2, [r6, #0]
 8004cc8:	1a9b      	subs	r3, r3, r2
 8004cca:	42ab      	cmp	r3, r5
 8004ccc:	ddd2      	ble.n	8004c74 <_printf_common+0x3c>
 8004cce:	0022      	movs	r2, r4
 8004cd0:	2301      	movs	r3, #1
 8004cd2:	9901      	ldr	r1, [sp, #4]
 8004cd4:	9800      	ldr	r0, [sp, #0]
 8004cd6:	9f08      	ldr	r7, [sp, #32]
 8004cd8:	3219      	adds	r2, #25
 8004cda:	47b8      	blx	r7
 8004cdc:	3001      	adds	r0, #1
 8004cde:	d1f0      	bne.n	8004cc2 <_printf_common+0x8a>
 8004ce0:	2001      	movs	r0, #1
 8004ce2:	4240      	negs	r0, r0
 8004ce4:	bdfe      	pop	{r1, r2, r3, r4, r5, r6, r7, pc}
 8004ce6:	2030      	movs	r0, #48	@ 0x30
 8004ce8:	18e1      	adds	r1, r4, r3
 8004cea:	3143      	adds	r1, #67	@ 0x43
 8004cec:	7008      	strb	r0, [r1, #0]
 8004cee:	0021      	movs	r1, r4
 8004cf0:	1c5a      	adds	r2, r3, #1
 8004cf2:	3145      	adds	r1, #69	@ 0x45
 8004cf4:	7809      	ldrb	r1, [r1, #0]
 8004cf6:	18a2      	adds	r2, r4, r2
 8004cf8:	3243      	adds	r2, #67	@ 0x43
 8004cfa:	3302      	adds	r3, #2
 8004cfc:	7011      	strb	r1, [r2, #0]
 8004cfe:	e7c1      	b.n	8004c84 <_printf_common+0x4c>
 8004d00:	0022      	movs	r2, r4
 8004d02:	2301      	movs	r3, #1
 8004d04:	9901      	ldr	r1, [sp, #4]
 8004d06:	9800      	ldr	r0, [sp, #0]
 8004d08:	9f08      	ldr	r7, [sp, #32]
 8004d0a:	321a      	adds	r2, #26
 8004d0c:	47b8      	blx	r7
 8004d0e:	3001      	adds	r0, #1
 8004d10:	d0e6      	beq.n	8004ce0 <_printf_common+0xa8>
 8004d12:	3601      	adds	r6, #1
 8004d14:	e7d1      	b.n	8004cba <_printf_common+0x82>
	...

08004d18 <_printf_i>:
 8004d18:	b5f0      	push	{r4, r5, r6, r7, lr}
 8004d1a:	b08b      	sub	sp, #44	@ 0x2c
 8004d1c:	9206      	str	r2, [sp, #24]
 8004d1e:	000a      	movs	r2, r1
 8004d20:	3243      	adds	r2, #67	@ 0x43
 8004d22:	9307      	str	r3, [sp, #28]
 8004d24:	9005      	str	r0, [sp, #20]
 8004d26:	9203      	str	r2, [sp, #12]
 8004d28:	7e0a      	ldrb	r2, [r1, #24]
 8004d2a:	000c      	movs	r4, r1
 8004d2c:	9b10      	ldr	r3, [sp, #64]	@ 0x40
 8004d2e:	2a78      	cmp	r2, #120	@ 0x78
 8004d30:	d809      	bhi.n	8004d46 <_printf_i+0x2e>
 8004d32:	2a62      	cmp	r2, #98	@ 0x62
 8004d34:	d80b      	bhi.n	8004d4e <_printf_i+0x36>
 8004d36:	2a00      	cmp	r2, #0
 8004d38:	d100      	bne.n	8004d3c <_printf_i+0x24>
 8004d3a:	e0ba      	b.n	8004eb2 <_printf_i+0x19a>
 8004d3c:	497a      	ldr	r1, [pc, #488]	@ (8004f28 <_printf_i+0x210>)
 8004d3e:	9104      	str	r1, [sp, #16]
 8004d40:	2a58      	cmp	r2, #88	@ 0x58
 8004d42:	d100      	bne.n	8004d46 <_printf_i+0x2e>
 8004d44:	e08e      	b.n	8004e64 <_printf_i+0x14c>
 8004d46:	0025      	movs	r5, r4
 8004d48:	3542      	adds	r5, #66	@ 0x42
 8004d4a:	702a      	strb	r2, [r5, #0]
 8004d4c:	e022      	b.n	8004d94 <_printf_i+0x7c>
 8004d4e:	0010      	movs	r0, r2
 8004d50:	3863      	subs	r0, #99	@ 0x63
 8004d52:	2815      	cmp	r0, #21
 8004d54:	d8f7      	bhi.n	8004d46 <_printf_i+0x2e>
 8004d56:	f7fb f9df 	bl	8000118 <__gnu_thumb1_case_shi>
 8004d5a:	0016      	.short	0x0016
 8004d5c:	fff6001f 	.word	0xfff6001f
 8004d60:	fff6fff6 	.word	0xfff6fff6
 8004d64:	001ffff6 	.word	0x001ffff6
 8004d68:	fff6fff6 	.word	0xfff6fff6
 8004d6c:	fff6fff6 	.word	0xfff6fff6
 8004d70:	0036009f 	.word	0x0036009f
 8004d74:	fff6007e 	.word	0xfff6007e
 8004d78:	00b0fff6 	.word	0x00b0fff6
 8004d7c:	0036fff6 	.word	0x0036fff6
 8004d80:	fff6fff6 	.word	0xfff6fff6
 8004d84:	0082      	.short	0x0082
 8004d86:	0025      	movs	r5, r4
 8004d88:	681a      	ldr	r2, [r3, #0]
 8004d8a:	3542      	adds	r5, #66	@ 0x42
 8004d8c:	1d11      	adds	r1, r2, #4
 8004d8e:	6019      	str	r1, [r3, #0]
 8004d90:	6813      	ldr	r3, [r2, #0]
 8004d92:	702b      	strb	r3, [r5, #0]
 8004d94:	2301      	movs	r3, #1
 8004d96:	e09e      	b.n	8004ed6 <_printf_i+0x1be>
 8004d98:	6818      	ldr	r0, [r3, #0]
 8004d9a:	6809      	ldr	r1, [r1, #0]
 8004d9c:	1d02      	adds	r2, r0, #4
 8004d9e:	060d      	lsls	r5, r1, #24
 8004da0:	d50b      	bpl.n	8004dba <_printf_i+0xa2>
 8004da2:	6806      	ldr	r6, [r0, #0]
 8004da4:	601a      	str	r2, [r3, #0]
 8004da6:	2e00      	cmp	r6, #0
 8004da8:	da03      	bge.n	8004db2 <_printf_i+0x9a>
 8004daa:	232d      	movs	r3, #45	@ 0x2d
 8004dac:	9a03      	ldr	r2, [sp, #12]
 8004dae:	4276      	negs	r6, r6
 8004db0:	7013      	strb	r3, [r2, #0]
 8004db2:	4b5d      	ldr	r3, [pc, #372]	@ (8004f28 <_printf_i+0x210>)
 8004db4:	270a      	movs	r7, #10
 8004db6:	9304      	str	r3, [sp, #16]
 8004db8:	e018      	b.n	8004dec <_printf_i+0xd4>
 8004dba:	6806      	ldr	r6, [r0, #0]
 8004dbc:	601a      	str	r2, [r3, #0]
 8004dbe:	0649      	lsls	r1, r1, #25
 8004dc0:	d5f1      	bpl.n	8004da6 <_printf_i+0x8e>
 8004dc2:	b236      	sxth	r6, r6
 8004dc4:	e7ef      	b.n	8004da6 <_printf_i+0x8e>
 8004dc6:	6808      	ldr	r0, [r1, #0]
 8004dc8:	6819      	ldr	r1, [r3, #0]
 8004dca:	c940      	ldmia	r1!, {r6}
 8004dcc:	0605      	lsls	r5, r0, #24
 8004dce:	d402      	bmi.n	8004dd6 <_printf_i+0xbe>
 8004dd0:	0640      	lsls	r0, r0, #25
 8004dd2:	d500      	bpl.n	8004dd6 <_printf_i+0xbe>
 8004dd4:	b2b6      	uxth	r6, r6
 8004dd6:	6019      	str	r1, [r3, #0]
 8004dd8:	4b53      	ldr	r3, [pc, #332]	@ (8004f28 <_printf_i+0x210>)
 8004dda:	270a      	movs	r7, #10
 8004ddc:	9304      	str	r3, [sp, #16]
 8004dde:	2a6f      	cmp	r2, #111	@ 0x6f
 8004de0:	d100      	bne.n	8004de4 <_printf_i+0xcc>
 8004de2:	3f02      	subs	r7, #2
 8004de4:	0023      	movs	r3, r4
 8004de6:	2200      	movs	r2, #0
 8004de8:	3343      	adds	r3, #67	@ 0x43
 8004dea:	701a      	strb	r2, [r3, #0]
 8004dec:	6863      	ldr	r3, [r4, #4]
 8004dee:	60a3      	str	r3, [r4, #8]
 8004df0:	2b00      	cmp	r3, #0
 8004df2:	db06      	blt.n	8004e02 <_printf_i+0xea>
 8004df4:	2104      	movs	r1, #4
 8004df6:	6822      	ldr	r2, [r4, #0]
 8004df8:	9d03      	ldr	r5, [sp, #12]
 8004dfa:	438a      	bics	r2, r1
 8004dfc:	6022      	str	r2, [r4, #0]
 8004dfe:	4333      	orrs	r3, r6
 8004e00:	d00c      	beq.n	8004e1c <_printf_i+0x104>
 8004e02:	9d03      	ldr	r5, [sp, #12]
 8004e04:	0030      	movs	r0, r6
 8004e06:	0039      	movs	r1, r7
 8004e08:	f7fb fa16 	bl	8000238 <__aeabi_uidivmod>
 8004e0c:	9b04      	ldr	r3, [sp, #16]
 8004e0e:	3d01      	subs	r5, #1
 8004e10:	5c5b      	ldrb	r3, [r3, r1]
 8004e12:	702b      	strb	r3, [r5, #0]
 8004e14:	0033      	movs	r3, r6
 8004e16:	0006      	movs	r6, r0
 8004e18:	429f      	cmp	r7, r3
 8004e1a:	d9f3      	bls.n	8004e04 <_printf_i+0xec>
 8004e1c:	2f08      	cmp	r7, #8
 8004e1e:	d109      	bne.n	8004e34 <_printf_i+0x11c>
 8004e20:	6823      	ldr	r3, [r4, #0]
 8004e22:	07db      	lsls	r3, r3, #31
 8004e24:	d506      	bpl.n	8004e34 <_printf_i+0x11c>
 8004e26:	6862      	ldr	r2, [r4, #4]
 8004e28:	6923      	ldr	r3, [r4, #16]
 8004e2a:	429a      	cmp	r2, r3
 8004e2c:	dc02      	bgt.n	8004e34 <_printf_i+0x11c>
 8004e2e:	2330      	movs	r3, #48	@ 0x30
 8004e30:	3d01      	subs	r5, #1
 8004e32:	702b      	strb	r3, [r5, #0]
 8004e34:	9b03      	ldr	r3, [sp, #12]
 8004e36:	1b5b      	subs	r3, r3, r5
 8004e38:	6123      	str	r3, [r4, #16]
 8004e3a:	9b07      	ldr	r3, [sp, #28]
 8004e3c:	0021      	movs	r1, r4
 8004e3e:	9300      	str	r3, [sp, #0]
 8004e40:	9805      	ldr	r0, [sp, #20]
 8004e42:	9b06      	ldr	r3, [sp, #24]
 8004e44:	aa09      	add	r2, sp, #36	@ 0x24
 8004e46:	f7ff fef7 	bl	8004c38 <_printf_common>
 8004e4a:	3001      	adds	r0, #1
 8004e4c:	d148      	bne.n	8004ee0 <_printf_i+0x1c8>
 8004e4e:	2001      	movs	r0, #1
 8004e50:	4240      	negs	r0, r0
 8004e52:	b00b      	add	sp, #44	@ 0x2c
 8004e54:	bdf0      	pop	{r4, r5, r6, r7, pc}
 8004e56:	2220      	movs	r2, #32
 8004e58:	6809      	ldr	r1, [r1, #0]
 8004e5a:	430a      	orrs	r2, r1
 8004e5c:	6022      	str	r2, [r4, #0]
 8004e5e:	2278      	movs	r2, #120	@ 0x78
 8004e60:	4932      	ldr	r1, [pc, #200]	@ (8004f2c <_printf_i+0x214>)
 8004e62:	9104      	str	r1, [sp, #16]
 8004e64:	0021      	movs	r1, r4
 8004e66:	3145      	adds	r1, #69	@ 0x45
 8004e68:	700a      	strb	r2, [r1, #0]
 8004e6a:	6819      	ldr	r1, [r3, #0]
 8004e6c:	6822      	ldr	r2, [r4, #0]
 8004e6e:	c940      	ldmia	r1!, {r6}
 8004e70:	0610      	lsls	r0, r2, #24
 8004e72:	d402      	bmi.n	8004e7a <_printf_i+0x162>
 8004e74:	0650      	lsls	r0, r2, #25
 8004e76:	d500      	bpl.n	8004e7a <_printf_i+0x162>
 8004e78:	b2b6      	uxth	r6, r6
 8004e7a:	6019      	str	r1, [r3, #0]
 8004e7c:	07d3      	lsls	r3, r2, #31
 8004e7e:	d502      	bpl.n	8004e86 <_printf_i+0x16e>
 8004e80:	2320      	movs	r3, #32
 8004e82:	4313      	orrs	r3, r2
 8004e84:	6023      	str	r3, [r4, #0]
 8004e86:	2e00      	cmp	r6, #0
 8004e88:	d001      	beq.n	8004e8e <_printf_i+0x176>
 8004e8a:	2710      	movs	r7, #16
 8004e8c:	e7aa      	b.n	8004de4 <_printf_i+0xcc>
 8004e8e:	2220      	movs	r2, #32
 8004e90:	6823      	ldr	r3, [r4, #0]
 8004e92:	4393      	bics	r3, r2
 8004e94:	6023      	str	r3, [r4, #0]
 8004e96:	e7f8      	b.n	8004e8a <_printf_i+0x172>
 8004e98:	681a      	ldr	r2, [r3, #0]
 8004e9a:	680d      	ldr	r5, [r1, #0]
 8004e9c:	1d10      	adds	r0, r2, #4
 8004e9e:	6949      	ldr	r1, [r1, #20]
 8004ea0:	6018      	str	r0, [r3, #0]
 8004ea2:	6813      	ldr	r3, [r2, #0]
 8004ea4:	062e      	lsls	r6, r5, #24
 8004ea6:	d501      	bpl.n	8004eac <_printf_i+0x194>
 8004ea8:	6019      	str	r1, [r3, #0]
 8004eaa:	e002      	b.n	8004eb2 <_printf_i+0x19a>
 8004eac:	066d      	lsls	r5, r5, #25
 8004eae:	d5fb      	bpl.n	8004ea8 <_printf_i+0x190>
 8004eb0:	8019      	strh	r1, [r3, #0]
 8004eb2:	2300      	movs	r3, #0
 8004eb4:	9d03      	ldr	r5, [sp, #12]
 8004eb6:	6123      	str	r3, [r4, #16]
 8004eb8:	e7bf      	b.n	8004e3a <_printf_i+0x122>
 8004eba:	681a      	ldr	r2, [r3, #0]
 8004ebc:	1d11      	adds	r1, r2, #4
 8004ebe:	6019      	str	r1, [r3, #0]
 8004ec0:	6815      	ldr	r5, [r2, #0]
 8004ec2:	2100      	movs	r1, #0
 8004ec4:	0028      	movs	r0, r5
 8004ec6:	6862      	ldr	r2, [r4, #4]
 8004ec8:	f000 f844 	bl	8004f54 <memchr>
 8004ecc:	2800      	cmp	r0, #0
 8004ece:	d001      	beq.n	8004ed4 <_printf_i+0x1bc>
 8004ed0:	1b40      	subs	r0, r0, r5
 8004ed2:	6060      	str	r0, [r4, #4]
 8004ed4:	6863      	ldr	r3, [r4, #4]
 8004ed6:	6123      	str	r3, [r4, #16]
 8004ed8:	2300      	movs	r3, #0
 8004eda:	9a03      	ldr	r2, [sp, #12]
 8004edc:	7013      	strb	r3, [r2, #0]
 8004ede:	e7ac      	b.n	8004e3a <_printf_i+0x122>
 8004ee0:	002a      	movs	r2, r5
 8004ee2:	6923      	ldr	r3, [r4, #16]
 8004ee4:	9906      	ldr	r1, [sp, #24]
 8004ee6:	9805      	ldr	r0, [sp, #20]
 8004ee8:	9d07      	ldr	r5, [sp, #28]
 8004eea:	47a8      	blx	r5
 8004eec:	3001      	adds	r0, #1
 8004eee:	d0ae      	beq.n	8004e4e <_printf_i+0x136>
 8004ef0:	6823      	ldr	r3, [r4, #0]
 8004ef2:	079b      	lsls	r3, r3, #30
 8004ef4:	d415      	bmi.n	8004f22 <_printf_i+0x20a>
 8004ef6:	9b09      	ldr	r3, [sp, #36]	@ 0x24
 8004ef8:	68e0      	ldr	r0, [r4, #12]
 8004efa:	4298      	cmp	r0, r3
 8004efc:	daa9      	bge.n	8004e52 <_printf_i+0x13a>
 8004efe:	0018      	movs	r0, r3
 8004f00:	e7a7      	b.n	8004e52 <_printf_i+0x13a>
 8004f02:	0022      	movs	r2, r4
 8004f04:	2301      	movs	r3, #1
 8004f06:	9906      	ldr	r1, [sp, #24]
 8004f08:	9805      	ldr	r0, [sp, #20]
 8004f0a:	9e07      	ldr	r6, [sp, #28]
 8004f0c:	3219      	adds	r2, #25
 8004f0e:	47b0      	blx	r6
 8004f10:	3001      	adds	r0, #1
 8004f12:	d09c      	beq.n	8004e4e <_printf_i+0x136>
 8004f14:	3501      	adds	r5, #1
 8004f16:	68e3      	ldr	r3, [r4, #12]
 8004f18:	9a09      	ldr	r2, [sp, #36]	@ 0x24
 8004f1a:	1a9b      	subs	r3, r3, r2
 8004f1c:	42ab      	cmp	r3, r5
 8004f1e:	dcf0      	bgt.n	8004f02 <_printf_i+0x1ea>
 8004f20:	e7e9      	b.n	8004ef6 <_printf_i+0x1de>
 8004f22:	2500      	movs	r5, #0
 8004f24:	e7f7      	b.n	8004f16 <_printf_i+0x1fe>
 8004f26:	46c0      	nop			@ (mov r8, r8)
 8004f28:	08005b0d 	.word	0x08005b0d
 8004f2c:	08005b1e 	.word	0x08005b1e

08004f30 <_sbrk_r>:
 8004f30:	2300      	movs	r3, #0
 8004f32:	b570      	push	{r4, r5, r6, lr}
 8004f34:	4d06      	ldr	r5, [pc, #24]	@ (8004f50 <_sbrk_r+0x20>)
 8004f36:	0004      	movs	r4, r0
 8004f38:	0008      	movs	r0, r1
 8004f3a:	602b      	str	r3, [r5, #0]
 8004f3c:	f7fd fc88 	bl	8002850 <_sbrk>
 8004f40:	1c43      	adds	r3, r0, #1
 8004f42:	d103      	bne.n	8004f4c <_sbrk_r+0x1c>
 8004f44:	682b      	ldr	r3, [r5, #0]
 8004f46:	2b00      	cmp	r3, #0
 8004f48:	d000      	beq.n	8004f4c <_sbrk_r+0x1c>
 8004f4a:	6023      	str	r3, [r4, #0]
 8004f4c:	bd70      	pop	{r4, r5, r6, pc}
 8004f4e:	46c0      	nop			@ (mov r8, r8)
 8004f50:	20000358 	.word	0x20000358

08004f54 <memchr>:
 8004f54:	b2c9      	uxtb	r1, r1
 8004f56:	1882      	adds	r2, r0, r2
 8004f58:	4290      	cmp	r0, r2
 8004f5a:	d101      	bne.n	8004f60 <memchr+0xc>
 8004f5c:	2000      	movs	r0, #0
 8004f5e:	4770      	bx	lr
 8004f60:	7803      	ldrb	r3, [r0, #0]
 8004f62:	428b      	cmp	r3, r1
 8004f64:	d0fb      	beq.n	8004f5e <memchr+0xa>
 8004f66:	3001      	adds	r0, #1
 8004f68:	e7f6      	b.n	8004f58 <memchr+0x4>

08004f6a <memcpy>:
 8004f6a:	2300      	movs	r3, #0
 8004f6c:	b510      	push	{r4, lr}
 8004f6e:	429a      	cmp	r2, r3
 8004f70:	d100      	bne.n	8004f74 <memcpy+0xa>
 8004f72:	bd10      	pop	{r4, pc}
 8004f74:	5ccc      	ldrb	r4, [r1, r3]
 8004f76:	54c4      	strb	r4, [r0, r3]
 8004f78:	3301      	adds	r3, #1
 8004f7a:	e7f8      	b.n	8004f6e <memcpy+0x4>

08004f7c <_realloc_r>:
 8004f7c:	b5f7      	push	{r0, r1, r2, r4, r5, r6, r7, lr}
 8004f7e:	0006      	movs	r6, r0
 8004f80:	000c      	movs	r4, r1
 8004f82:	0015      	movs	r5, r2
 8004f84:	2900      	cmp	r1, #0
 8004f86:	d105      	bne.n	8004f94 <_realloc_r+0x18>
 8004f88:	0011      	movs	r1, r2
 8004f8a:	f7ff fc67 	bl	800485c <_malloc_r>
 8004f8e:	0004      	movs	r4, r0
 8004f90:	0020      	movs	r0, r4
 8004f92:	bdfe      	pop	{r1, r2, r3, r4, r5, r6, r7, pc}
 8004f94:	2a00      	cmp	r2, #0
 8004f96:	d103      	bne.n	8004fa0 <_realloc_r+0x24>
 8004f98:	f7ff fbf4 	bl	8004784 <_free_r>
 8004f9c:	002c      	movs	r4, r5
 8004f9e:	e7f7      	b.n	8004f90 <_realloc_r+0x14>
 8004fa0:	f000 f81c 	bl	8004fdc <_malloc_usable_size_r>
 8004fa4:	0007      	movs	r7, r0
 8004fa6:	4285      	cmp	r5, r0
 8004fa8:	d802      	bhi.n	8004fb0 <_realloc_r+0x34>
 8004faa:	0843      	lsrs	r3, r0, #1
 8004fac:	42ab      	cmp	r3, r5
 8004fae:	d3ef      	bcc.n	8004f90 <_realloc_r+0x14>
 8004fb0:	0029      	movs	r1, r5
 8004fb2:	0030      	movs	r0, r6
 8004fb4:	f7ff fc52 	bl	800485c <_malloc_r>
 8004fb8:	9001      	str	r0, [sp, #4]
 8004fba:	2800      	cmp	r0, #0
 8004fbc:	d101      	bne.n	8004fc2 <_realloc_r+0x46>
 8004fbe:	9c01      	ldr	r4, [sp, #4]
 8004fc0:	e7e6      	b.n	8004f90 <_realloc_r+0x14>
 8004fc2:	002a      	movs	r2, r5
 8004fc4:	42bd      	cmp	r5, r7
 8004fc6:	d900      	bls.n	8004fca <_realloc_r+0x4e>
 8004fc8:	003a      	movs	r2, r7
 8004fca:	0021      	movs	r1, r4
 8004fcc:	9801      	ldr	r0, [sp, #4]
 8004fce:	f7ff ffcc 	bl	8004f6a <memcpy>
 8004fd2:	0021      	movs	r1, r4
 8004fd4:	0030      	movs	r0, r6
 8004fd6:	f7ff fbd5 	bl	8004784 <_free_r>
 8004fda:	e7f0      	b.n	8004fbe <_realloc_r+0x42>

08004fdc <_malloc_usable_size_r>:
 8004fdc:	1f0b      	subs	r3, r1, #4
 8004fde:	681b      	ldr	r3, [r3, #0]
 8004fe0:	1f18      	subs	r0, r3, #4
 8004fe2:	2b00      	cmp	r3, #0
 8004fe4:	da01      	bge.n	8004fea <_malloc_usable_size_r+0xe>
 8004fe6:	580b      	ldr	r3, [r1, r0]
 8004fe8:	18c0      	adds	r0, r0, r3
 8004fea:	4770      	bx	lr

08004fec <powf>:
 8004fec:	b570      	push	{r4, r5, r6, lr}
 8004fee:	1c0c      	adds	r4, r1, #0
 8004ff0:	1c06      	adds	r6, r0, #0
 8004ff2:	f000 f8e9 	bl	80051c8 <__ieee754_powf>
 8004ff6:	1c21      	adds	r1, r4, #0
 8004ff8:	1c05      	adds	r5, r0, #0
 8004ffa:	1c20      	adds	r0, r4, #0
 8004ffc:	f7fc f9c4 	bl	8001388 <__aeabi_fcmpun>
 8005000:	2800      	cmp	r0, #0
 8005002:	d133      	bne.n	800506c <powf+0x80>
 8005004:	2100      	movs	r1, #0
 8005006:	1c30      	adds	r0, r6, #0
 8005008:	f7fb fa12 	bl	8000430 <__aeabi_fcmpeq>
 800500c:	2800      	cmp	r0, #0
 800500e:	d014      	beq.n	800503a <powf+0x4e>
 8005010:	2100      	movs	r1, #0
 8005012:	1c20      	adds	r0, r4, #0
 8005014:	f7fb fa0c 	bl	8000430 <__aeabi_fcmpeq>
 8005018:	2800      	cmp	r0, #0
 800501a:	d138      	bne.n	800508e <powf+0xa2>
 800501c:	1c20      	adds	r0, r4, #0
 800501e:	f000 f855 	bl	80050cc <finitef>
 8005022:	2800      	cmp	r0, #0
 8005024:	d022      	beq.n	800506c <powf+0x80>
 8005026:	2100      	movs	r1, #0
 8005028:	1c20      	adds	r0, r4, #0
 800502a:	f7fb fa07 	bl	800043c <__aeabi_fcmplt>
 800502e:	2800      	cmp	r0, #0
 8005030:	d01c      	beq.n	800506c <powf+0x80>
 8005032:	f7ff fb7b 	bl	800472c <__errno>
 8005036:	2322      	movs	r3, #34	@ 0x22
 8005038:	e017      	b.n	800506a <powf+0x7e>
 800503a:	1c28      	adds	r0, r5, #0
 800503c:	f000 f846 	bl	80050cc <finitef>
 8005040:	2800      	cmp	r0, #0
 8005042:	d115      	bne.n	8005070 <powf+0x84>
 8005044:	1c30      	adds	r0, r6, #0
 8005046:	f000 f841 	bl	80050cc <finitef>
 800504a:	2800      	cmp	r0, #0
 800504c:	d010      	beq.n	8005070 <powf+0x84>
 800504e:	1c20      	adds	r0, r4, #0
 8005050:	f000 f83c 	bl	80050cc <finitef>
 8005054:	2800      	cmp	r0, #0
 8005056:	d00b      	beq.n	8005070 <powf+0x84>
 8005058:	1c29      	adds	r1, r5, #0
 800505a:	1c28      	adds	r0, r5, #0
 800505c:	f7fc f994 	bl	8001388 <__aeabi_fcmpun>
 8005060:	2800      	cmp	r0, #0
 8005062:	d0e6      	beq.n	8005032 <powf+0x46>
 8005064:	f7ff fb62 	bl	800472c <__errno>
 8005068:	2321      	movs	r3, #33	@ 0x21
 800506a:	6003      	str	r3, [r0, #0]
 800506c:	1c28      	adds	r0, r5, #0
 800506e:	bd70      	pop	{r4, r5, r6, pc}
 8005070:	2100      	movs	r1, #0
 8005072:	1c28      	adds	r0, r5, #0
 8005074:	f7fb f9dc 	bl	8000430 <__aeabi_fcmpeq>
 8005078:	2800      	cmp	r0, #0
 800507a:	d0f7      	beq.n	800506c <powf+0x80>
 800507c:	1c30      	adds	r0, r6, #0
 800507e:	f000 f825 	bl	80050cc <finitef>
 8005082:	2800      	cmp	r0, #0
 8005084:	d0f2      	beq.n	800506c <powf+0x80>
 8005086:	1c20      	adds	r0, r4, #0
 8005088:	f000 f820 	bl	80050cc <finitef>
 800508c:	e7cf      	b.n	800502e <powf+0x42>
 800508e:	25fe      	movs	r5, #254	@ 0xfe
 8005090:	05ad      	lsls	r5, r5, #22
 8005092:	e7eb      	b.n	800506c <powf+0x80>

08005094 <sqrtf>:
 8005094:	b570      	push	{r4, r5, r6, lr}
 8005096:	1c05      	adds	r5, r0, #0
 8005098:	f000 f822 	bl	80050e0 <__ieee754_sqrtf>
 800509c:	1c29      	adds	r1, r5, #0
 800509e:	1c04      	adds	r4, r0, #0
 80050a0:	1c28      	adds	r0, r5, #0
 80050a2:	f7fc f971 	bl	8001388 <__aeabi_fcmpun>
 80050a6:	2800      	cmp	r0, #0
 80050a8:	d10e      	bne.n	80050c8 <sqrtf+0x34>
 80050aa:	2100      	movs	r1, #0
 80050ac:	1c28      	adds	r0, r5, #0
 80050ae:	f7fb f9c5 	bl	800043c <__aeabi_fcmplt>
 80050b2:	2800      	cmp	r0, #0
 80050b4:	d008      	beq.n	80050c8 <sqrtf+0x34>
 80050b6:	f7ff fb39 	bl	800472c <__errno>
 80050ba:	2321      	movs	r3, #33	@ 0x21
 80050bc:	2100      	movs	r1, #0
 80050be:	6003      	str	r3, [r0, #0]
 80050c0:	1c08      	adds	r0, r1, #0
 80050c2:	f7fb fbd5 	bl	8000870 <__aeabi_fdiv>
 80050c6:	1c04      	adds	r4, r0, #0
 80050c8:	1c20      	adds	r0, r4, #0
 80050ca:	bd70      	pop	{r4, r5, r6, pc}

080050cc <finitef>:
 80050cc:	22ff      	movs	r2, #255	@ 0xff
 80050ce:	0043      	lsls	r3, r0, #1
 80050d0:	085b      	lsrs	r3, r3, #1
 80050d2:	2001      	movs	r0, #1
 80050d4:	05d2      	lsls	r2, r2, #23
 80050d6:	4293      	cmp	r3, r2
 80050d8:	db00      	blt.n	80050dc <finitef+0x10>
 80050da:	2000      	movs	r0, #0
 80050dc:	4770      	bx	lr
	...

080050e0 <__ieee754_sqrtf>:
 80050e0:	b5f7      	push	{r0, r1, r2, r4, r5, r6, r7, lr}
 80050e2:	21ff      	movs	r1, #255	@ 0xff
 80050e4:	0042      	lsls	r2, r0, #1
 80050e6:	0003      	movs	r3, r0
 80050e8:	1c04      	adds	r4, r0, #0
 80050ea:	0852      	lsrs	r2, r2, #1
 80050ec:	05c9      	lsls	r1, r1, #23
 80050ee:	428a      	cmp	r2, r1
 80050f0:	d309      	bcc.n	8005106 <__ieee754_sqrtf+0x26>
 80050f2:	1c01      	adds	r1, r0, #0
 80050f4:	f7fb fd8a 	bl	8000c0c <__aeabi_fmul>
 80050f8:	1c01      	adds	r1, r0, #0
 80050fa:	1c20      	adds	r0, r4, #0
 80050fc:	f7fb f9c6 	bl	800048c <__aeabi_fadd>
 8005100:	1c04      	adds	r4, r0, #0
 8005102:	1c20      	adds	r0, r4, #0
 8005104:	bdfe      	pop	{r1, r2, r3, r4, r5, r6, r7, pc}
 8005106:	2a00      	cmp	r2, #0
 8005108:	d0fb      	beq.n	8005102 <__ieee754_sqrtf+0x22>
 800510a:	2800      	cmp	r0, #0
 800510c:	da06      	bge.n	800511c <__ieee754_sqrtf+0x3c>
 800510e:	1c01      	adds	r1, r0, #0
 8005110:	f7fb fed6 	bl	8000ec0 <__aeabi_fsub>
 8005114:	1c01      	adds	r1, r0, #0
 8005116:	f7fb fbab 	bl	8000870 <__aeabi_fdiv>
 800511a:	e7f1      	b.n	8005100 <__ieee754_sqrtf+0x20>
 800511c:	0002      	movs	r2, r0
 800511e:	400a      	ands	r2, r1
 8005120:	4208      	tst	r0, r1
 8005122:	d040      	beq.n	80051a6 <__ieee754_sqrtf+0xc6>
 8005124:	15c1      	asrs	r1, r0, #23
 8005126:	2280      	movs	r2, #128	@ 0x80
 8005128:	000f      	movs	r7, r1
 800512a:	025b      	lsls	r3, r3, #9
 800512c:	0a5b      	lsrs	r3, r3, #9
 800512e:	0412      	lsls	r2, r2, #16
 8005130:	3f7f      	subs	r7, #127	@ 0x7f
 8005132:	4313      	orrs	r3, r2
 8005134:	07c9      	lsls	r1, r1, #31
 8005136:	d400      	bmi.n	800513a <__ieee754_sqrtf+0x5a>
 8005138:	005b      	lsls	r3, r3, #1
 800513a:	2400      	movs	r4, #0
 800513c:	2180      	movs	r1, #128	@ 0x80
 800513e:	2019      	movs	r0, #25
 8005140:	0026      	movs	r6, r4
 8005142:	107f      	asrs	r7, r7, #1
 8005144:	005b      	lsls	r3, r3, #1
 8005146:	0449      	lsls	r1, r1, #17
 8005148:	1875      	adds	r5, r6, r1
 800514a:	001a      	movs	r2, r3
 800514c:	429d      	cmp	r5, r3
 800514e:	dc02      	bgt.n	8005156 <__ieee754_sqrtf+0x76>
 8005150:	186e      	adds	r6, r5, r1
 8005152:	1b5a      	subs	r2, r3, r5
 8005154:	1864      	adds	r4, r4, r1
 8005156:	3801      	subs	r0, #1
 8005158:	0053      	lsls	r3, r2, #1
 800515a:	0849      	lsrs	r1, r1, #1
 800515c:	2800      	cmp	r0, #0
 800515e:	d1f3      	bne.n	8005148 <__ieee754_sqrtf+0x68>
 8005160:	2a00      	cmp	r2, #0
 8005162:	d019      	beq.n	8005198 <__ieee754_sqrtf+0xb8>
 8005164:	4d16      	ldr	r5, [pc, #88]	@ (80051c0 <__ieee754_sqrtf+0xe0>)
 8005166:	4e17      	ldr	r6, [pc, #92]	@ (80051c4 <__ieee754_sqrtf+0xe4>)
 8005168:	6828      	ldr	r0, [r5, #0]
 800516a:	6831      	ldr	r1, [r6, #0]
 800516c:	682b      	ldr	r3, [r5, #0]
 800516e:	9301      	str	r3, [sp, #4]
 8005170:	f7fb fea6 	bl	8000ec0 <__aeabi_fsub>
 8005174:	1c01      	adds	r1, r0, #0
 8005176:	9801      	ldr	r0, [sp, #4]
 8005178:	f7fb f96a 	bl	8000450 <__aeabi_fcmple>
 800517c:	2800      	cmp	r0, #0
 800517e:	d00b      	beq.n	8005198 <__ieee754_sqrtf+0xb8>
 8005180:	6828      	ldr	r0, [r5, #0]
 8005182:	6831      	ldr	r1, [r6, #0]
 8005184:	f7fb f982 	bl	800048c <__aeabi_fadd>
 8005188:	682d      	ldr	r5, [r5, #0]
 800518a:	1c01      	adds	r1, r0, #0
 800518c:	1c28      	adds	r0, r5, #0
 800518e:	f7fb f955 	bl	800043c <__aeabi_fcmplt>
 8005192:	2800      	cmp	r0, #0
 8005194:	d010      	beq.n	80051b8 <__ieee754_sqrtf+0xd8>
 8005196:	3402      	adds	r4, #2
 8005198:	23fc      	movs	r3, #252	@ 0xfc
 800519a:	1064      	asrs	r4, r4, #1
 800519c:	059b      	lsls	r3, r3, #22
 800519e:	18e3      	adds	r3, r4, r3
 80051a0:	05fc      	lsls	r4, r7, #23
 80051a2:	18e4      	adds	r4, r4, r3
 80051a4:	e7ad      	b.n	8005102 <__ieee754_sqrtf+0x22>
 80051a6:	2080      	movs	r0, #128	@ 0x80
 80051a8:	0400      	lsls	r0, r0, #16
 80051aa:	005b      	lsls	r3, r3, #1
 80051ac:	0011      	movs	r1, r2
 80051ae:	3201      	adds	r2, #1
 80051b0:	4203      	tst	r3, r0
 80051b2:	d0fa      	beq.n	80051aa <__ieee754_sqrtf+0xca>
 80051b4:	4249      	negs	r1, r1
 80051b6:	e7b6      	b.n	8005126 <__ieee754_sqrtf+0x46>
 80051b8:	2301      	movs	r3, #1
 80051ba:	3401      	adds	r4, #1
 80051bc:	439c      	bics	r4, r3
 80051be:	e7eb      	b.n	8005198 <__ieee754_sqrtf+0xb8>
 80051c0:	08005b34 	.word	0x08005b34
 80051c4:	08005b30 	.word	0x08005b30

080051c8 <__ieee754_powf>:
 80051c8:	b5f0      	push	{r4, r5, r6, r7, lr}
 80051ca:	b08b      	sub	sp, #44	@ 0x2c
 80051cc:	9101      	str	r1, [sp, #4]
 80051ce:	9f01      	ldr	r7, [sp, #4]
 80051d0:	1c04      	adds	r4, r0, #0
 80051d2:	007b      	lsls	r3, r7, #1
 80051d4:	9004      	str	r0, [sp, #16]
 80051d6:	085e      	lsrs	r6, r3, #1
 80051d8:	2b00      	cmp	r3, #0
 80051da:	d10d      	bne.n	80051f8 <__ieee754_powf+0x30>
 80051dc:	2380      	movs	r3, #128	@ 0x80
 80051de:	03db      	lsls	r3, r3, #15
 80051e0:	4043      	eors	r3, r0
 80051e2:	4a88      	ldr	r2, [pc, #544]	@ (8005404 <__ieee754_powf+0x23c>)
 80051e4:	005b      	lsls	r3, r3, #1
 80051e6:	4293      	cmp	r3, r2
 80051e8:	d800      	bhi.n	80051ec <__ieee754_powf+0x24>
 80051ea:	e2f2      	b.n	80057d2 <__ieee754_powf+0x60a>
 80051ec:	9901      	ldr	r1, [sp, #4]
 80051ee:	1c20      	adds	r0, r4, #0
 80051f0:	f7fb f94c 	bl	800048c <__aeabi_fadd>
 80051f4:	b00b      	add	sp, #44	@ 0x2c
 80051f6:	bdf0      	pop	{r4, r5, r6, r7, pc}
 80051f8:	23ff      	movs	r3, #255	@ 0xff
 80051fa:	22fe      	movs	r2, #254	@ 0xfe
 80051fc:	0045      	lsls	r5, r0, #1
 80051fe:	086d      	lsrs	r5, r5, #1
 8005200:	05db      	lsls	r3, r3, #23
 8005202:	0592      	lsls	r2, r2, #22
 8005204:	429d      	cmp	r5, r3
 8005206:	d801      	bhi.n	800520c <__ieee754_powf+0x44>
 8005208:	429e      	cmp	r6, r3
 800520a:	d906      	bls.n	800521a <__ieee754_powf+0x52>
 800520c:	4294      	cmp	r4, r2
 800520e:	d1ed      	bne.n	80051ec <__ieee754_powf+0x24>
 8005210:	2380      	movs	r3, #128	@ 0x80
 8005212:	9a01      	ldr	r2, [sp, #4]
 8005214:	03db      	lsls	r3, r3, #15
 8005216:	4053      	eors	r3, r2
 8005218:	e7e3      	b.n	80051e2 <__ieee754_powf+0x1a>
 800521a:	2800      	cmp	r0, #0
 800521c:	da24      	bge.n	8005268 <__ieee754_powf+0xa0>
 800521e:	2197      	movs	r1, #151	@ 0x97
 8005220:	05c9      	lsls	r1, r1, #23
 8005222:	428e      	cmp	r6, r1
 8005224:	d300      	bcc.n	8005228 <__ieee754_powf+0x60>
 8005226:	e30d      	b.n	8005844 <__ieee754_powf+0x67c>
 8005228:	4296      	cmp	r6, r2
 800522a:	d333      	bcc.n	8005294 <__ieee754_powf+0xcc>
 800522c:	2296      	movs	r2, #150	@ 0x96
 800522e:	15f3      	asrs	r3, r6, #23
 8005230:	1ad2      	subs	r2, r2, r3
 8005232:	0033      	movs	r3, r6
 8005234:	4113      	asrs	r3, r2
 8005236:	0019      	movs	r1, r3
 8005238:	4091      	lsls	r1, r2
 800523a:	000a      	movs	r2, r1
 800523c:	2100      	movs	r1, #0
 800523e:	9102      	str	r1, [sp, #8]
 8005240:	42b2      	cmp	r2, r6
 8005242:	d104      	bne.n	800524e <__ieee754_powf+0x86>
 8005244:	2201      	movs	r2, #1
 8005246:	4013      	ands	r3, r2
 8005248:	1892      	adds	r2, r2, r2
 800524a:	1ad3      	subs	r3, r2, r3
 800524c:	9302      	str	r3, [sp, #8]
 800524e:	23fe      	movs	r3, #254	@ 0xfe
 8005250:	059b      	lsls	r3, r3, #22
 8005252:	429e      	cmp	r6, r3
 8005254:	d120      	bne.n	8005298 <__ieee754_powf+0xd0>
 8005256:	1c20      	adds	r0, r4, #0
 8005258:	2f00      	cmp	r7, #0
 800525a:	dacb      	bge.n	80051f4 <__ieee754_powf+0x2c>
 800525c:	20fe      	movs	r0, #254	@ 0xfe
 800525e:	1c21      	adds	r1, r4, #0
 8005260:	0580      	lsls	r0, r0, #22
 8005262:	f7fb fb05 	bl	8000870 <__aeabi_fdiv>
 8005266:	e7c5      	b.n	80051f4 <__ieee754_powf+0x2c>
 8005268:	2100      	movs	r1, #0
 800526a:	9102      	str	r1, [sp, #8]
 800526c:	429e      	cmp	r6, r3
 800526e:	d1ee      	bne.n	800524e <__ieee754_powf+0x86>
 8005270:	4295      	cmp	r5, r2
 8005272:	d100      	bne.n	8005276 <__ieee754_powf+0xae>
 8005274:	e2ad      	b.n	80057d2 <__ieee754_powf+0x60a>
 8005276:	d904      	bls.n	8005282 <__ieee754_powf+0xba>
 8005278:	9801      	ldr	r0, [sp, #4]
 800527a:	2f00      	cmp	r7, #0
 800527c:	daba      	bge.n	80051f4 <__ieee754_powf+0x2c>
 800527e:	2000      	movs	r0, #0
 8005280:	e7b8      	b.n	80051f4 <__ieee754_powf+0x2c>
 8005282:	2f00      	cmp	r7, #0
 8005284:	dafb      	bge.n	800527e <__ieee754_powf+0xb6>
 8005286:	2280      	movs	r2, #128	@ 0x80
 8005288:	0612      	lsls	r2, r2, #24
 800528a:	4694      	mov	ip, r2
 800528c:	9b01      	ldr	r3, [sp, #4]
 800528e:	4463      	add	r3, ip
 8005290:	0018      	movs	r0, r3
 8005292:	e7af      	b.n	80051f4 <__ieee754_powf+0x2c>
 8005294:	2300      	movs	r3, #0
 8005296:	9302      	str	r3, [sp, #8]
 8005298:	2380      	movs	r3, #128	@ 0x80
 800529a:	05db      	lsls	r3, r3, #23
 800529c:	429f      	cmp	r7, r3
 800529e:	d104      	bne.n	80052aa <__ieee754_powf+0xe2>
 80052a0:	1c21      	adds	r1, r4, #0
 80052a2:	1c20      	adds	r0, r4, #0
 80052a4:	f7fb fcb2 	bl	8000c0c <__aeabi_fmul>
 80052a8:	e7a4      	b.n	80051f4 <__ieee754_powf+0x2c>
 80052aa:	23fc      	movs	r3, #252	@ 0xfc
 80052ac:	059b      	lsls	r3, r3, #22
 80052ae:	429f      	cmp	r7, r3
 80052b0:	d000      	beq.n	80052b4 <__ieee754_powf+0xec>
 80052b2:	e2cc      	b.n	800584e <__ieee754_powf+0x686>
 80052b4:	2c00      	cmp	r4, #0
 80052b6:	da00      	bge.n	80052ba <__ieee754_powf+0xf2>
 80052b8:	e2c9      	b.n	800584e <__ieee754_powf+0x686>
 80052ba:	1c20      	adds	r0, r4, #0
 80052bc:	f7ff ff10 	bl	80050e0 <__ieee754_sqrtf>
 80052c0:	e798      	b.n	80051f4 <__ieee754_powf+0x2c>
 80052c2:	9b02      	ldr	r3, [sp, #8]
 80052c4:	2b01      	cmp	r3, #1
 80052c6:	d000      	beq.n	80052ca <__ieee754_powf+0x102>
 80052c8:	e794      	b.n	80051f4 <__ieee754_powf+0x2c>
 80052ca:	2380      	movs	r3, #128	@ 0x80
 80052cc:	061b      	lsls	r3, r3, #24
 80052ce:	18c0      	adds	r0, r0, r3
 80052d0:	e790      	b.n	80051f4 <__ieee754_powf+0x2c>
 80052d2:	0fe3      	lsrs	r3, r4, #31
 80052d4:	3b01      	subs	r3, #1
 80052d6:	9305      	str	r3, [sp, #20]
 80052d8:	9a05      	ldr	r2, [sp, #20]
 80052da:	9b02      	ldr	r3, [sp, #8]
 80052dc:	4313      	orrs	r3, r2
 80052de:	d102      	bne.n	80052e6 <__ieee754_powf+0x11e>
 80052e0:	1c21      	adds	r1, r4, #0
 80052e2:	1c20      	adds	r0, r4, #0
 80052e4:	e2d2      	b.n	800588c <__ieee754_powf+0x6c4>
 80052e6:	239a      	movs	r3, #154	@ 0x9a
 80052e8:	05db      	lsls	r3, r3, #23
 80052ea:	429e      	cmp	r6, r3
 80052ec:	d800      	bhi.n	80052f0 <__ieee754_powf+0x128>
 80052ee:	e097      	b.n	8005420 <__ieee754_powf+0x258>
 80052f0:	4b45      	ldr	r3, [pc, #276]	@ (8005408 <__ieee754_powf+0x240>)
 80052f2:	429d      	cmp	r5, r3
 80052f4:	d805      	bhi.n	8005302 <__ieee754_powf+0x13a>
 80052f6:	2f00      	cmp	r7, #0
 80052f8:	da08      	bge.n	800530c <__ieee754_powf+0x144>
 80052fa:	2000      	movs	r0, #0
 80052fc:	f000 fb42 	bl	8005984 <__math_oflowf>
 8005300:	e778      	b.n	80051f4 <__ieee754_powf+0x2c>
 8005302:	4b42      	ldr	r3, [pc, #264]	@ (800540c <__ieee754_powf+0x244>)
 8005304:	429d      	cmp	r5, r3
 8005306:	d905      	bls.n	8005314 <__ieee754_powf+0x14c>
 8005308:	2f00      	cmp	r7, #0
 800530a:	dcf6      	bgt.n	80052fa <__ieee754_powf+0x132>
 800530c:	2000      	movs	r0, #0
 800530e:	f000 fb33 	bl	8005978 <__math_uflowf>
 8005312:	e76f      	b.n	80051f4 <__ieee754_powf+0x2c>
 8005314:	21fe      	movs	r1, #254	@ 0xfe
 8005316:	0589      	lsls	r1, r1, #22
 8005318:	f7fb fdd2 	bl	8000ec0 <__aeabi_fsub>
 800531c:	493c      	ldr	r1, [pc, #240]	@ (8005410 <__ieee754_powf+0x248>)
 800531e:	1c04      	adds	r4, r0, #0
 8005320:	f7fb fc74 	bl	8000c0c <__aeabi_fmul>
 8005324:	493b      	ldr	r1, [pc, #236]	@ (8005414 <__ieee754_powf+0x24c>)
 8005326:	1c05      	adds	r5, r0, #0
 8005328:	1c20      	adds	r0, r4, #0
 800532a:	f7fb fc6f 	bl	8000c0c <__aeabi_fmul>
 800532e:	21fa      	movs	r1, #250	@ 0xfa
 8005330:	1c06      	adds	r6, r0, #0
 8005332:	0589      	lsls	r1, r1, #22
 8005334:	1c20      	adds	r0, r4, #0
 8005336:	f7fb fc69 	bl	8000c0c <__aeabi_fmul>
 800533a:	1c01      	adds	r1, r0, #0
 800533c:	4836      	ldr	r0, [pc, #216]	@ (8005418 <__ieee754_powf+0x250>)
 800533e:	f7fb fdbf 	bl	8000ec0 <__aeabi_fsub>
 8005342:	1c21      	adds	r1, r4, #0
 8005344:	f7fb fc62 	bl	8000c0c <__aeabi_fmul>
 8005348:	1c01      	adds	r1, r0, #0
 800534a:	20fc      	movs	r0, #252	@ 0xfc
 800534c:	0580      	lsls	r0, r0, #22
 800534e:	f7fb fdb7 	bl	8000ec0 <__aeabi_fsub>
 8005352:	1c21      	adds	r1, r4, #0
 8005354:	1c07      	adds	r7, r0, #0
 8005356:	1c20      	adds	r0, r4, #0
 8005358:	f7fb fc58 	bl	8000c0c <__aeabi_fmul>
 800535c:	1c01      	adds	r1, r0, #0
 800535e:	1c38      	adds	r0, r7, #0
 8005360:	f7fb fc54 	bl	8000c0c <__aeabi_fmul>
 8005364:	492d      	ldr	r1, [pc, #180]	@ (800541c <__ieee754_powf+0x254>)
 8005366:	f7fb fc51 	bl	8000c0c <__aeabi_fmul>
 800536a:	1c01      	adds	r1, r0, #0
 800536c:	1c30      	adds	r0, r6, #0
 800536e:	f7fb fda7 	bl	8000ec0 <__aeabi_fsub>
 8005372:	1c01      	adds	r1, r0, #0
 8005374:	1c06      	adds	r6, r0, #0
 8005376:	1c28      	adds	r0, r5, #0
 8005378:	f7fb f888 	bl	800048c <__aeabi_fadd>
 800537c:	0b04      	lsrs	r4, r0, #12
 800537e:	0324      	lsls	r4, r4, #12
 8005380:	1c29      	adds	r1, r5, #0
 8005382:	1c20      	adds	r0, r4, #0
 8005384:	f7fb fd9c 	bl	8000ec0 <__aeabi_fsub>
 8005388:	1c01      	adds	r1, r0, #0
 800538a:	1c30      	adds	r0, r6, #0
 800538c:	f7fb fd98 	bl	8000ec0 <__aeabi_fsub>
 8005390:	9b02      	ldr	r3, [sp, #8]
 8005392:	9a05      	ldr	r2, [sp, #20]
 8005394:	3b01      	subs	r3, #1
 8005396:	1c06      	adds	r6, r0, #0
 8005398:	4313      	orrs	r3, r2
 800539a:	d100      	bne.n	800539e <__ieee754_powf+0x1d6>
 800539c:	e14d      	b.n	800563a <__ieee754_powf+0x472>
 800539e:	27fe      	movs	r7, #254	@ 0xfe
 80053a0:	05bf      	lsls	r7, r7, #22
 80053a2:	9b01      	ldr	r3, [sp, #4]
 80053a4:	9801      	ldr	r0, [sp, #4]
 80053a6:	0b1d      	lsrs	r5, r3, #12
 80053a8:	032d      	lsls	r5, r5, #12
 80053aa:	1c29      	adds	r1, r5, #0
 80053ac:	f7fb fd88 	bl	8000ec0 <__aeabi_fsub>
 80053b0:	1c21      	adds	r1, r4, #0
 80053b2:	f7fb fc2b 	bl	8000c0c <__aeabi_fmul>
 80053b6:	9901      	ldr	r1, [sp, #4]
 80053b8:	9002      	str	r0, [sp, #8]
 80053ba:	1c30      	adds	r0, r6, #0
 80053bc:	f7fb fc26 	bl	8000c0c <__aeabi_fmul>
 80053c0:	1c01      	adds	r1, r0, #0
 80053c2:	9802      	ldr	r0, [sp, #8]
 80053c4:	f7fb f862 	bl	800048c <__aeabi_fadd>
 80053c8:	1c29      	adds	r1, r5, #0
 80053ca:	9001      	str	r0, [sp, #4]
 80053cc:	1c20      	adds	r0, r4, #0
 80053ce:	f7fb fc1d 	bl	8000c0c <__aeabi_fmul>
 80053d2:	1c01      	adds	r1, r0, #0
 80053d4:	1c04      	adds	r4, r0, #0
 80053d6:	9801      	ldr	r0, [sp, #4]
 80053d8:	f7fb f858 	bl	800048c <__aeabi_fadd>
 80053dc:	0043      	lsls	r3, r0, #1
 80053de:	1c06      	adds	r6, r0, #0
 80053e0:	9002      	str	r0, [sp, #8]
 80053e2:	085b      	lsrs	r3, r3, #1
 80053e4:	2800      	cmp	r0, #0
 80053e6:	dc00      	bgt.n	80053ea <__ieee754_powf+0x222>
 80053e8:	e13d      	b.n	8005666 <__ieee754_powf+0x49e>
 80053ea:	2286      	movs	r2, #134	@ 0x86
 80053ec:	05d2      	lsls	r2, r2, #23
 80053ee:	4293      	cmp	r3, r2
 80053f0:	d800      	bhi.n	80053f4 <__ieee754_powf+0x22c>
 80053f2:	e124      	b.n	800563e <__ieee754_powf+0x476>
 80053f4:	2100      	movs	r1, #0
 80053f6:	1c38      	adds	r0, r7, #0
 80053f8:	f7fb f820 	bl	800043c <__aeabi_fcmplt>
 80053fc:	1e43      	subs	r3, r0, #1
 80053fe:	4198      	sbcs	r0, r3
 8005400:	e77c      	b.n	80052fc <__ieee754_powf+0x134>
 8005402:	46c0      	nop			@ (mov r8, r8)
 8005404:	ff800000 	.word	0xff800000
 8005408:	3f7ffff3 	.word	0x3f7ffff3
 800540c:	3f800007 	.word	0x3f800007
 8005410:	3fb8aa00 	.word	0x3fb8aa00
 8005414:	36eca570 	.word	0x36eca570
 8005418:	3eaaaaab 	.word	0x3eaaaaab
 800541c:	3fb8aa3b 	.word	0x3fb8aa3b
 8005420:	23ff      	movs	r3, #255	@ 0xff
 8005422:	05db      	lsls	r3, r3, #23
 8005424:	2200      	movs	r2, #0
 8005426:	4223      	tst	r3, r4
 8005428:	d106      	bne.n	8005438 <__ieee754_powf+0x270>
 800542a:	2197      	movs	r1, #151	@ 0x97
 800542c:	05c9      	lsls	r1, r1, #23
 800542e:	f7fb fbed 	bl	8000c0c <__aeabi_fmul>
 8005432:	2218      	movs	r2, #24
 8005434:	9003      	str	r0, [sp, #12]
 8005436:	4252      	negs	r2, r2
 8005438:	24fe      	movs	r4, #254	@ 0xfe
 800543a:	9b03      	ldr	r3, [sp, #12]
 800543c:	05a4      	lsls	r4, r4, #22
 800543e:	15db      	asrs	r3, r3, #23
 8005440:	3b7f      	subs	r3, #127	@ 0x7f
 8005442:	189b      	adds	r3, r3, r2
 8005444:	9304      	str	r3, [sp, #16]
 8005446:	9b03      	ldr	r3, [sp, #12]
 8005448:	4ae3      	ldr	r2, [pc, #908]	@ (80057d8 <__ieee754_powf+0x610>)
 800544a:	025b      	lsls	r3, r3, #9
 800544c:	0a5b      	lsrs	r3, r3, #9
 800544e:	2500      	movs	r5, #0
 8005450:	431c      	orrs	r4, r3
 8005452:	4293      	cmp	r3, r2
 8005454:	dd09      	ble.n	800546a <__ieee754_powf+0x2a2>
 8005456:	4ae1      	ldr	r2, [pc, #900]	@ (80057dc <__ieee754_powf+0x614>)
 8005458:	3501      	adds	r5, #1
 800545a:	4293      	cmp	r3, r2
 800545c:	dd05      	ble.n	800546a <__ieee754_powf+0x2a2>
 800545e:	9b04      	ldr	r3, [sp, #16]
 8005460:	195b      	adds	r3, r3, r5
 8005462:	2500      	movs	r5, #0
 8005464:	9304      	str	r3, [sp, #16]
 8005466:	4bde      	ldr	r3, [pc, #888]	@ (80057e0 <__ieee754_powf+0x618>)
 8005468:	18e4      	adds	r4, r4, r3
 800546a:	4bde      	ldr	r3, [pc, #888]	@ (80057e4 <__ieee754_powf+0x61c>)
 800546c:	00aa      	lsls	r2, r5, #2
 800546e:	58d7      	ldr	r7, [r2, r3]
 8005470:	1c20      	adds	r0, r4, #0
 8005472:	1c39      	adds	r1, r7, #0
 8005474:	9206      	str	r2, [sp, #24]
 8005476:	9409      	str	r4, [sp, #36]	@ 0x24
 8005478:	f7fb fd22 	bl	8000ec0 <__aeabi_fsub>
 800547c:	1c21      	adds	r1, r4, #0
 800547e:	9007      	str	r0, [sp, #28]
 8005480:	1c38      	adds	r0, r7, #0
 8005482:	f7fb f803 	bl	800048c <__aeabi_fadd>
 8005486:	1c01      	adds	r1, r0, #0
 8005488:	20fe      	movs	r0, #254	@ 0xfe
 800548a:	0580      	lsls	r0, r0, #22
 800548c:	f7fb f9f0 	bl	8000870 <__aeabi_fdiv>
 8005490:	1c01      	adds	r1, r0, #0
 8005492:	9008      	str	r0, [sp, #32]
 8005494:	9807      	ldr	r0, [sp, #28]
 8005496:	f7fb fbb9 	bl	8000c0c <__aeabi_fmul>
 800549a:	9003      	str	r0, [sp, #12]
 800549c:	9b03      	ldr	r3, [sp, #12]
 800549e:	2280      	movs	r2, #128	@ 0x80
 80054a0:	0b1e      	lsrs	r6, r3, #12
 80054a2:	2380      	movs	r3, #128	@ 0x80
 80054a4:	1064      	asrs	r4, r4, #1
 80054a6:	0592      	lsls	r2, r2, #22
 80054a8:	02db      	lsls	r3, r3, #11
 80054aa:	4322      	orrs	r2, r4
 80054ac:	18d2      	adds	r2, r2, r3
 80054ae:	056d      	lsls	r5, r5, #21
 80054b0:	1955      	adds	r5, r2, r5
 80054b2:	0336      	lsls	r6, r6, #12
 80054b4:	1c29      	adds	r1, r5, #0
 80054b6:	1c30      	adds	r0, r6, #0
 80054b8:	f7fb fba8 	bl	8000c0c <__aeabi_fmul>
 80054bc:	1c01      	adds	r1, r0, #0
 80054be:	9807      	ldr	r0, [sp, #28]
 80054c0:	f7fb fcfe 	bl	8000ec0 <__aeabi_fsub>
 80054c4:	1c39      	adds	r1, r7, #0
 80054c6:	1c04      	adds	r4, r0, #0
 80054c8:	1c28      	adds	r0, r5, #0
 80054ca:	f7fb fcf9 	bl	8000ec0 <__aeabi_fsub>
 80054ce:	1c01      	adds	r1, r0, #0
 80054d0:	9809      	ldr	r0, [sp, #36]	@ 0x24
 80054d2:	f7fb fcf5 	bl	8000ec0 <__aeabi_fsub>
 80054d6:	1c31      	adds	r1, r6, #0
 80054d8:	f7fb fb98 	bl	8000c0c <__aeabi_fmul>
 80054dc:	1c01      	adds	r1, r0, #0
 80054de:	1c20      	adds	r0, r4, #0
 80054e0:	f7fb fcee 	bl	8000ec0 <__aeabi_fsub>
 80054e4:	9908      	ldr	r1, [sp, #32]
 80054e6:	f7fb fb91 	bl	8000c0c <__aeabi_fmul>
 80054ea:	9903      	ldr	r1, [sp, #12]
 80054ec:	9007      	str	r0, [sp, #28]
 80054ee:	1c08      	adds	r0, r1, #0
 80054f0:	f7fb fb8c 	bl	8000c0c <__aeabi_fmul>
 80054f4:	49bc      	ldr	r1, [pc, #752]	@ (80057e8 <__ieee754_powf+0x620>)
 80054f6:	1c04      	adds	r4, r0, #0
 80054f8:	f7fb fb88 	bl	8000c0c <__aeabi_fmul>
 80054fc:	49bb      	ldr	r1, [pc, #748]	@ (80057ec <__ieee754_powf+0x624>)
 80054fe:	f7fa ffc5 	bl	800048c <__aeabi_fadd>
 8005502:	1c21      	adds	r1, r4, #0
 8005504:	f7fb fb82 	bl	8000c0c <__aeabi_fmul>
 8005508:	49b9      	ldr	r1, [pc, #740]	@ (80057f0 <__ieee754_powf+0x628>)
 800550a:	f7fa ffbf 	bl	800048c <__aeabi_fadd>
 800550e:	1c21      	adds	r1, r4, #0
 8005510:	f7fb fb7c 	bl	8000c0c <__aeabi_fmul>
 8005514:	49b7      	ldr	r1, [pc, #732]	@ (80057f4 <__ieee754_powf+0x62c>)
 8005516:	f7fa ffb9 	bl	800048c <__aeabi_fadd>
 800551a:	1c21      	adds	r1, r4, #0
 800551c:	f7fb fb76 	bl	8000c0c <__aeabi_fmul>
 8005520:	49b5      	ldr	r1, [pc, #724]	@ (80057f8 <__ieee754_powf+0x630>)
 8005522:	f7fa ffb3 	bl	800048c <__aeabi_fadd>
 8005526:	1c21      	adds	r1, r4, #0
 8005528:	f7fb fb70 	bl	8000c0c <__aeabi_fmul>
 800552c:	49b3      	ldr	r1, [pc, #716]	@ (80057fc <__ieee754_powf+0x634>)
 800552e:	f7fa ffad 	bl	800048c <__aeabi_fadd>
 8005532:	1c21      	adds	r1, r4, #0
 8005534:	1c05      	adds	r5, r0, #0
 8005536:	1c20      	adds	r0, r4, #0
 8005538:	f7fb fb68 	bl	8000c0c <__aeabi_fmul>
 800553c:	1c01      	adds	r1, r0, #0
 800553e:	1c28      	adds	r0, r5, #0
 8005540:	f7fb fb64 	bl	8000c0c <__aeabi_fmul>
 8005544:	1c31      	adds	r1, r6, #0
 8005546:	1c04      	adds	r4, r0, #0
 8005548:	9803      	ldr	r0, [sp, #12]
 800554a:	f7fa ff9f 	bl	800048c <__aeabi_fadd>
 800554e:	9907      	ldr	r1, [sp, #28]
 8005550:	f7fb fb5c 	bl	8000c0c <__aeabi_fmul>
 8005554:	1c21      	adds	r1, r4, #0
 8005556:	f7fa ff99 	bl	800048c <__aeabi_fadd>
 800555a:	1c31      	adds	r1, r6, #0
 800555c:	9008      	str	r0, [sp, #32]
 800555e:	1c30      	adds	r0, r6, #0
 8005560:	f7fb fb54 	bl	8000c0c <__aeabi_fmul>
 8005564:	49a6      	ldr	r1, [pc, #664]	@ (8005800 <__ieee754_powf+0x638>)
 8005566:	1c07      	adds	r7, r0, #0
 8005568:	f7fa ff90 	bl	800048c <__aeabi_fadd>
 800556c:	9908      	ldr	r1, [sp, #32]
 800556e:	f7fa ff8d 	bl	800048c <__aeabi_fadd>
 8005572:	0b04      	lsrs	r4, r0, #12
 8005574:	0324      	lsls	r4, r4, #12
 8005576:	1c21      	adds	r1, r4, #0
 8005578:	1c30      	adds	r0, r6, #0
 800557a:	f7fb fb47 	bl	8000c0c <__aeabi_fmul>
 800557e:	49a0      	ldr	r1, [pc, #640]	@ (8005800 <__ieee754_powf+0x638>)
 8005580:	1c05      	adds	r5, r0, #0
 8005582:	1c20      	adds	r0, r4, #0
 8005584:	f7fb fc9c 	bl	8000ec0 <__aeabi_fsub>
 8005588:	1c39      	adds	r1, r7, #0
 800558a:	f7fb fc99 	bl	8000ec0 <__aeabi_fsub>
 800558e:	1c01      	adds	r1, r0, #0
 8005590:	9808      	ldr	r0, [sp, #32]
 8005592:	f7fb fc95 	bl	8000ec0 <__aeabi_fsub>
 8005596:	9903      	ldr	r1, [sp, #12]
 8005598:	f7fb fb38 	bl	8000c0c <__aeabi_fmul>
 800559c:	1c21      	adds	r1, r4, #0
 800559e:	1c06      	adds	r6, r0, #0
 80055a0:	9807      	ldr	r0, [sp, #28]
 80055a2:	f7fb fb33 	bl	8000c0c <__aeabi_fmul>
 80055a6:	1c01      	adds	r1, r0, #0
 80055a8:	1c30      	adds	r0, r6, #0
 80055aa:	f7fa ff6f 	bl	800048c <__aeabi_fadd>
 80055ae:	1c06      	adds	r6, r0, #0
 80055b0:	1c01      	adds	r1, r0, #0
 80055b2:	1c28      	adds	r0, r5, #0
 80055b4:	f7fa ff6a 	bl	800048c <__aeabi_fadd>
 80055b8:	0b04      	lsrs	r4, r0, #12
 80055ba:	0324      	lsls	r4, r4, #12
 80055bc:	4991      	ldr	r1, [pc, #580]	@ (8005804 <__ieee754_powf+0x63c>)
 80055be:	1c20      	adds	r0, r4, #0
 80055c0:	f7fb fb24 	bl	8000c0c <__aeabi_fmul>
 80055c4:	1c29      	adds	r1, r5, #0
 80055c6:	9003      	str	r0, [sp, #12]
 80055c8:	1c20      	adds	r0, r4, #0
 80055ca:	f7fb fc79 	bl	8000ec0 <__aeabi_fsub>
 80055ce:	1c01      	adds	r1, r0, #0
 80055d0:	1c30      	adds	r0, r6, #0
 80055d2:	f7fb fc75 	bl	8000ec0 <__aeabi_fsub>
 80055d6:	498c      	ldr	r1, [pc, #560]	@ (8005808 <__ieee754_powf+0x640>)
 80055d8:	f7fb fb18 	bl	8000c0c <__aeabi_fmul>
 80055dc:	498b      	ldr	r1, [pc, #556]	@ (800580c <__ieee754_powf+0x644>)
 80055de:	1c05      	adds	r5, r0, #0
 80055e0:	1c20      	adds	r0, r4, #0
 80055e2:	f7fb fb13 	bl	8000c0c <__aeabi_fmul>
 80055e6:	1c01      	adds	r1, r0, #0
 80055e8:	1c28      	adds	r0, r5, #0
 80055ea:	f7fa ff4f 	bl	800048c <__aeabi_fadd>
 80055ee:	9a06      	ldr	r2, [sp, #24]
 80055f0:	4b87      	ldr	r3, [pc, #540]	@ (8005810 <__ieee754_powf+0x648>)
 80055f2:	58d1      	ldr	r1, [r2, r3]
 80055f4:	f7fa ff4a 	bl	800048c <__aeabi_fadd>
 80055f8:	1c05      	adds	r5, r0, #0
 80055fa:	9804      	ldr	r0, [sp, #16]
 80055fc:	f7fb feda 	bl	80013b4 <__aeabi_i2f>
 8005600:	4b84      	ldr	r3, [pc, #528]	@ (8005814 <__ieee754_powf+0x64c>)
 8005602:	9a06      	ldr	r2, [sp, #24]
 8005604:	1c06      	adds	r6, r0, #0
 8005606:	58d7      	ldr	r7, [r2, r3]
 8005608:	1c29      	adds	r1, r5, #0
 800560a:	9803      	ldr	r0, [sp, #12]
 800560c:	f7fa ff3e 	bl	800048c <__aeabi_fadd>
 8005610:	1c39      	adds	r1, r7, #0
 8005612:	f7fa ff3b 	bl	800048c <__aeabi_fadd>
 8005616:	1c31      	adds	r1, r6, #0
 8005618:	f7fa ff38 	bl	800048c <__aeabi_fadd>
 800561c:	0b04      	lsrs	r4, r0, #12
 800561e:	0324      	lsls	r4, r4, #12
 8005620:	1c31      	adds	r1, r6, #0
 8005622:	1c20      	adds	r0, r4, #0
 8005624:	f7fb fc4c 	bl	8000ec0 <__aeabi_fsub>
 8005628:	1c39      	adds	r1, r7, #0
 800562a:	f7fb fc49 	bl	8000ec0 <__aeabi_fsub>
 800562e:	9903      	ldr	r1, [sp, #12]
 8005630:	f7fb fc46 	bl	8000ec0 <__aeabi_fsub>
 8005634:	1c01      	adds	r1, r0, #0
 8005636:	1c28      	adds	r0, r5, #0
 8005638:	e6a8      	b.n	800538c <__ieee754_powf+0x1c4>
 800563a:	4f77      	ldr	r7, [pc, #476]	@ (8005818 <__ieee754_powf+0x650>)
 800563c:	e6b1      	b.n	80053a2 <__ieee754_powf+0x1da>
 800563e:	4293      	cmp	r3, r2
 8005640:	d126      	bne.n	8005690 <__ieee754_powf+0x4c8>
 8005642:	4976      	ldr	r1, [pc, #472]	@ (800581c <__ieee754_powf+0x654>)
 8005644:	9801      	ldr	r0, [sp, #4]
 8005646:	f7fa ff21 	bl	800048c <__aeabi_fadd>
 800564a:	1c21      	adds	r1, r4, #0
 800564c:	1c05      	adds	r5, r0, #0
 800564e:	1c30      	adds	r0, r6, #0
 8005650:	f7fb fc36 	bl	8000ec0 <__aeabi_fsub>
 8005654:	1c01      	adds	r1, r0, #0
 8005656:	1c28      	adds	r0, r5, #0
 8005658:	f7fa ff04 	bl	8000464 <__aeabi_fcmpgt>
 800565c:	2800      	cmp	r0, #0
 800565e:	d000      	beq.n	8005662 <__ieee754_powf+0x49a>
 8005660:	e6c8      	b.n	80053f4 <__ieee754_powf+0x22c>
 8005662:	2386      	movs	r3, #134	@ 0x86
 8005664:	e01a      	b.n	800569c <__ieee754_powf+0x4d4>
 8005666:	4a6e      	ldr	r2, [pc, #440]	@ (8005820 <__ieee754_powf+0x658>)
 8005668:	4293      	cmp	r3, r2
 800566a:	d906      	bls.n	800567a <__ieee754_powf+0x4b2>
 800566c:	2100      	movs	r1, #0
 800566e:	1c38      	adds	r0, r7, #0
 8005670:	f7fa fee4 	bl	800043c <__aeabi_fcmplt>
 8005674:	1e43      	subs	r3, r0, #1
 8005676:	4198      	sbcs	r0, r3
 8005678:	e649      	b.n	800530e <__ieee754_powf+0x146>
 800567a:	4293      	cmp	r3, r2
 800567c:	d108      	bne.n	8005690 <__ieee754_powf+0x4c8>
 800567e:	1c21      	adds	r1, r4, #0
 8005680:	f7fb fc1e 	bl	8000ec0 <__aeabi_fsub>
 8005684:	9901      	ldr	r1, [sp, #4]
 8005686:	f7fa fef7 	bl	8000478 <__aeabi_fcmpge>
 800568a:	2800      	cmp	r0, #0
 800568c:	d0e9      	beq.n	8005662 <__ieee754_powf+0x49a>
 800568e:	e7ed      	b.n	800566c <__ieee754_powf+0x4a4>
 8005690:	22fc      	movs	r2, #252	@ 0xfc
 8005692:	2500      	movs	r5, #0
 8005694:	0592      	lsls	r2, r2, #22
 8005696:	4293      	cmp	r3, r2
 8005698:	d91a      	bls.n	80056d0 <__ieee754_powf+0x508>
 800569a:	15db      	asrs	r3, r3, #23
 800569c:	2580      	movs	r5, #128	@ 0x80
 800569e:	042d      	lsls	r5, r5, #16
 80056a0:	002a      	movs	r2, r5
 80056a2:	3b7e      	subs	r3, #126	@ 0x7e
 80056a4:	411a      	asrs	r2, r3
 80056a6:	1993      	adds	r3, r2, r6
 80056a8:	15da      	asrs	r2, r3, #23
 80056aa:	494d      	ldr	r1, [pc, #308]	@ (80057e0 <__ieee754_powf+0x618>)
 80056ac:	b2d2      	uxtb	r2, r2
 80056ae:	3a7f      	subs	r2, #127	@ 0x7f
 80056b0:	4111      	asrs	r1, r2
 80056b2:	4019      	ands	r1, r3
 80056b4:	025b      	lsls	r3, r3, #9
 80056b6:	0a5b      	lsrs	r3, r3, #9
 80056b8:	431d      	orrs	r5, r3
 80056ba:	2317      	movs	r3, #23
 80056bc:	1a9b      	subs	r3, r3, r2
 80056be:	411d      	asrs	r5, r3
 80056c0:	9b02      	ldr	r3, [sp, #8]
 80056c2:	2b00      	cmp	r3, #0
 80056c4:	da00      	bge.n	80056c8 <__ieee754_powf+0x500>
 80056c6:	426d      	negs	r5, r5
 80056c8:	1c20      	adds	r0, r4, #0
 80056ca:	f7fb fbf9 	bl	8000ec0 <__aeabi_fsub>
 80056ce:	1c04      	adds	r4, r0, #0
 80056d0:	9901      	ldr	r1, [sp, #4]
 80056d2:	1c20      	adds	r0, r4, #0
 80056d4:	f7fa feda 	bl	800048c <__aeabi_fadd>
 80056d8:	0b00      	lsrs	r0, r0, #12
 80056da:	0303      	lsls	r3, r0, #12
 80056dc:	1c18      	adds	r0, r3, #0
 80056de:	4951      	ldr	r1, [pc, #324]	@ (8005824 <__ieee754_powf+0x65c>)
 80056e0:	001e      	movs	r6, r3
 80056e2:	f7fb fa93 	bl	8000c0c <__aeabi_fmul>
 80056e6:	1c21      	adds	r1, r4, #0
 80056e8:	9002      	str	r0, [sp, #8]
 80056ea:	1c30      	adds	r0, r6, #0
 80056ec:	f7fb fbe8 	bl	8000ec0 <__aeabi_fsub>
 80056f0:	1c01      	adds	r1, r0, #0
 80056f2:	9801      	ldr	r0, [sp, #4]
 80056f4:	f7fb fbe4 	bl	8000ec0 <__aeabi_fsub>
 80056f8:	494b      	ldr	r1, [pc, #300]	@ (8005828 <__ieee754_powf+0x660>)
 80056fa:	f7fb fa87 	bl	8000c0c <__aeabi_fmul>
 80056fe:	494b      	ldr	r1, [pc, #300]	@ (800582c <__ieee754_powf+0x664>)
 8005700:	1c04      	adds	r4, r0, #0
 8005702:	1c30      	adds	r0, r6, #0
 8005704:	f7fb fa82 	bl	8000c0c <__aeabi_fmul>
 8005708:	1c01      	adds	r1, r0, #0
 800570a:	1c20      	adds	r0, r4, #0
 800570c:	f7fa febe 	bl	800048c <__aeabi_fadd>
 8005710:	1c06      	adds	r6, r0, #0
 8005712:	1c01      	adds	r1, r0, #0
 8005714:	9802      	ldr	r0, [sp, #8]
 8005716:	f7fa feb9 	bl	800048c <__aeabi_fadd>
 800571a:	9902      	ldr	r1, [sp, #8]
 800571c:	1c04      	adds	r4, r0, #0
 800571e:	f7fb fbcf 	bl	8000ec0 <__aeabi_fsub>
 8005722:	1c01      	adds	r1, r0, #0
 8005724:	1c30      	adds	r0, r6, #0
 8005726:	f7fb fbcb 	bl	8000ec0 <__aeabi_fsub>
 800572a:	1c21      	adds	r1, r4, #0
 800572c:	9001      	str	r0, [sp, #4]
 800572e:	1c20      	adds	r0, r4, #0
 8005730:	f7fb fa6c 	bl	8000c0c <__aeabi_fmul>
 8005734:	493e      	ldr	r1, [pc, #248]	@ (8005830 <__ieee754_powf+0x668>)
 8005736:	1c06      	adds	r6, r0, #0
 8005738:	f7fb fa68 	bl	8000c0c <__aeabi_fmul>
 800573c:	493d      	ldr	r1, [pc, #244]	@ (8005834 <__ieee754_powf+0x66c>)
 800573e:	f7fb fbbf 	bl	8000ec0 <__aeabi_fsub>
 8005742:	1c31      	adds	r1, r6, #0
 8005744:	f7fb fa62 	bl	8000c0c <__aeabi_fmul>
 8005748:	493b      	ldr	r1, [pc, #236]	@ (8005838 <__ieee754_powf+0x670>)
 800574a:	f7fa fe9f 	bl	800048c <__aeabi_fadd>
 800574e:	1c31      	adds	r1, r6, #0
 8005750:	f7fb fa5c 	bl	8000c0c <__aeabi_fmul>
 8005754:	4939      	ldr	r1, [pc, #228]	@ (800583c <__ieee754_powf+0x674>)
 8005756:	f7fb fbb3 	bl	8000ec0 <__aeabi_fsub>
 800575a:	1c31      	adds	r1, r6, #0
 800575c:	f7fb fa56 	bl	8000c0c <__aeabi_fmul>
 8005760:	4937      	ldr	r1, [pc, #220]	@ (8005840 <__ieee754_powf+0x678>)
 8005762:	f7fa fe93 	bl	800048c <__aeabi_fadd>
 8005766:	1c31      	adds	r1, r6, #0
 8005768:	f7fb fa50 	bl	8000c0c <__aeabi_fmul>
 800576c:	1c01      	adds	r1, r0, #0
 800576e:	1c20      	adds	r0, r4, #0
 8005770:	f7fb fba6 	bl	8000ec0 <__aeabi_fsub>
 8005774:	1c06      	adds	r6, r0, #0
 8005776:	1c01      	adds	r1, r0, #0
 8005778:	1c20      	adds	r0, r4, #0
 800577a:	f7fb fa47 	bl	8000c0c <__aeabi_fmul>
 800577e:	2180      	movs	r1, #128	@ 0x80
 8005780:	9002      	str	r0, [sp, #8]
 8005782:	05c9      	lsls	r1, r1, #23
 8005784:	1c30      	adds	r0, r6, #0
 8005786:	f7fb fb9b 	bl	8000ec0 <__aeabi_fsub>
 800578a:	1c01      	adds	r1, r0, #0
 800578c:	9802      	ldr	r0, [sp, #8]
 800578e:	f7fb f86f 	bl	8000870 <__aeabi_fdiv>
 8005792:	9901      	ldr	r1, [sp, #4]
 8005794:	1c06      	adds	r6, r0, #0
 8005796:	1c20      	adds	r0, r4, #0
 8005798:	f7fb fa38 	bl	8000c0c <__aeabi_fmul>
 800579c:	9901      	ldr	r1, [sp, #4]
 800579e:	f7fa fe75 	bl	800048c <__aeabi_fadd>
 80057a2:	1c01      	adds	r1, r0, #0
 80057a4:	1c30      	adds	r0, r6, #0
 80057a6:	f7fb fb8b 	bl	8000ec0 <__aeabi_fsub>
 80057aa:	1c21      	adds	r1, r4, #0
 80057ac:	f7fb fb88 	bl	8000ec0 <__aeabi_fsub>
 80057b0:	1c01      	adds	r1, r0, #0
 80057b2:	20fe      	movs	r0, #254	@ 0xfe
 80057b4:	0580      	lsls	r0, r0, #22
 80057b6:	f7fb fb83 	bl	8000ec0 <__aeabi_fsub>
 80057ba:	05eb      	lsls	r3, r5, #23
 80057bc:	181b      	adds	r3, r3, r0
 80057be:	15da      	asrs	r2, r3, #23
 80057c0:	2a00      	cmp	r2, #0
 80057c2:	dc04      	bgt.n	80057ce <__ieee754_powf+0x606>
 80057c4:	0029      	movs	r1, r5
 80057c6:	f000 f86b 	bl	80058a0 <scalbnf>
 80057ca:	1c39      	adds	r1, r7, #0
 80057cc:	e56a      	b.n	80052a4 <__ieee754_powf+0xdc>
 80057ce:	1c18      	adds	r0, r3, #0
 80057d0:	e7fb      	b.n	80057ca <__ieee754_powf+0x602>
 80057d2:	20fe      	movs	r0, #254	@ 0xfe
 80057d4:	0580      	lsls	r0, r0, #22
 80057d6:	e50d      	b.n	80051f4 <__ieee754_powf+0x2c>
 80057d8:	001cc471 	.word	0x001cc471
 80057dc:	005db3d6 	.word	0x005db3d6
 80057e0:	ff800000 	.word	0xff800000
 80057e4:	08005b48 	.word	0x08005b48
 80057e8:	3e53f142 	.word	0x3e53f142
 80057ec:	3e6c3255 	.word	0x3e6c3255
 80057f0:	3e8ba305 	.word	0x3e8ba305
 80057f4:	3eaaaaab 	.word	0x3eaaaaab
 80057f8:	3edb6db7 	.word	0x3edb6db7
 80057fc:	3f19999a 	.word	0x3f19999a
 8005800:	40400000 	.word	0x40400000
 8005804:	3f763800 	.word	0x3f763800
 8005808:	3f76384f 	.word	0x3f76384f
 800580c:	369dc3a0 	.word	0x369dc3a0
 8005810:	08005b38 	.word	0x08005b38
 8005814:	08005b40 	.word	0x08005b40
 8005818:	bf800000 	.word	0xbf800000
 800581c:	3338aa3c 	.word	0x3338aa3c
 8005820:	43160000 	.word	0x43160000
 8005824:	3f317200 	.word	0x3f317200
 8005828:	3f317218 	.word	0x3f317218
 800582c:	35bfbe8c 	.word	0x35bfbe8c
 8005830:	3331bb4c 	.word	0x3331bb4c
 8005834:	35ddea0e 	.word	0x35ddea0e
 8005838:	388ab355 	.word	0x388ab355
 800583c:	3b360b61 	.word	0x3b360b61
 8005840:	3e2aaaab 	.word	0x3e2aaaab
 8005844:	429e      	cmp	r6, r3
 8005846:	d100      	bne.n	800584a <__ieee754_powf+0x682>
 8005848:	e512      	b.n	8005270 <__ieee754_powf+0xa8>
 800584a:	2302      	movs	r3, #2
 800584c:	9302      	str	r3, [sp, #8]
 800584e:	1c20      	adds	r0, r4, #0
 8005850:	9503      	str	r5, [sp, #12]
 8005852:	f000 f821 	bl	8005898 <fabsf>
 8005856:	22fe      	movs	r2, #254	@ 0xfe
 8005858:	00a3      	lsls	r3, r4, #2
 800585a:	089b      	lsrs	r3, r3, #2
 800585c:	0592      	lsls	r2, r2, #22
 800585e:	4293      	cmp	r3, r2
 8005860:	d002      	beq.n	8005868 <__ieee754_powf+0x6a0>
 8005862:	2d00      	cmp	r5, #0
 8005864:	d000      	beq.n	8005868 <__ieee754_powf+0x6a0>
 8005866:	e534      	b.n	80052d2 <__ieee754_powf+0x10a>
 8005868:	2f00      	cmp	r7, #0
 800586a:	da04      	bge.n	8005876 <__ieee754_powf+0x6ae>
 800586c:	1c01      	adds	r1, r0, #0
 800586e:	20fe      	movs	r0, #254	@ 0xfe
 8005870:	0580      	lsls	r0, r0, #22
 8005872:	f7fa fffd 	bl	8000870 <__aeabi_fdiv>
 8005876:	9b04      	ldr	r3, [sp, #16]
 8005878:	2b00      	cmp	r3, #0
 800587a:	db00      	blt.n	800587e <__ieee754_powf+0x6b6>
 800587c:	e4ba      	b.n	80051f4 <__ieee754_powf+0x2c>
 800587e:	4b05      	ldr	r3, [pc, #20]	@ (8005894 <__ieee754_powf+0x6cc>)
 8005880:	18ed      	adds	r5, r5, r3
 8005882:	9b02      	ldr	r3, [sp, #8]
 8005884:	431d      	orrs	r5, r3
 8005886:	d000      	beq.n	800588a <__ieee754_powf+0x6c2>
 8005888:	e51b      	b.n	80052c2 <__ieee754_powf+0xfa>
 800588a:	1c01      	adds	r1, r0, #0
 800588c:	f7fb fb18 	bl	8000ec0 <__aeabi_fsub>
 8005890:	1c01      	adds	r1, r0, #0
 8005892:	e4e6      	b.n	8005262 <__ieee754_powf+0x9a>
 8005894:	c0800000 	.word	0xc0800000

08005898 <fabsf>:
 8005898:	0040      	lsls	r0, r0, #1
 800589a:	0840      	lsrs	r0, r0, #1
 800589c:	4770      	bx	lr
	...

080058a0 <scalbnf>:
 80058a0:	0043      	lsls	r3, r0, #1
 80058a2:	b570      	push	{r4, r5, r6, lr}
 80058a4:	0002      	movs	r2, r0
 80058a6:	000c      	movs	r4, r1
 80058a8:	085d      	lsrs	r5, r3, #1
 80058aa:	2b00      	cmp	r3, #0
 80058ac:	d006      	beq.n	80058bc <scalbnf+0x1c>
 80058ae:	21ff      	movs	r1, #255	@ 0xff
 80058b0:	05c9      	lsls	r1, r1, #23
 80058b2:	428d      	cmp	r5, r1
 80058b4:	d303      	bcc.n	80058be <scalbnf+0x1e>
 80058b6:	1c01      	adds	r1, r0, #0
 80058b8:	f7fa fde8 	bl	800048c <__aeabi_fadd>
 80058bc:	bd70      	pop	{r4, r5, r6, pc}
 80058be:	4208      	tst	r0, r1
 80058c0:	d118      	bne.n	80058f4 <scalbnf+0x54>
 80058c2:	2198      	movs	r1, #152	@ 0x98
 80058c4:	05c9      	lsls	r1, r1, #23
 80058c6:	f7fb f9a1 	bl	8000c0c <__aeabi_fmul>
 80058ca:	4b19      	ldr	r3, [pc, #100]	@ (8005930 <scalbnf+0x90>)
 80058cc:	429c      	cmp	r4, r3
 80058ce:	db0d      	blt.n	80058ec <scalbnf+0x4c>
 80058d0:	0002      	movs	r2, r0
 80058d2:	15c3      	asrs	r3, r0, #23
 80058d4:	b2db      	uxtb	r3, r3
 80058d6:	3b19      	subs	r3, #25
 80058d8:	4916      	ldr	r1, [pc, #88]	@ (8005934 <scalbnf+0x94>)
 80058da:	428c      	cmp	r4, r1
 80058dc:	dd0c      	ble.n	80058f8 <scalbnf+0x58>
 80058de:	4b16      	ldr	r3, [pc, #88]	@ (8005938 <scalbnf+0x98>)
 80058e0:	2800      	cmp	r0, #0
 80058e2:	da00      	bge.n	80058e6 <scalbnf+0x46>
 80058e4:	4b15      	ldr	r3, [pc, #84]	@ (800593c <scalbnf+0x9c>)
 80058e6:	4914      	ldr	r1, [pc, #80]	@ (8005938 <scalbnf+0x98>)
 80058e8:	1c18      	adds	r0, r3, #0
 80058ea:	e000      	b.n	80058ee <scalbnf+0x4e>
 80058ec:	4914      	ldr	r1, [pc, #80]	@ (8005940 <scalbnf+0xa0>)
 80058ee:	f7fb f98d 	bl	8000c0c <__aeabi_fmul>
 80058f2:	e7e3      	b.n	80058bc <scalbnf+0x1c>
 80058f4:	0e1b      	lsrs	r3, r3, #24
 80058f6:	e7ef      	b.n	80058d8 <scalbnf+0x38>
 80058f8:	1919      	adds	r1, r3, r4
 80058fa:	29fe      	cmp	r1, #254	@ 0xfe
 80058fc:	dcef      	bgt.n	80058de <scalbnf+0x3e>
 80058fe:	2900      	cmp	r1, #0
 8005900:	dd04      	ble.n	800590c <scalbnf+0x6c>
 8005902:	4810      	ldr	r0, [pc, #64]	@ (8005944 <scalbnf+0xa4>)
 8005904:	05c9      	lsls	r1, r1, #23
 8005906:	4010      	ands	r0, r2
 8005908:	4308      	orrs	r0, r1
 800590a:	e7d7      	b.n	80058bc <scalbnf+0x1c>
 800590c:	000b      	movs	r3, r1
 800590e:	3316      	adds	r3, #22
 8005910:	da05      	bge.n	800591e <scalbnf+0x7e>
 8005912:	4b0b      	ldr	r3, [pc, #44]	@ (8005940 <scalbnf+0xa0>)
 8005914:	2800      	cmp	r0, #0
 8005916:	da00      	bge.n	800591a <scalbnf+0x7a>
 8005918:	4b0b      	ldr	r3, [pc, #44]	@ (8005948 <scalbnf+0xa8>)
 800591a:	4909      	ldr	r1, [pc, #36]	@ (8005940 <scalbnf+0xa0>)
 800591c:	e7e4      	b.n	80058e8 <scalbnf+0x48>
 800591e:	3119      	adds	r1, #25
 8005920:	05c8      	lsls	r0, r1, #23
 8005922:	21cc      	movs	r1, #204	@ 0xcc
 8005924:	4b07      	ldr	r3, [pc, #28]	@ (8005944 <scalbnf+0xa4>)
 8005926:	0589      	lsls	r1, r1, #22
 8005928:	401a      	ands	r2, r3
 800592a:	4310      	orrs	r0, r2
 800592c:	e7df      	b.n	80058ee <scalbnf+0x4e>
 800592e:	46c0      	nop			@ (mov r8, r8)
 8005930:	ffff3cb0 	.word	0xffff3cb0
 8005934:	0000c350 	.word	0x0000c350
 8005938:	7149f2ca 	.word	0x7149f2ca
 800593c:	f149f2ca 	.word	0xf149f2ca
 8005940:	0da24260 	.word	0x0da24260
 8005944:	807fffff 	.word	0x807fffff
 8005948:	8da24260 	.word	0x8da24260

0800594c <with_errnof>:
 800594c:	b570      	push	{r4, r5, r6, lr}
 800594e:	000d      	movs	r5, r1
 8005950:	1c04      	adds	r4, r0, #0
 8005952:	f7fe feeb 	bl	800472c <__errno>
 8005956:	6005      	str	r5, [r0, #0]
 8005958:	1c20      	adds	r0, r4, #0
 800595a:	bd70      	pop	{r4, r5, r6, pc}

0800595c <xflowf>:
 800595c:	b510      	push	{r4, lr}
 800595e:	1c0b      	adds	r3, r1, #0
 8005960:	2800      	cmp	r0, #0
 8005962:	d002      	beq.n	800596a <xflowf+0xe>
 8005964:	2380      	movs	r3, #128	@ 0x80
 8005966:	061b      	lsls	r3, r3, #24
 8005968:	18cb      	adds	r3, r1, r3
 800596a:	1c18      	adds	r0, r3, #0
 800596c:	f7fb f94e 	bl	8000c0c <__aeabi_fmul>
 8005970:	2122      	movs	r1, #34	@ 0x22
 8005972:	f7ff ffeb 	bl	800594c <with_errnof>
 8005976:	bd10      	pop	{r4, pc}

08005978 <__math_uflowf>:
 8005978:	2180      	movs	r1, #128	@ 0x80
 800597a:	b510      	push	{r4, lr}
 800597c:	0549      	lsls	r1, r1, #21
 800597e:	f7ff ffed 	bl	800595c <xflowf>
 8005982:	bd10      	pop	{r4, pc}

08005984 <__math_oflowf>:
 8005984:	21e0      	movs	r1, #224	@ 0xe0
 8005986:	b510      	push	{r4, lr}
 8005988:	05c9      	lsls	r1, r1, #23
 800598a:	f7ff ffe7 	bl	800595c <xflowf>
 800598e:	bd10      	pop	{r4, pc}

08005990 <_init>:
 8005990:	b5f8      	push	{r3, r4, r5, r6, r7, lr}
 8005992:	46c0      	nop			@ (mov r8, r8)
 8005994:	bcf8      	pop	{r3, r4, r5, r6, r7}
 8005996:	bc08      	pop	{r3}
 8005998:	469e      	mov	lr, r3
 800599a:	4770      	bx	lr

0800599c <_fini>:
 800599c:	b5f8      	push	{r3, r4, r5, r6, r7, lr}
 800599e:	46c0      	nop			@ (mov r8, r8)
 80059a0:	bcf8      	pop	{r3, r4, r5, r6, r7}
 80059a2:	bc08      	pop	{r3}
 80059a4:	469e      	mov	lr, r3
 80059a6:	4770      	bx	lr
